ARM GAS  C:\Users\Ecapable\AppData\Local\Temp\ccmAuCaF.s 			page 1


   1              		.cpu cortex-m0
   2              		.fpu softvfp
   3              		.eabi_attribute 20, 1
   4              		.eabi_attribute 21, 1
   5              		.eabi_attribute 23, 3
   6              		.eabi_attribute 24, 1
   7              		.eabi_attribute 25, 1
   8              		.eabi_attribute 26, 1
   9              		.eabi_attribute 30, 6
  10              		.eabi_attribute 34, 0
  11              		.eabi_attribute 18, 4
  12              		.code	16
  13              		.file	"BLE_1_eventHandler.c"
  14              		.text
  15              	.Ltext0:
  16              		.cfi_sections	.debug_frame
  17              		.comm	cyBle_connHandle,2,4
  18              		.comm	cyBle_eventHandlerFlag,1,1
  19              		.comm	cyBle_busyStatus,1,1
  20              		.comm	cyBle_advertisingIntervalType,1,1
  21              		.global	cyBle_authInfo
  22              		.data
  23              		.align	2
  24              		.type	cyBle_authInfo, %object
  25              		.size	cyBle_authInfo, 5
  26              	cyBle_authInfo:
  27 0000 10       		.byte	16
  28 0001 00       		.byte	0
  29 0002 10       		.byte	16
  30 0003 00       		.byte	0
  31 0004 00       		.byte	0
  32 0005 000000   		.section	.text.CyBle_WriteReqHandler,"ax",%progbits
  33              		.align	2
  34              		.code	16
  35              		.thumb_func
  36              		.type	CyBle_WriteReqHandler, %function
  37              	CyBle_WriteReqHandler:
  38              	.LFB2:
  39              		.file 1 ".\\Generated_Source\\PSoC4\\BLE_1_eventHandler.c"
   1:.\Generated_Source\PSoC4/BLE_1_eventHandler.c **** /***************************************************************************//**
   2:.\Generated_Source\PSoC4/BLE_1_eventHandler.c **** * \file CYBLE_eventHandler.c
   3:.\Generated_Source\PSoC4/BLE_1_eventHandler.c **** * \version 3.10
   4:.\Generated_Source\PSoC4/BLE_1_eventHandler.c **** * 
   5:.\Generated_Source\PSoC4/BLE_1_eventHandler.c **** * \brief
   6:.\Generated_Source\PSoC4/BLE_1_eventHandler.c **** *  This file contains the source code for the Event Handler State Machine
   7:.\Generated_Source\PSoC4/BLE_1_eventHandler.c **** *  of the BLE Component.
   8:.\Generated_Source\PSoC4/BLE_1_eventHandler.c **** * 
   9:.\Generated_Source\PSoC4/BLE_1_eventHandler.c **** ********************************************************************************
  10:.\Generated_Source\PSoC4/BLE_1_eventHandler.c **** * \copyright
  11:.\Generated_Source\PSoC4/BLE_1_eventHandler.c **** * Copyright 2014-2016, Cypress Semiconductor Corporation.  All rights reserved.
  12:.\Generated_Source\PSoC4/BLE_1_eventHandler.c **** * You may use this file only in accordance with the license, terms, conditions,
  13:.\Generated_Source\PSoC4/BLE_1_eventHandler.c **** * disclaimers, and limitations in the end user license agreement accompanying
  14:.\Generated_Source\PSoC4/BLE_1_eventHandler.c **** * the software package with which this file was provided.
  15:.\Generated_Source\PSoC4/BLE_1_eventHandler.c **** *******************************************************************************/
  16:.\Generated_Source\PSoC4/BLE_1_eventHandler.c **** 
  17:.\Generated_Source\PSoC4/BLE_1_eventHandler.c **** #include "BLE_1_eventHandler.h"
  18:.\Generated_Source\PSoC4/BLE_1_eventHandler.c **** 
ARM GAS  C:\Users\Ecapable\AppData\Local\Temp\ccmAuCaF.s 			page 2


  19:.\Generated_Source\PSoC4/BLE_1_eventHandler.c **** 
  20:.\Generated_Source\PSoC4/BLE_1_eventHandler.c **** /***************************************
  21:.\Generated_Source\PSoC4/BLE_1_eventHandler.c **** * Private Function Prototypes
  22:.\Generated_Source\PSoC4/BLE_1_eventHandler.c **** ***************************************/
  23:.\Generated_Source\PSoC4/BLE_1_eventHandler.c **** 
  24:.\Generated_Source\PSoC4/BLE_1_eventHandler.c **** static void CyBle_GattDisconnectEventHandler(void);
  25:.\Generated_Source\PSoC4/BLE_1_eventHandler.c **** static void CyBle_TimeOutEventHandler(const CYBLE_TO_REASON_CODE_T *eventParam);
  26:.\Generated_Source\PSoC4/BLE_1_eventHandler.c **** static void CyBle_GattConnectReqHandler(void);
  27:.\Generated_Source\PSoC4/BLE_1_eventHandler.c **** static void CyBle_L2Cap_ConnParamUpdateRspEventHandler(uint16 response);
  28:.\Generated_Source\PSoC4/BLE_1_eventHandler.c **** static void CyBle_GapConnUpdateCompleteEventHandler(const CYBLE_GAP_CONN_PARAM_UPDATED_IN_CONTROLLE
  29:.\Generated_Source\PSoC4/BLE_1_eventHandler.c **** 
  30:.\Generated_Source\PSoC4/BLE_1_eventHandler.c **** 
  31:.\Generated_Source\PSoC4/BLE_1_eventHandler.c **** #if (CYBLE_GATT_ROLE_SERVER)
  32:.\Generated_Source\PSoC4/BLE_1_eventHandler.c **** 
  33:.\Generated_Source\PSoC4/BLE_1_eventHandler.c **** static void CyBle_WriteReqHandler(CYBLE_GATTS_WRITE_REQ_PARAM_T *eventParam);
  34:.\Generated_Source\PSoC4/BLE_1_eventHandler.c **** static void CyBle_ValueConfirmation(const CYBLE_CONN_HANDLE_T *eventParam);
  35:.\Generated_Source\PSoC4/BLE_1_eventHandler.c **** 
  36:.\Generated_Source\PSoC4/BLE_1_eventHandler.c **** #endif /* CYBLE_GATT_ROLE_SERVER */
  37:.\Generated_Source\PSoC4/BLE_1_eventHandler.c **** 
  38:.\Generated_Source\PSoC4/BLE_1_eventHandler.c **** #if (CYBLE_GATT_ROLE_CLIENT)
  39:.\Generated_Source\PSoC4/BLE_1_eventHandler.c **** 
  40:.\Generated_Source\PSoC4/BLE_1_eventHandler.c **** static void CyBle_GapcDiscoverCharacteristicsEventHandler(CYBLE_DISC_CHAR_INFO_T *discCharInfo);
  41:.\Generated_Source\PSoC4/BLE_1_eventHandler.c **** static CYBLE_GATT_ATTR_HANDLE_RANGE_T CyBle_GetCharRange(void);
  42:.\Generated_Source\PSoC4/BLE_1_eventHandler.c **** static void CyBle_GattcWriteResponseEventHandler(const CYBLE_CONN_HANDLE_T *eventParam);
  43:.\Generated_Source\PSoC4/BLE_1_eventHandler.c **** static void CyBle_NotificationEventHandler(CYBLE_GATTC_HANDLE_VALUE_NTF_PARAM_T *eventParam);
  44:.\Generated_Source\PSoC4/BLE_1_eventHandler.c **** static void CyBle_IndicationEventHandler(CYBLE_GATTC_HANDLE_VALUE_IND_PARAM_T *eventParam);
  45:.\Generated_Source\PSoC4/BLE_1_eventHandler.c **** static void CyBle_ReadResponseEventHandler(CYBLE_GATTC_READ_RSP_PARAM_T *eventParam);
  46:.\Generated_Source\PSoC4/BLE_1_eventHandler.c **** static void CyBle_ReadMultipleResponseEventHandler(CYBLE_GATTC_READ_RSP_PARAM_T *eventParam);
  47:.\Generated_Source\PSoC4/BLE_1_eventHandler.c **** 
  48:.\Generated_Source\PSoC4/BLE_1_eventHandler.c **** #endif /* CYBLE_GATT_ROLE_CLIENT */
  49:.\Generated_Source\PSoC4/BLE_1_eventHandler.c **** 
  50:.\Generated_Source\PSoC4/BLE_1_eventHandler.c **** 
  51:.\Generated_Source\PSoC4/BLE_1_eventHandler.c **** /***************************************
  52:.\Generated_Source\PSoC4/BLE_1_eventHandler.c **** * Global Variables
  53:.\Generated_Source\PSoC4/BLE_1_eventHandler.c **** ***************************************/
  54:.\Generated_Source\PSoC4/BLE_1_eventHandler.c **** 
  55:.\Generated_Source\PSoC4/BLE_1_eventHandler.c **** /* This global variable is initialized after connection with peer device, 
  56:.\Generated_Source\PSoC4/BLE_1_eventHandler.c ****    after CYBLE_EVT_GATT_CONNECT_IND event, and could be used by application code
  57:.\Generated_Source\PSoC4/BLE_1_eventHandler.c ****    to send data to peer device. 
  58:.\Generated_Source\PSoC4/BLE_1_eventHandler.c **** */
  59:.\Generated_Source\PSoC4/BLE_1_eventHandler.c **** CYBLE_CONN_HANDLE_T cyBle_connHandle;
  60:.\Generated_Source\PSoC4/BLE_1_eventHandler.c **** 
  61:.\Generated_Source\PSoC4/BLE_1_eventHandler.c **** volatile uint8 cyBle_eventHandlerFlag;
  62:.\Generated_Source\PSoC4/BLE_1_eventHandler.c **** volatile uint8 cyBle_busyStatus;
  63:.\Generated_Source\PSoC4/BLE_1_eventHandler.c **** 
  64:.\Generated_Source\PSoC4/BLE_1_eventHandler.c **** #if(CYBLE_GAP_ROLE_PERIPHERAL || CYBLE_GAP_ROLE_BROADCASTER) 
  65:.\Generated_Source\PSoC4/BLE_1_eventHandler.c ****     uint8 cyBle_advertisingIntervalType;
  66:.\Generated_Source\PSoC4/BLE_1_eventHandler.c **** #endif /* CYBLE_GAP_ROLE_PERIPHERAL || CYBLE_GAP_ROLE_BROADCASTER) */
  67:.\Generated_Source\PSoC4/BLE_1_eventHandler.c **** 
  68:.\Generated_Source\PSoC4/BLE_1_eventHandler.c **** #if(CYBLE_GAP_ROLE_CENTRAL || CYBLE_GAP_ROLE_OBSERVER) 
  69:.\Generated_Source\PSoC4/BLE_1_eventHandler.c ****     uint8 cyBle_scanningIntervalType;
  70:.\Generated_Source\PSoC4/BLE_1_eventHandler.c **** #endif /* CYBLE_GAP_ROLE_CENTRAL || CYBLE_GAP_ROLE_OBSERVER */
  71:.\Generated_Source\PSoC4/BLE_1_eventHandler.c **** 
  72:.\Generated_Source\PSoC4/BLE_1_eventHandler.c **** #if(CYBLE_GATT_ROLE_SERVER)
  73:.\Generated_Source\PSoC4/BLE_1_eventHandler.c **** #if defined CYBLE_CTS_SERVER || defined CYBLE_ESS_SERVER
  74:.\Generated_Source\PSoC4/BLE_1_eventHandler.c **** CYBLE_GATT_ERR_CODE_T cyBle_gattError;
  75:.\Generated_Source\PSoC4/BLE_1_eventHandler.c **** #endif /* defined CYBLE_CTS_SERVER || defined CYBLE_ESS_SERVER */
ARM GAS  C:\Users\Ecapable\AppData\Local\Temp\ccmAuCaF.s 			page 3


  76:.\Generated_Source\PSoC4/BLE_1_eventHandler.c **** #endif /* CYBLE_GATT_ROLE_SERVER */
  77:.\Generated_Source\PSoC4/BLE_1_eventHandler.c **** 
  78:.\Generated_Source\PSoC4/BLE_1_eventHandler.c **** #if(CYBLE_GATT_ROLE_CLIENT)
  79:.\Generated_Source\PSoC4/BLE_1_eventHandler.c **** uint8 cyBle_disCount; /* Counter for discovery procedures */
  80:.\Generated_Source\PSoC4/BLE_1_eventHandler.c **** 
  81:.\Generated_Source\PSoC4/BLE_1_eventHandler.c **** #ifdef CYBLE_CUSTOM_CLIENT
  82:.\Generated_Source\PSoC4/BLE_1_eventHandler.c **** /* Discovery included service information, used for 128-bit UUID read response handle 
  83:.\Generated_Source\PSoC4/BLE_1_eventHandler.c ****    and for continue discovery. 
  84:.\Generated_Source\PSoC4/BLE_1_eventHandler.c **** */
  85:.\Generated_Source\PSoC4/BLE_1_eventHandler.c **** static CYBLE_DISC_INCL_INFO_T cyBle_discInclInfo;
  86:.\Generated_Source\PSoC4/BLE_1_eventHandler.c **** #endif /* CYBLE_CUSTOM_CLIENT */
  87:.\Generated_Source\PSoC4/BLE_1_eventHandler.c **** 
  88:.\Generated_Source\PSoC4/BLE_1_eventHandler.c **** #ifdef CYBLE_HIDS_CLIENT
  89:.\Generated_Source\PSoC4/BLE_1_eventHandler.c ****     static uint8 disServiceIndex;      /* To discovery descriptors for multiple HID service instanc
  90:.\Generated_Source\PSoC4/BLE_1_eventHandler.c **** #endif /* CYBLE_HIDS_CLIENT */
  91:.\Generated_Source\PSoC4/BLE_1_eventHandler.c **** 
  92:.\Generated_Source\PSoC4/BLE_1_eventHandler.c **** CYBLE_DISC_SRVC_INFO_T cyBle_serverInfo[CYBLE_SRVI_COUNT] = /*4*/
  93:.\Generated_Source\PSoC4/BLE_1_eventHandler.c **** {
  94:.\Generated_Source\PSoC4/BLE_1_eventHandler.c ****     {{CYBLE_GATT_INVALID_ATTR_HANDLE_VALUE, CYBLE_GATT_INVALID_ATTR_HANDLE_VALUE}, CYBLE_UUID_GAP_S
  95:.\Generated_Source\PSoC4/BLE_1_eventHandler.c ****     {{CYBLE_GATT_INVALID_ATTR_HANDLE_VALUE, CYBLE_GATT_INVALID_ATTR_HANDLE_VALUE}, CYBLE_UUID_GATT_
  96:.\Generated_Source\PSoC4/BLE_1_eventHandler.c **** #ifdef CYBLE_ANCS_CLIENT
  97:.\Generated_Source\PSoC4/BLE_1_eventHandler.c ****     {{CYBLE_GATT_INVALID_ATTR_HANDLE_VALUE, CYBLE_GATT_INVALID_ATTR_HANDLE_VALUE}, 0x0000u},
  98:.\Generated_Source\PSoC4/BLE_1_eventHandler.c **** #endif /* CYBLE_ANCS_CLIENT */
  99:.\Generated_Source\PSoC4/BLE_1_eventHandler.c **** #ifdef CYBLE_ANS_CLIENT
 100:.\Generated_Source\PSoC4/BLE_1_eventHandler.c ****     {{CYBLE_GATT_INVALID_ATTR_HANDLE_VALUE, CYBLE_GATT_INVALID_ATTR_HANDLE_VALUE}, 
 101:.\Generated_Source\PSoC4/BLE_1_eventHandler.c ****         CYBLE_UUID_ALERT_NOTIFICATION_SERVICE},
 102:.\Generated_Source\PSoC4/BLE_1_eventHandler.c **** #endif /* CYBLE_ANS_CLIENT */
 103:.\Generated_Source\PSoC4/BLE_1_eventHandler.c **** #ifdef CYBLE_BAS_CLIENT
 104:.\Generated_Source\PSoC4/BLE_1_eventHandler.c ****     {{CYBLE_GATT_INVALID_ATTR_HANDLE_VALUE, CYBLE_GATT_INVALID_ATTR_HANDLE_VALUE}, CYBLE_UUID_BAS_S
 105:.\Generated_Source\PSoC4/BLE_1_eventHandler.c ****     #if(CYBLE_BASC_SERVICE_COUNT > 1u) /* Generate it by GUI */
 106:.\Generated_Source\PSoC4/BLE_1_eventHandler.c ****         
 107:.\Generated_Source\PSoC4/BLE_1_eventHandler.c ****     #endif /* CYBLE_BASC_SERVICE_COUNT > 1u */
 108:.\Generated_Source\PSoC4/BLE_1_eventHandler.c **** #endif /* CYBLE_BAS_CLIENT */
 109:.\Generated_Source\PSoC4/BLE_1_eventHandler.c **** #ifdef CYBLE_BCS_CLIENT
 110:.\Generated_Source\PSoC4/BLE_1_eventHandler.c ****     {{CYBLE_GATT_INVALID_ATTR_HANDLE_VALUE, CYBLE_GATT_INVALID_ATTR_HANDLE_VALUE}, CYBLE_UUID_BODY_
 111:.\Generated_Source\PSoC4/BLE_1_eventHandler.c **** #endif /* CYBLE_BCS_CLIENT */
 112:.\Generated_Source\PSoC4/BLE_1_eventHandler.c **** #ifdef CYBLE_BLS_CLIENT
 113:.\Generated_Source\PSoC4/BLE_1_eventHandler.c ****     {{CYBLE_GATT_INVALID_ATTR_HANDLE_VALUE, CYBLE_GATT_INVALID_ATTR_HANDLE_VALUE}, CYBLE_UUID_BLOOD
 114:.\Generated_Source\PSoC4/BLE_1_eventHandler.c **** #endif /* CYBLE_BLS_CLIENT */
 115:.\Generated_Source\PSoC4/BLE_1_eventHandler.c **** #ifdef CYBLE_BMS_CLIENT
 116:.\Generated_Source\PSoC4/BLE_1_eventHandler.c ****     {{CYBLE_GATT_INVALID_ATTR_HANDLE_VALUE, CYBLE_GATT_INVALID_ATTR_HANDLE_VALUE}, CYBLE_UUID_BOND_
 117:.\Generated_Source\PSoC4/BLE_1_eventHandler.c **** #endif /* CYBLE_BMS_CLIENT */
 118:.\Generated_Source\PSoC4/BLE_1_eventHandler.c **** #ifdef CYBLE_CGMS_CLIENT
 119:.\Generated_Source\PSoC4/BLE_1_eventHandler.c ****     {{CYBLE_GATT_INVALID_ATTR_HANDLE_VALUE, CYBLE_GATT_INVALID_ATTR_HANDLE_VALUE}, CYBLE_UUID_CGM_S
 120:.\Generated_Source\PSoC4/BLE_1_eventHandler.c **** #endif /* CYBLE_CGMS_CLIENT */
 121:.\Generated_Source\PSoC4/BLE_1_eventHandler.c **** #ifdef CYBLE_CPS_CLIENT
 122:.\Generated_Source\PSoC4/BLE_1_eventHandler.c ****     {{CYBLE_GATT_INVALID_ATTR_HANDLE_VALUE, CYBLE_GATT_INVALID_ATTR_HANDLE_VALUE}, CYBLE_UUID_CPS_S
 123:.\Generated_Source\PSoC4/BLE_1_eventHandler.c **** #endif /* CYBLE_CPS_CLIENT */
 124:.\Generated_Source\PSoC4/BLE_1_eventHandler.c **** #ifdef CYBLE_CSCS_CLIENT
 125:.\Generated_Source\PSoC4/BLE_1_eventHandler.c ****     {{CYBLE_GATT_INVALID_ATTR_HANDLE_VALUE, CYBLE_GATT_INVALID_ATTR_HANDLE_VALUE}, 
 126:.\Generated_Source\PSoC4/BLE_1_eventHandler.c ****         CYBLE_UUID_CYCLING_SPEED_AND_CADENCE_SERVICE},
 127:.\Generated_Source\PSoC4/BLE_1_eventHandler.c **** #endif /* CYBLE_CSCS_CLIENT */
 128:.\Generated_Source\PSoC4/BLE_1_eventHandler.c **** #ifdef CYBLE_CTS_CLIENT
 129:.\Generated_Source\PSoC4/BLE_1_eventHandler.c ****     {{CYBLE_GATT_INVALID_ATTR_HANDLE_VALUE, CYBLE_GATT_INVALID_ATTR_HANDLE_VALUE}, CYBLE_UUID_CURRE
 130:.\Generated_Source\PSoC4/BLE_1_eventHandler.c **** #endif /* CYBLE_CTS_CLIENT */
 131:.\Generated_Source\PSoC4/BLE_1_eventHandler.c **** #ifdef CYBLE_CUSTOM_CLIENT
 132:.\Generated_Source\PSoC4/BLE_1_eventHandler.c ****     
ARM GAS  C:\Users\Ecapable\AppData\Local\Temp\ccmAuCaF.s 			page 4


 133:.\Generated_Source\PSoC4/BLE_1_eventHandler.c **** #endif /* CYBLE_CUSTOM_CLIENT */
 134:.\Generated_Source\PSoC4/BLE_1_eventHandler.c **** #ifdef CYBLE_DIS_CLIENT
 135:.\Generated_Source\PSoC4/BLE_1_eventHandler.c ****     {{CYBLE_GATT_INVALID_ATTR_HANDLE_VALUE, CYBLE_GATT_INVALID_ATTR_HANDLE_VALUE}, CYBLE_UUID_DEVIC
 136:.\Generated_Source\PSoC4/BLE_1_eventHandler.c **** #endif /* CYBLE_DIS_CLIENT */
 137:.\Generated_Source\PSoC4/BLE_1_eventHandler.c **** #ifdef CYBLE_ESS_CLIENT
 138:.\Generated_Source\PSoC4/BLE_1_eventHandler.c ****     {{CYBLE_GATT_INVALID_ATTR_HANDLE_VALUE, CYBLE_GATT_INVALID_ATTR_HANDLE_VALUE}, 
 139:.\Generated_Source\PSoC4/BLE_1_eventHandler.c ****         CYBLE_UUID_ENVIRONMENTAL_SENSING_SERVICE},
 140:.\Generated_Source\PSoC4/BLE_1_eventHandler.c **** #endif /* CYBLE_ESS_CLIENT */
 141:.\Generated_Source\PSoC4/BLE_1_eventHandler.c **** #ifdef CYBLE_GLS_CLIENT
 142:.\Generated_Source\PSoC4/BLE_1_eventHandler.c ****     {{CYBLE_GATT_INVALID_ATTR_HANDLE_VALUE, CYBLE_GATT_INVALID_ATTR_HANDLE_VALUE}, CYBLE_UUID_GLUCO
 143:.\Generated_Source\PSoC4/BLE_1_eventHandler.c **** #endif /* CYBLE_GLS_CLIENT */
 144:.\Generated_Source\PSoC4/BLE_1_eventHandler.c **** #ifdef CYBLE_HIDS_CLIENT
 145:.\Generated_Source\PSoC4/BLE_1_eventHandler.c ****     {{CYBLE_GATT_INVALID_ATTR_HANDLE_VALUE, CYBLE_GATT_INVALID_ATTR_HANDLE_VALUE}, CYBLE_UUID_HIDS_
 146:.\Generated_Source\PSoC4/BLE_1_eventHandler.c ****     #if(CYBLE_HIDSC_SERVICE_COUNT > 1u) /* Generate it by GUI */
 147:.\Generated_Source\PSoC4/BLE_1_eventHandler.c ****         
 148:.\Generated_Source\PSoC4/BLE_1_eventHandler.c ****     #endif /* CYBLE_HIDSC_SERVICE_COUNT > 1u */
 149:.\Generated_Source\PSoC4/BLE_1_eventHandler.c **** #endif /* CYBLE_HIDS_CLIENT */
 150:.\Generated_Source\PSoC4/BLE_1_eventHandler.c **** #ifdef CYBLE_HPS_CLIENT
 151:.\Generated_Source\PSoC4/BLE_1_eventHandler.c ****     {{CYBLE_GATT_INVALID_ATTR_HANDLE_VALUE, CYBLE_GATT_INVALID_ATTR_HANDLE_VALUE}, CYBLE_UUID_HTTP_
 152:.\Generated_Source\PSoC4/BLE_1_eventHandler.c **** #endif /* CYBLE_HPS_CLIENT */
 153:.\Generated_Source\PSoC4/BLE_1_eventHandler.c **** #ifdef CYBLE_HRS_CLIENT
 154:.\Generated_Source\PSoC4/BLE_1_eventHandler.c ****     {{CYBLE_GATT_INVALID_ATTR_HANDLE_VALUE, CYBLE_GATT_INVALID_ATTR_HANDLE_VALUE}, CYBLE_UUID_HEART
 155:.\Generated_Source\PSoC4/BLE_1_eventHandler.c **** #endif /* CYBLE_HRS_CLIENT */
 156:.\Generated_Source\PSoC4/BLE_1_eventHandler.c **** #ifdef CYBLE_HTS_CLIENT
 157:.\Generated_Source\PSoC4/BLE_1_eventHandler.c ****     {{CYBLE_GATT_INVALID_ATTR_HANDLE_VALUE, CYBLE_GATT_INVALID_ATTR_HANDLE_VALUE}, CYBLE_UUID_HEALT
 158:.\Generated_Source\PSoC4/BLE_1_eventHandler.c **** #endif /* CYBLE_HTS_CLIENT */
 159:.\Generated_Source\PSoC4/BLE_1_eventHandler.c **** #ifdef CYBLE_IAS_CLIENT
 160:.\Generated_Source\PSoC4/BLE_1_eventHandler.c ****     {{CYBLE_GATT_INVALID_ATTR_HANDLE_VALUE, CYBLE_GATT_INVALID_ATTR_HANDLE_VALUE}, CYBLE_UUID_IMMED
 161:.\Generated_Source\PSoC4/BLE_1_eventHandler.c **** #endif /* CYBLE_IAS_CLIENT */
 162:.\Generated_Source\PSoC4/BLE_1_eventHandler.c **** #ifdef CYBLE_IPS_CLIENT
 163:.\Generated_Source\PSoC4/BLE_1_eventHandler.c ****     {{CYBLE_GATT_INVALID_ATTR_HANDLE_VALUE, CYBLE_GATT_INVALID_ATTR_HANDLE_VALUE}, CYBLE_UUID_IPS_S
 164:.\Generated_Source\PSoC4/BLE_1_eventHandler.c **** #endif /* CYBLE_IPS_CLIENT */
 165:.\Generated_Source\PSoC4/BLE_1_eventHandler.c **** #ifdef CYBLE_LLS_CLIENT
 166:.\Generated_Source\PSoC4/BLE_1_eventHandler.c ****     {{CYBLE_GATT_INVALID_ATTR_HANDLE_VALUE, CYBLE_GATT_INVALID_ATTR_HANDLE_VALUE}, CYBLE_UUID_LINK_
 167:.\Generated_Source\PSoC4/BLE_1_eventHandler.c **** #endif /* CYBLE_LLS_CLIENT */
 168:.\Generated_Source\PSoC4/BLE_1_eventHandler.c **** #ifdef CYBLE_LNS_CLIENT
 169:.\Generated_Source\PSoC4/BLE_1_eventHandler.c ****     {{CYBLE_GATT_INVALID_ATTR_HANDLE_VALUE, CYBLE_GATT_INVALID_ATTR_HANDLE_VALUE}, CYBLE_UUID_LOCAT
 170:.\Generated_Source\PSoC4/BLE_1_eventHandler.c **** #endif /* CYBLE_LNS_CLIENT */
 171:.\Generated_Source\PSoC4/BLE_1_eventHandler.c **** #ifdef CYBLE_NDCS_CLIENT
 172:.\Generated_Source\PSoC4/BLE_1_eventHandler.c ****     {{CYBLE_GATT_INVALID_ATTR_HANDLE_VALUE, CYBLE_GATT_INVALID_ATTR_HANDLE_VALUE}, CYBLE_UUID_NEXT_
 173:.\Generated_Source\PSoC4/BLE_1_eventHandler.c **** #endif /* CYBLE_NDCS_CLIENT */
 174:.\Generated_Source\PSoC4/BLE_1_eventHandler.c **** #ifdef CYBLE_IPSS_CLIENT
 175:.\Generated_Source\PSoC4/BLE_1_eventHandler.c ****     {{CYBLE_GATT_INVALID_ATTR_HANDLE_VALUE, CYBLE_GATT_INVALID_ATTR_HANDLE_VALUE}, CYBLE_UUID_INTER
 176:.\Generated_Source\PSoC4/BLE_1_eventHandler.c **** #endif /* CYBLE_IPSS_CLIENT */
 177:.\Generated_Source\PSoC4/BLE_1_eventHandler.c **** #ifdef CYBLE_PASS_CLIENT
 178:.\Generated_Source\PSoC4/BLE_1_eventHandler.c ****     {{CYBLE_GATT_INVALID_ATTR_HANDLE_VALUE, CYBLE_GATT_INVALID_ATTR_HANDLE_VALUE}, CYBLE_UUID_PHONE
 179:.\Generated_Source\PSoC4/BLE_1_eventHandler.c **** #endif /* CYBLE_PASS_CLIENT */
 180:.\Generated_Source\PSoC4/BLE_1_eventHandler.c **** #ifdef CYBLE_RSCS_CLIENT
 181:.\Generated_Source\PSoC4/BLE_1_eventHandler.c ****     {{CYBLE_GATT_INVALID_ATTR_HANDLE_VALUE, CYBLE_GATT_INVALID_ATTR_HANDLE_VALUE}, CYBLE_UUID_RUNNI
 182:.\Generated_Source\PSoC4/BLE_1_eventHandler.c **** #endif /* CYBLE_RSCS_CLIENT */
 183:.\Generated_Source\PSoC4/BLE_1_eventHandler.c **** #ifdef CYBLE_RTUS_CLIENT
 184:.\Generated_Source\PSoC4/BLE_1_eventHandler.c ****     {{CYBLE_GATT_INVALID_ATTR_HANDLE_VALUE, CYBLE_GATT_INVALID_ATTR_HANDLE_VALUE}, CYBLE_UUID_REF_T
 185:.\Generated_Source\PSoC4/BLE_1_eventHandler.c **** #endif /* CYBLE_RTUS_CLIENT */
 186:.\Generated_Source\PSoC4/BLE_1_eventHandler.c **** #ifdef CYBLE_SCPS_CLIENT
 187:.\Generated_Source\PSoC4/BLE_1_eventHandler.c ****     {{CYBLE_GATT_INVALID_ATTR_HANDLE_VALUE, CYBLE_GATT_INVALID_ATTR_HANDLE_VALUE}, CYBLE_UUID_SCAN_
 188:.\Generated_Source\PSoC4/BLE_1_eventHandler.c **** #endif /* CYBLE_SCPS_CLIENT */
 189:.\Generated_Source\PSoC4/BLE_1_eventHandler.c **** #ifdef CYBLE_TPS_CLIENT
ARM GAS  C:\Users\Ecapable\AppData\Local\Temp\ccmAuCaF.s 			page 5


 190:.\Generated_Source\PSoC4/BLE_1_eventHandler.c ****     {{CYBLE_GATT_INVALID_ATTR_HANDLE_VALUE, CYBLE_GATT_INVALID_ATTR_HANDLE_VALUE}, CYBLE_UUID_TX_PO
 191:.\Generated_Source\PSoC4/BLE_1_eventHandler.c **** #endif /* CYBLE_TPS_CLIENT */
 192:.\Generated_Source\PSoC4/BLE_1_eventHandler.c **** #ifdef CYBLE_UDS_CLIENT
 193:.\Generated_Source\PSoC4/BLE_1_eventHandler.c ****     {{CYBLE_GATT_INVALID_ATTR_HANDLE_VALUE, CYBLE_GATT_INVALID_ATTR_HANDLE_VALUE}, CYBLE_UUID_USER_
 194:.\Generated_Source\PSoC4/BLE_1_eventHandler.c **** #endif /* CYBLE_UDS_CLIENT */
 195:.\Generated_Source\PSoC4/BLE_1_eventHandler.c **** #ifdef CYBLE_WSS_CLIENT
 196:.\Generated_Source\PSoC4/BLE_1_eventHandler.c ****     {{CYBLE_GATT_INVALID_ATTR_HANDLE_VALUE, CYBLE_GATT_INVALID_ATTR_HANDLE_VALUE}, CYBLE_UUID_WEIGH
 197:.\Generated_Source\PSoC4/BLE_1_eventHandler.c **** #endif /* CYBLE_WSS_CLIENT */
 198:.\Generated_Source\PSoC4/BLE_1_eventHandler.c **** #ifdef CYBLE_WPTS_CLIENT
 199:.\Generated_Source\PSoC4/BLE_1_eventHandler.c ****     {{CYBLE_GATT_INVALID_ATTR_HANDLE_VALUE, CYBLE_GATT_INVALID_ATTR_HANDLE_VALUE}, CYBLE_UUID_WIREL
 200:.\Generated_Source\PSoC4/BLE_1_eventHandler.c **** #endif /* CYBLE_WPTS_CLIENT */
 201:.\Generated_Source\PSoC4/BLE_1_eventHandler.c **** };
 202:.\Generated_Source\PSoC4/BLE_1_eventHandler.c **** 
 203:.\Generated_Source\PSoC4/BLE_1_eventHandler.c **** CYBLE_GAPC_T cyBle_gapc;
 204:.\Generated_Source\PSoC4/BLE_1_eventHandler.c **** 
 205:.\Generated_Source\PSoC4/BLE_1_eventHandler.c **** #endif /* CYBLE_GATT_ROLE_CLIENT */
 206:.\Generated_Source\PSoC4/BLE_1_eventHandler.c **** 
 207:.\Generated_Source\PSoC4/BLE_1_eventHandler.c **** /* Default device security */
 208:.\Generated_Source\PSoC4/BLE_1_eventHandler.c **** CYBLE_GAP_AUTH_INFO_T cyBle_authInfo =
 209:.\Generated_Source\PSoC4/BLE_1_eventHandler.c **** {
 210:.\Generated_Source\PSoC4/BLE_1_eventHandler.c ****     (CYBLE_GAP_SEC_MODE_1 | CYBLE_GAP_SEC_LEVEL_1 ), /* uint8 security */
 211:.\Generated_Source\PSoC4/BLE_1_eventHandler.c ****     CYBLE_GAP_BONDING_NONE, /* uint8 bonding */
 212:.\Generated_Source\PSoC4/BLE_1_eventHandler.c ****     0x10u,      /* uint8 ekeySize */
 213:.\Generated_Source\PSoC4/BLE_1_eventHandler.c ****     CYBLE_GAP_AUTH_ERROR_NONE, /* CYBLE_AUTH_FAILED_REASON_T authErr */
 214:.\Generated_Source\PSoC4/BLE_1_eventHandler.c ****     0x00u,      /* uint8 pairingProperties */
 215:.\Generated_Source\PSoC4/BLE_1_eventHandler.c **** };
 216:.\Generated_Source\PSoC4/BLE_1_eventHandler.c **** 
 217:.\Generated_Source\PSoC4/BLE_1_eventHandler.c **** #if(CYBLE_GATT_ROLE_SERVER)
 218:.\Generated_Source\PSoC4/BLE_1_eventHandler.c **** 
 219:.\Generated_Source\PSoC4/BLE_1_eventHandler.c **** 
 220:.\Generated_Source\PSoC4/BLE_1_eventHandler.c **** /******************************************************************************    
 221:.\Generated_Source\PSoC4/BLE_1_eventHandler.c **** * Function Name: CyBle_WriteReqHandler
 222:.\Generated_Source\PSoC4/BLE_1_eventHandler.c **** ***************************************************************************//**
 223:.\Generated_Source\PSoC4/BLE_1_eventHandler.c **** * 
 224:.\Generated_Source\PSoC4/BLE_1_eventHandler.c **** *  Handles the Write Request event from BLE stack.
 225:.\Generated_Source\PSoC4/BLE_1_eventHandler.c **** * 
 226:.\Generated_Source\PSoC4/BLE_1_eventHandler.c **** *  CYBLE_GATTS_WRITE_REQ_PARAM_T * eventParam - event parameter
 227:.\Generated_Source\PSoC4/BLE_1_eventHandler.c **** * 
 228:.\Generated_Source\PSoC4/BLE_1_eventHandler.c **** * \return
 229:.\Generated_Source\PSoC4/BLE_1_eventHandler.c **** *  None
 230:.\Generated_Source\PSoC4/BLE_1_eventHandler.c **** * 
 231:.\Generated_Source\PSoC4/BLE_1_eventHandler.c **** ******************************************************************************/
 232:.\Generated_Source\PSoC4/BLE_1_eventHandler.c **** static void CyBle_WriteReqHandler(CYBLE_GATTS_WRITE_REQ_PARAM_T *eventParam)
 233:.\Generated_Source\PSoC4/BLE_1_eventHandler.c **** {
  40              		.loc 1 233 0
  41              		.cfi_startproc
  42 0000 90B5     		push	{r4, r7, lr}
  43              		.cfi_def_cfa_offset 12
  44              		.cfi_offset 4, -12
  45              		.cfi_offset 7, -8
  46              		.cfi_offset 14, -4
  47 0002 85B0     		sub	sp, sp, #20
  48              		.cfi_def_cfa_offset 32
  49 0004 00AF     		add	r7, sp, #0
  50              		.cfi_def_cfa_register 7
  51 0006 7860     		str	r0, [r7, #4]
 234:.\Generated_Source\PSoC4/BLE_1_eventHandler.c ****     CYBLE_GATT_ERR_CODE_T gattErr;
ARM GAS  C:\Users\Ecapable\AppData\Local\Temp\ccmAuCaF.s 			page 6


 235:.\Generated_Source\PSoC4/BLE_1_eventHandler.c **** #if defined CYBLE_CTS_SERVER || defined CYBLE_ESS_SERVER
 236:.\Generated_Source\PSoC4/BLE_1_eventHandler.c ****     cyBle_gattError = CYBLE_GATT_ERR_NONE;
 237:.\Generated_Source\PSoC4/BLE_1_eventHandler.c **** #endif /* defined CYBLE_CTS_SERVER || defined CYBLE_ESS_SERVER */
 238:.\Generated_Source\PSoC4/BLE_1_eventHandler.c ****     
 239:.\Generated_Source\PSoC4/BLE_1_eventHandler.c ****     gattErr = CyBle_GattsWriteEventHandler(eventParam);
  52              		.loc 1 239 0
  53 0008 0F23     		mov	r3, #15
  54 000a FC18     		add	r4, r7, r3
  55 000c 7B68     		ldr	r3, [r7, #4]
  56 000e 181C     		mov	r0, r3
  57 0010 FFF7FEFF 		bl	CyBle_GattsWriteEventHandler
  58 0014 031C     		mov	r3, r0
  59 0016 2370     		strb	r3, [r4]
 240:.\Generated_Source\PSoC4/BLE_1_eventHandler.c **** #ifdef CYBLE_ANCS_SERVER
 241:.\Generated_Source\PSoC4/BLE_1_eventHandler.c ****     if(((cyBle_eventHandlerFlag & CYBLE_CALLBACK) != 0u) && (gattErr == CYBLE_GATT_ERR_NONE))
 242:.\Generated_Source\PSoC4/BLE_1_eventHandler.c ****     {
 243:.\Generated_Source\PSoC4/BLE_1_eventHandler.c ****         gattErr = CyBle_AncssWriteEventHandler(eventParam);
 244:.\Generated_Source\PSoC4/BLE_1_eventHandler.c ****     }
 245:.\Generated_Source\PSoC4/BLE_1_eventHandler.c **** #endif /* CYBLE_ANCS_SERVER */
 246:.\Generated_Source\PSoC4/BLE_1_eventHandler.c **** #ifdef CYBLE_ANS_SERVER
 247:.\Generated_Source\PSoC4/BLE_1_eventHandler.c ****     if(((cyBle_eventHandlerFlag & CYBLE_CALLBACK) != 0u) && (gattErr == CYBLE_GATT_ERR_NONE))
 248:.\Generated_Source\PSoC4/BLE_1_eventHandler.c ****     {
 249:.\Generated_Source\PSoC4/BLE_1_eventHandler.c ****         gattErr = CyBle_AnssWriteEventHandler(eventParam);
 250:.\Generated_Source\PSoC4/BLE_1_eventHandler.c ****     }
 251:.\Generated_Source\PSoC4/BLE_1_eventHandler.c **** #endif /* CYBLE_ANS_SERVER */
 252:.\Generated_Source\PSoC4/BLE_1_eventHandler.c **** #ifdef CYBLE_BAS_SERVER
 253:.\Generated_Source\PSoC4/BLE_1_eventHandler.c ****     if(((cyBle_eventHandlerFlag & CYBLE_CALLBACK) != 0u) && (gattErr == CYBLE_GATT_ERR_NONE))
 254:.\Generated_Source\PSoC4/BLE_1_eventHandler.c ****     {
 255:.\Generated_Source\PSoC4/BLE_1_eventHandler.c ****         gattErr = CyBle_BassWriteEventHandler(eventParam);
 256:.\Generated_Source\PSoC4/BLE_1_eventHandler.c ****     }
 257:.\Generated_Source\PSoC4/BLE_1_eventHandler.c **** #endif /* CYBLE_BAS_SERVER */
 258:.\Generated_Source\PSoC4/BLE_1_eventHandler.c **** #ifdef CYBLE_BCS_SERVER
 259:.\Generated_Source\PSoC4/BLE_1_eventHandler.c ****     if(((cyBle_eventHandlerFlag & CYBLE_CALLBACK) != 0u) && (gattErr == CYBLE_GATT_ERR_NONE))
 260:.\Generated_Source\PSoC4/BLE_1_eventHandler.c ****     {
 261:.\Generated_Source\PSoC4/BLE_1_eventHandler.c ****         gattErr = CyBle_BcssWriteEventHandler(eventParam);
 262:.\Generated_Source\PSoC4/BLE_1_eventHandler.c ****     }
 263:.\Generated_Source\PSoC4/BLE_1_eventHandler.c **** #endif /* CYBLE_BCS_SERVER */
 264:.\Generated_Source\PSoC4/BLE_1_eventHandler.c **** #ifdef CYBLE_BLS_SERVER
 265:.\Generated_Source\PSoC4/BLE_1_eventHandler.c ****     if(((cyBle_eventHandlerFlag & CYBLE_CALLBACK) != 0u) && (gattErr == CYBLE_GATT_ERR_NONE))
 266:.\Generated_Source\PSoC4/BLE_1_eventHandler.c ****     {
 267:.\Generated_Source\PSoC4/BLE_1_eventHandler.c ****         gattErr = CyBle_BlssWriteEventHandler(eventParam);
 268:.\Generated_Source\PSoC4/BLE_1_eventHandler.c ****     }
 269:.\Generated_Source\PSoC4/BLE_1_eventHandler.c **** #endif /* CYBLE_BLS_SERVER */
 270:.\Generated_Source\PSoC4/BLE_1_eventHandler.c **** #ifdef CYBLE_BMS_SERVER
 271:.\Generated_Source\PSoC4/BLE_1_eventHandler.c ****     if(((cyBle_eventHandlerFlag & CYBLE_CALLBACK) != 0u) && (gattErr == CYBLE_GATT_ERR_NONE))
 272:.\Generated_Source\PSoC4/BLE_1_eventHandler.c ****     {
 273:.\Generated_Source\PSoC4/BLE_1_eventHandler.c ****         gattErr = CyBle_BmssWriteEventHandler(eventParam);
 274:.\Generated_Source\PSoC4/BLE_1_eventHandler.c ****     }
 275:.\Generated_Source\PSoC4/BLE_1_eventHandler.c **** #endif /* CYBLE_BMS_SERVER */
 276:.\Generated_Source\PSoC4/BLE_1_eventHandler.c **** #ifdef CYBLE_BTS_SERVER
 277:.\Generated_Source\PSoC4/BLE_1_eventHandler.c ****     if((cyBle_eventHandlerFlag & CYBLE_CALLBACK) != 0u)
 278:.\Generated_Source\PSoC4/BLE_1_eventHandler.c ****     {
 279:.\Generated_Source\PSoC4/BLE_1_eventHandler.c ****         gattErr = CyBle_BtsWriteEventHandler(eventParam);
 280:.\Generated_Source\PSoC4/BLE_1_eventHandler.c ****     }
 281:.\Generated_Source\PSoC4/BLE_1_eventHandler.c **** #endif /* CYBLE_BTS_SERVER */
 282:.\Generated_Source\PSoC4/BLE_1_eventHandler.c **** #ifdef CYBLE_CGMS_SERVER
 283:.\Generated_Source\PSoC4/BLE_1_eventHandler.c ****     if(((cyBle_eventHandlerFlag & CYBLE_CALLBACK) != 0u) && (gattErr == CYBLE_GATT_ERR_NONE))
ARM GAS  C:\Users\Ecapable\AppData\Local\Temp\ccmAuCaF.s 			page 7


 284:.\Generated_Source\PSoC4/BLE_1_eventHandler.c ****     {
 285:.\Generated_Source\PSoC4/BLE_1_eventHandler.c ****         gattErr = CyBle_CgmssWriteEventHandler(eventParam);
 286:.\Generated_Source\PSoC4/BLE_1_eventHandler.c ****     }
 287:.\Generated_Source\PSoC4/BLE_1_eventHandler.c **** #endif /* CYBLE_CGMS_SERVER */
 288:.\Generated_Source\PSoC4/BLE_1_eventHandler.c **** #ifdef CYBLE_CPS_SERVER
 289:.\Generated_Source\PSoC4/BLE_1_eventHandler.c ****     if(((cyBle_eventHandlerFlag & CYBLE_CALLBACK) != 0u) && (gattErr == CYBLE_GATT_ERR_NONE))
 290:.\Generated_Source\PSoC4/BLE_1_eventHandler.c ****     {
 291:.\Generated_Source\PSoC4/BLE_1_eventHandler.c ****         gattErr = CyBle_CpssWriteEventHandler(eventParam);
 292:.\Generated_Source\PSoC4/BLE_1_eventHandler.c ****     }
 293:.\Generated_Source\PSoC4/BLE_1_eventHandler.c **** #endif /* CYBLE_CPS_SERVER */
 294:.\Generated_Source\PSoC4/BLE_1_eventHandler.c **** #ifdef CYBLE_CSCS_SERVER
 295:.\Generated_Source\PSoC4/BLE_1_eventHandler.c ****     if(((cyBle_eventHandlerFlag & CYBLE_CALLBACK) != 0u) && (gattErr == CYBLE_GATT_ERR_NONE))
 296:.\Generated_Source\PSoC4/BLE_1_eventHandler.c ****     {
 297:.\Generated_Source\PSoC4/BLE_1_eventHandler.c ****         gattErr = CyBle_CscssWriteEventHandler(eventParam);
 298:.\Generated_Source\PSoC4/BLE_1_eventHandler.c ****     }
 299:.\Generated_Source\PSoC4/BLE_1_eventHandler.c **** #endif /* CYBLE_CSCS_SERVER */
 300:.\Generated_Source\PSoC4/BLE_1_eventHandler.c **** #ifdef CYBLE_CTS_SERVER
 301:.\Generated_Source\PSoC4/BLE_1_eventHandler.c ****     if(((cyBle_eventHandlerFlag & CYBLE_CALLBACK) != 0u) && (gattErr == CYBLE_GATT_ERR_NONE))
 302:.\Generated_Source\PSoC4/BLE_1_eventHandler.c ****     {
 303:.\Generated_Source\PSoC4/BLE_1_eventHandler.c ****         gattErr = CyBle_CtssWriteEventHandler(eventParam);
 304:.\Generated_Source\PSoC4/BLE_1_eventHandler.c ****     }
 305:.\Generated_Source\PSoC4/BLE_1_eventHandler.c **** #endif /* CYBLE_CTS_SERVER */
 306:.\Generated_Source\PSoC4/BLE_1_eventHandler.c **** #ifdef CYBLE_ESS_SERVER
 307:.\Generated_Source\PSoC4/BLE_1_eventHandler.c ****     if(((cyBle_eventHandlerFlag & CYBLE_CALLBACK) != 0u) && (gattErr == CYBLE_GATT_ERR_NONE))
 308:.\Generated_Source\PSoC4/BLE_1_eventHandler.c ****     {
 309:.\Generated_Source\PSoC4/BLE_1_eventHandler.c ****         gattErr = CyBle_EsssWriteEventHandler(eventParam);
 310:.\Generated_Source\PSoC4/BLE_1_eventHandler.c ****     }
 311:.\Generated_Source\PSoC4/BLE_1_eventHandler.c **** #endif /* CYBLE_ESS_SERVER */
 312:.\Generated_Source\PSoC4/BLE_1_eventHandler.c **** #ifdef CYBLE_GLS_SERVER
 313:.\Generated_Source\PSoC4/BLE_1_eventHandler.c ****     if(((cyBle_eventHandlerFlag & CYBLE_CALLBACK) != 0u) && (gattErr == CYBLE_GATT_ERR_NONE))
 314:.\Generated_Source\PSoC4/BLE_1_eventHandler.c ****     {
 315:.\Generated_Source\PSoC4/BLE_1_eventHandler.c ****         gattErr = CyBle_GlssWriteEventHandler(eventParam);
 316:.\Generated_Source\PSoC4/BLE_1_eventHandler.c ****     }
 317:.\Generated_Source\PSoC4/BLE_1_eventHandler.c **** #endif /* CYBLE_GLS_SERVER */
 318:.\Generated_Source\PSoC4/BLE_1_eventHandler.c **** #ifdef CYBLE_HIDS_SERVER
 319:.\Generated_Source\PSoC4/BLE_1_eventHandler.c ****     if(((cyBle_eventHandlerFlag & CYBLE_CALLBACK) != 0u) && (gattErr == CYBLE_GATT_ERR_NONE))
 320:.\Generated_Source\PSoC4/BLE_1_eventHandler.c ****     {
 321:.\Generated_Source\PSoC4/BLE_1_eventHandler.c ****         gattErr = CyBle_HidssWriteEventHandler(eventParam);
 322:.\Generated_Source\PSoC4/BLE_1_eventHandler.c ****     }
 323:.\Generated_Source\PSoC4/BLE_1_eventHandler.c **** #endif /* CYBLE_HIDS_SERVER */
 324:.\Generated_Source\PSoC4/BLE_1_eventHandler.c **** #ifdef CYBLE_HPS_SERVER
 325:.\Generated_Source\PSoC4/BLE_1_eventHandler.c ****     if(((cyBle_eventHandlerFlag & CYBLE_CALLBACK) != 0u) && (gattErr == CYBLE_GATT_ERR_NONE))
 326:.\Generated_Source\PSoC4/BLE_1_eventHandler.c ****     {
 327:.\Generated_Source\PSoC4/BLE_1_eventHandler.c ****         gattErr = CyBle_HpssWriteEventHandler(eventParam);
 328:.\Generated_Source\PSoC4/BLE_1_eventHandler.c ****     }
 329:.\Generated_Source\PSoC4/BLE_1_eventHandler.c **** #endif /* CYBLE_HPS_SERVER */
 330:.\Generated_Source\PSoC4/BLE_1_eventHandler.c **** #ifdef CYBLE_HRS_SERVER
 331:.\Generated_Source\PSoC4/BLE_1_eventHandler.c ****     if(((cyBle_eventHandlerFlag & CYBLE_CALLBACK) != 0u) && (gattErr == CYBLE_GATT_ERR_NONE))
 332:.\Generated_Source\PSoC4/BLE_1_eventHandler.c ****     {
 333:.\Generated_Source\PSoC4/BLE_1_eventHandler.c ****         gattErr = CyBle_HrssWriteEventHandler(eventParam);
 334:.\Generated_Source\PSoC4/BLE_1_eventHandler.c ****     }
 335:.\Generated_Source\PSoC4/BLE_1_eventHandler.c **** #endif /* CYBLE_HRS_SERVER */
 336:.\Generated_Source\PSoC4/BLE_1_eventHandler.c **** #ifdef CYBLE_HTS_SERVER
 337:.\Generated_Source\PSoC4/BLE_1_eventHandler.c ****     if(((cyBle_eventHandlerFlag & CYBLE_CALLBACK) != 0u) && (gattErr == CYBLE_GATT_ERR_NONE))
 338:.\Generated_Source\PSoC4/BLE_1_eventHandler.c ****     {
 339:.\Generated_Source\PSoC4/BLE_1_eventHandler.c ****         gattErr = CyBle_HtssWriteEventHandler(eventParam);
 340:.\Generated_Source\PSoC4/BLE_1_eventHandler.c ****     }
ARM GAS  C:\Users\Ecapable\AppData\Local\Temp\ccmAuCaF.s 			page 8


 341:.\Generated_Source\PSoC4/BLE_1_eventHandler.c **** #endif /* CYBLE_HTS_SERVER */
 342:.\Generated_Source\PSoC4/BLE_1_eventHandler.c **** #ifdef CYBLE_IPS_SERVER
 343:.\Generated_Source\PSoC4/BLE_1_eventHandler.c ****     if(((cyBle_eventHandlerFlag & CYBLE_CALLBACK) != 0u) && (gattErr == CYBLE_GATT_ERR_NONE))
 344:.\Generated_Source\PSoC4/BLE_1_eventHandler.c ****     {
 345:.\Generated_Source\PSoC4/BLE_1_eventHandler.c ****         gattErr = CyBle_IpssWriteEventHandler(eventParam);
 346:.\Generated_Source\PSoC4/BLE_1_eventHandler.c ****     }
 347:.\Generated_Source\PSoC4/BLE_1_eventHandler.c **** #endif /* CYBLE_IPS_SERVER */
 348:.\Generated_Source\PSoC4/BLE_1_eventHandler.c **** #ifdef CYBLE_LLS_SERVER
 349:.\Generated_Source\PSoC4/BLE_1_eventHandler.c ****     if(((cyBle_eventHandlerFlag & CYBLE_CALLBACK) != 0u) && (gattErr == CYBLE_GATT_ERR_NONE))
 350:.\Generated_Source\PSoC4/BLE_1_eventHandler.c ****     {
 351:.\Generated_Source\PSoC4/BLE_1_eventHandler.c ****         gattErr = CyBle_LlssWriteEventHandler(eventParam);
 352:.\Generated_Source\PSoC4/BLE_1_eventHandler.c ****     }
 353:.\Generated_Source\PSoC4/BLE_1_eventHandler.c **** #endif /* CYBLE_LLS_SERVER */
 354:.\Generated_Source\PSoC4/BLE_1_eventHandler.c **** #ifdef CYBLE_LNS_SERVER
 355:.\Generated_Source\PSoC4/BLE_1_eventHandler.c ****     if(((cyBle_eventHandlerFlag & CYBLE_CALLBACK) != 0u) && (gattErr == CYBLE_GATT_ERR_NONE))
 356:.\Generated_Source\PSoC4/BLE_1_eventHandler.c ****     {
 357:.\Generated_Source\PSoC4/BLE_1_eventHandler.c ****         gattErr = CyBle_LnssWriteEventHandler(eventParam);
 358:.\Generated_Source\PSoC4/BLE_1_eventHandler.c ****     }
 359:.\Generated_Source\PSoC4/BLE_1_eventHandler.c **** #endif /* CYBLE_LNS_SERVER */
 360:.\Generated_Source\PSoC4/BLE_1_eventHandler.c **** #ifdef CYBLE_PASS_SERVER
 361:.\Generated_Source\PSoC4/BLE_1_eventHandler.c ****     if(((cyBle_eventHandlerFlag & CYBLE_CALLBACK) != 0u) && (gattErr == CYBLE_GATT_ERR_NONE))
 362:.\Generated_Source\PSoC4/BLE_1_eventHandler.c ****     {
 363:.\Generated_Source\PSoC4/BLE_1_eventHandler.c ****         gattErr = CyBle_PasssWriteEventHandler(eventParam);
 364:.\Generated_Source\PSoC4/BLE_1_eventHandler.c ****     }
 365:.\Generated_Source\PSoC4/BLE_1_eventHandler.c **** #endif /* CYBLE_PASS_SERVER */
 366:.\Generated_Source\PSoC4/BLE_1_eventHandler.c **** #ifdef CYBLE_RSCS_SERVER
 367:.\Generated_Source\PSoC4/BLE_1_eventHandler.c ****     if(((cyBle_eventHandlerFlag & CYBLE_CALLBACK) != 0u) && (gattErr == CYBLE_GATT_ERR_NONE))
 368:.\Generated_Source\PSoC4/BLE_1_eventHandler.c ****     {
 369:.\Generated_Source\PSoC4/BLE_1_eventHandler.c ****         gattErr = CyBle_RscssWriteEventHandler(eventParam);
 370:.\Generated_Source\PSoC4/BLE_1_eventHandler.c ****     }
 371:.\Generated_Source\PSoC4/BLE_1_eventHandler.c **** #endif /* CYBLE_RSCS_SERVER */
 372:.\Generated_Source\PSoC4/BLE_1_eventHandler.c **** #ifdef CYBLE_SCPS_SERVER
 373:.\Generated_Source\PSoC4/BLE_1_eventHandler.c ****     if(((cyBle_eventHandlerFlag & CYBLE_CALLBACK) != 0u) && (gattErr == CYBLE_GATT_ERR_NONE))
 374:.\Generated_Source\PSoC4/BLE_1_eventHandler.c ****     {
 375:.\Generated_Source\PSoC4/BLE_1_eventHandler.c ****         gattErr = CyBle_ScpssWriteEventHandler(eventParam);
 376:.\Generated_Source\PSoC4/BLE_1_eventHandler.c ****     }
 377:.\Generated_Source\PSoC4/BLE_1_eventHandler.c **** #endif /* CYBLE_SCPS_SERVER */
 378:.\Generated_Source\PSoC4/BLE_1_eventHandler.c **** #ifdef CYBLE_TPS_SERVER
 379:.\Generated_Source\PSoC4/BLE_1_eventHandler.c ****     if(((cyBle_eventHandlerFlag & CYBLE_CALLBACK) != 0u) && (gattErr == CYBLE_GATT_ERR_NONE))
 380:.\Generated_Source\PSoC4/BLE_1_eventHandler.c ****     {
 381:.\Generated_Source\PSoC4/BLE_1_eventHandler.c ****         gattErr = CyBle_TpssWriteEventHandler(eventParam);
 382:.\Generated_Source\PSoC4/BLE_1_eventHandler.c ****     }
 383:.\Generated_Source\PSoC4/BLE_1_eventHandler.c **** #endif /* CYBLE_TPS_SERVER */
 384:.\Generated_Source\PSoC4/BLE_1_eventHandler.c **** #ifdef CYBLE_UDS_SERVER
 385:.\Generated_Source\PSoC4/BLE_1_eventHandler.c ****     if(((cyBle_eventHandlerFlag & CYBLE_CALLBACK) != 0u) && (gattErr == CYBLE_GATT_ERR_NONE))
 386:.\Generated_Source\PSoC4/BLE_1_eventHandler.c ****     {
 387:.\Generated_Source\PSoC4/BLE_1_eventHandler.c ****         gattErr = CyBle_UdssWriteEventHandler(eventParam);
 388:.\Generated_Source\PSoC4/BLE_1_eventHandler.c ****     }
 389:.\Generated_Source\PSoC4/BLE_1_eventHandler.c **** #endif /* CYBLE_UDS_SERVER */
 390:.\Generated_Source\PSoC4/BLE_1_eventHandler.c **** #ifdef CYBLE_WPTS_SERVER
 391:.\Generated_Source\PSoC4/BLE_1_eventHandler.c ****     if(((cyBle_eventHandlerFlag & CYBLE_CALLBACK) != 0u) && (gattErr == CYBLE_GATT_ERR_NONE))
 392:.\Generated_Source\PSoC4/BLE_1_eventHandler.c ****     {
 393:.\Generated_Source\PSoC4/BLE_1_eventHandler.c ****         gattErr = CyBle_WptssWriteEventHandler(eventParam);
 394:.\Generated_Source\PSoC4/BLE_1_eventHandler.c ****     }
 395:.\Generated_Source\PSoC4/BLE_1_eventHandler.c **** #endif /* CYBLE_WPTS_SERVER */
 396:.\Generated_Source\PSoC4/BLE_1_eventHandler.c **** #ifdef CYBLE_WSS_SERVER
 397:.\Generated_Source\PSoC4/BLE_1_eventHandler.c ****     if(((cyBle_eventHandlerFlag & CYBLE_CALLBACK) != 0u) && (gattErr == CYBLE_GATT_ERR_NONE))
ARM GAS  C:\Users\Ecapable\AppData\Local\Temp\ccmAuCaF.s 			page 9


 398:.\Generated_Source\PSoC4/BLE_1_eventHandler.c ****     {
 399:.\Generated_Source\PSoC4/BLE_1_eventHandler.c ****         gattErr = CyBle_WsssWriteEventHandler(eventParam);
 400:.\Generated_Source\PSoC4/BLE_1_eventHandler.c ****     }
 401:.\Generated_Source\PSoC4/BLE_1_eventHandler.c **** #endif /* CYBLE_WSS_SERVER */
 402:.\Generated_Source\PSoC4/BLE_1_eventHandler.c **** 
 403:.\Generated_Source\PSoC4/BLE_1_eventHandler.c ****     /* Send response when event was handled by service */
 404:.\Generated_Source\PSoC4/BLE_1_eventHandler.c ****     if((cyBle_eventHandlerFlag & CYBLE_CALLBACK) == 0u)
  60              		.loc 1 404 0
  61 0018 144B     		ldr	r3, .L4
  62 001a 1B78     		ldrb	r3, [r3]
  63 001c DBB2     		uxtb	r3, r3
  64 001e 1A1C     		mov	r2, r3
  65 0020 0123     		mov	r3, #1
  66 0022 1340     		and	r3, r2
  67 0024 1FD1     		bne	.L1
 405:.\Generated_Source\PSoC4/BLE_1_eventHandler.c ****     {
 406:.\Generated_Source\PSoC4/BLE_1_eventHandler.c ****         if(gattErr != CYBLE_GATT_ERR_NONE)
  68              		.loc 1 406 0
  69 0026 0F23     		mov	r3, #15
  70 0028 FB18     		add	r3, r7, r3
  71 002a 1B78     		ldrb	r3, [r3]
  72 002c 002B     		cmp	r3, #0
  73 002e 16D0     		beq	.L3
  74              	.LBB2:
 407:.\Generated_Source\PSoC4/BLE_1_eventHandler.c ****         {
 408:.\Generated_Source\PSoC4/BLE_1_eventHandler.c ****             CYBLE_GATTS_ERR_PARAM_T err_param;
 409:.\Generated_Source\PSoC4/BLE_1_eventHandler.c ****             
 410:.\Generated_Source\PSoC4/BLE_1_eventHandler.c ****             err_param.opcode = (uint8) CYBLE_GATT_WRITE_REQ;
  75              		.loc 1 410 0
  76 0030 0823     		mov	r3, #8
  77 0032 FB18     		add	r3, r7, r3
  78 0034 1222     		mov	r2, #18
  79 0036 9A70     		strb	r2, [r3, #2]
 411:.\Generated_Source\PSoC4/BLE_1_eventHandler.c ****             err_param.attrHandle = eventParam->handleValPair.attrHandle;
  80              		.loc 1 411 0
  81 0038 7B68     		ldr	r3, [r7, #4]
  82 003a 9A89     		ldrh	r2, [r3, #12]
  83 003c 0823     		mov	r3, #8
  84 003e FB18     		add	r3, r7, r3
  85 0040 1A80     		strh	r2, [r3]
 412:.\Generated_Source\PSoC4/BLE_1_eventHandler.c ****             err_param.errorCode = gattErr;
  86              		.loc 1 412 0
  87 0042 0823     		mov	r3, #8
  88 0044 FB18     		add	r3, r7, r3
  89 0046 0F22     		mov	r2, #15
  90 0048 BA18     		add	r2, r7, r2
  91 004a 1278     		ldrb	r2, [r2]
  92 004c DA70     		strb	r2, [r3, #3]
 413:.\Generated_Source\PSoC4/BLE_1_eventHandler.c **** 
 414:.\Generated_Source\PSoC4/BLE_1_eventHandler.c ****             /* Send Error Response */
 415:.\Generated_Source\PSoC4/BLE_1_eventHandler.c ****             (void)CyBle_GattsErrorRsp(eventParam->connHandle, &err_param);
  93              		.loc 1 415 0
  94 004e 7B68     		ldr	r3, [r7, #4]
  95 0050 0822     		mov	r2, #8
  96 0052 BA18     		add	r2, r7, r2
  97 0054 1868     		ldr	r0, [r3]
  98 0056 111C     		mov	r1, r2
ARM GAS  C:\Users\Ecapable\AppData\Local\Temp\ccmAuCaF.s 			page 10


  99 0058 FFF7FEFF 		bl	CyBle_GattsErrorRsp
 100              	.LBE2:
 101 005c 03E0     		b	.L1
 102              	.L3:
 416:.\Generated_Source\PSoC4/BLE_1_eventHandler.c ****         }
 417:.\Generated_Source\PSoC4/BLE_1_eventHandler.c ****         else
 418:.\Generated_Source\PSoC4/BLE_1_eventHandler.c ****         {
 419:.\Generated_Source\PSoC4/BLE_1_eventHandler.c ****             (void)CyBle_GattsWriteRsp(eventParam->connHandle);
 103              		.loc 1 419 0
 104 005e 7B68     		ldr	r3, [r7, #4]
 105 0060 1868     		ldr	r0, [r3]
 106 0062 FFF7FEFF 		bl	CyBle_GattsWriteRsp
 107              	.L1:
 420:.\Generated_Source\PSoC4/BLE_1_eventHandler.c ****         }
 421:.\Generated_Source\PSoC4/BLE_1_eventHandler.c ****     }
 422:.\Generated_Source\PSoC4/BLE_1_eventHandler.c **** }
 108              		.loc 1 422 0
 109 0066 BD46     		mov	sp, r7
 110 0068 05B0     		add	sp, sp, #20
 111              		@ sp needed
 112 006a 90BD     		pop	{r4, r7, pc}
 113              	.L5:
 114              		.align	2
 115              	.L4:
 116 006c 00000000 		.word	cyBle_eventHandlerFlag
 117              		.cfi_endproc
 118              	.LFE2:
 119              		.size	CyBle_WriteReqHandler, .-CyBle_WriteReqHandler
 120              		.section	.text.CyBle_ValueConfirmation,"ax",%progbits
 121              		.align	2
 122              		.code	16
 123              		.thumb_func
 124              		.type	CyBle_ValueConfirmation, %function
 125              	CyBle_ValueConfirmation:
 126              	.LFB3:
 423:.\Generated_Source\PSoC4/BLE_1_eventHandler.c **** 
 424:.\Generated_Source\PSoC4/BLE_1_eventHandler.c **** 
 425:.\Generated_Source\PSoC4/BLE_1_eventHandler.c **** /****************************************************************************** 
 426:.\Generated_Source\PSoC4/BLE_1_eventHandler.c **** * Function Name: CyBle_ValueConfirmation
 427:.\Generated_Source\PSoC4/BLE_1_eventHandler.c **** ***************************************************************************//**
 428:.\Generated_Source\PSoC4/BLE_1_eventHandler.c **** * 
 429:.\Generated_Source\PSoC4/BLE_1_eventHandler.c **** *  Handles the Value Confirmation request event from the BLE stack.
 430:.\Generated_Source\PSoC4/BLE_1_eventHandler.c **** * 
 431:.\Generated_Source\PSoC4/BLE_1_eventHandler.c **** *  \param eventParam: Pointer to a structure of type 'CYBLE_CONN_HANDLE_T'
 432:.\Generated_Source\PSoC4/BLE_1_eventHandler.c **** * 
 433:.\Generated_Source\PSoC4/BLE_1_eventHandler.c **** * \return
 434:.\Generated_Source\PSoC4/BLE_1_eventHandler.c **** *  None
 435:.\Generated_Source\PSoC4/BLE_1_eventHandler.c **** * 
 436:.\Generated_Source\PSoC4/BLE_1_eventHandler.c **** ******************************************************************************/
 437:.\Generated_Source\PSoC4/BLE_1_eventHandler.c **** static void CyBle_ValueConfirmation(const CYBLE_CONN_HANDLE_T *eventParam)
 438:.\Generated_Source\PSoC4/BLE_1_eventHandler.c **** {
 127              		.loc 1 438 0
 128              		.cfi_startproc
 129 0000 80B5     		push	{r7, lr}
 130              		.cfi_def_cfa_offset 8
 131              		.cfi_offset 7, -8
 132              		.cfi_offset 14, -4
ARM GAS  C:\Users\Ecapable\AppData\Local\Temp\ccmAuCaF.s 			page 11


 133 0002 82B0     		sub	sp, sp, #8
 134              		.cfi_def_cfa_offset 16
 135 0004 00AF     		add	r7, sp, #0
 136              		.cfi_def_cfa_register 7
 137 0006 7860     		str	r0, [r7, #4]
 439:.\Generated_Source\PSoC4/BLE_1_eventHandler.c ****     if(eventParam != NULL)
 440:.\Generated_Source\PSoC4/BLE_1_eventHandler.c ****     {
 441:.\Generated_Source\PSoC4/BLE_1_eventHandler.c ****     #ifdef CYBLE_BCS_SERVER
 442:.\Generated_Source\PSoC4/BLE_1_eventHandler.c ****         CyBle_BcssConfirmationEventHandler(eventParam);
 443:.\Generated_Source\PSoC4/BLE_1_eventHandler.c ****     #endif /* CYBLE_BCS_SERVER */
 444:.\Generated_Source\PSoC4/BLE_1_eventHandler.c ****     #ifdef CYBLE_BLS_SERVER
 445:.\Generated_Source\PSoC4/BLE_1_eventHandler.c ****         if((cyBle_eventHandlerFlag & CYBLE_CALLBACK) != 0u)
 446:.\Generated_Source\PSoC4/BLE_1_eventHandler.c ****         {
 447:.\Generated_Source\PSoC4/BLE_1_eventHandler.c ****             CyBle_BlssConfirmationEventHandler(eventParam);
 448:.\Generated_Source\PSoC4/BLE_1_eventHandler.c ****         }
 449:.\Generated_Source\PSoC4/BLE_1_eventHandler.c ****     #endif /* CYBLE_BLS_SERVER */
 450:.\Generated_Source\PSoC4/BLE_1_eventHandler.c ****     
 451:.\Generated_Source\PSoC4/BLE_1_eventHandler.c ****     #ifdef CYBLE_CGMS_SERVER
 452:.\Generated_Source\PSoC4/BLE_1_eventHandler.c ****         if((cyBle_eventHandlerFlag & CYBLE_CALLBACK) != 0u)
 453:.\Generated_Source\PSoC4/BLE_1_eventHandler.c ****         {
 454:.\Generated_Source\PSoC4/BLE_1_eventHandler.c ****             CyBle_CgmssConfirmationEventHandler(eventParam);
 455:.\Generated_Source\PSoC4/BLE_1_eventHandler.c ****         }
 456:.\Generated_Source\PSoC4/BLE_1_eventHandler.c ****     #endif /* CYBLE_CGMS_SERVER */
 457:.\Generated_Source\PSoC4/BLE_1_eventHandler.c ****     
 458:.\Generated_Source\PSoC4/BLE_1_eventHandler.c ****     #ifdef CYBLE_CPS_SERVER
 459:.\Generated_Source\PSoC4/BLE_1_eventHandler.c ****         if((cyBle_eventHandlerFlag & CYBLE_CALLBACK) != 0u)
 460:.\Generated_Source\PSoC4/BLE_1_eventHandler.c ****         {
 461:.\Generated_Source\PSoC4/BLE_1_eventHandler.c ****             CyBle_CpssConfirmationEventHandler(eventParam);
 462:.\Generated_Source\PSoC4/BLE_1_eventHandler.c ****         }
 463:.\Generated_Source\PSoC4/BLE_1_eventHandler.c ****     #endif /* CYBLE_CPS_SERVER */
 464:.\Generated_Source\PSoC4/BLE_1_eventHandler.c ****     
 465:.\Generated_Source\PSoC4/BLE_1_eventHandler.c ****     #ifdef CYBLE_CSCS_SERVER
 466:.\Generated_Source\PSoC4/BLE_1_eventHandler.c ****         if((cyBle_eventHandlerFlag & CYBLE_CALLBACK) != 0u)
 467:.\Generated_Source\PSoC4/BLE_1_eventHandler.c ****         {
 468:.\Generated_Source\PSoC4/BLE_1_eventHandler.c ****             CyBle_CscssConfirmationEventHandler(eventParam);
 469:.\Generated_Source\PSoC4/BLE_1_eventHandler.c ****         }
 470:.\Generated_Source\PSoC4/BLE_1_eventHandler.c ****     #endif /* CYBLE_CSCS_SERVER */
 471:.\Generated_Source\PSoC4/BLE_1_eventHandler.c ****     
 472:.\Generated_Source\PSoC4/BLE_1_eventHandler.c ****     #ifdef CYBLE_ESS_SERVER
 473:.\Generated_Source\PSoC4/BLE_1_eventHandler.c ****         if((cyBle_eventHandlerFlag & CYBLE_CALLBACK) != 0u)
 474:.\Generated_Source\PSoC4/BLE_1_eventHandler.c ****         {
 475:.\Generated_Source\PSoC4/BLE_1_eventHandler.c ****             CyBle_EsssConfirmationEventHandler(eventParam);
 476:.\Generated_Source\PSoC4/BLE_1_eventHandler.c ****         }
 477:.\Generated_Source\PSoC4/BLE_1_eventHandler.c ****     #endif /* CYBLE_ESS_SERVER */
 478:.\Generated_Source\PSoC4/BLE_1_eventHandler.c ****     
 479:.\Generated_Source\PSoC4/BLE_1_eventHandler.c ****     #ifdef CYBLE_GLS_SERVER
 480:.\Generated_Source\PSoC4/BLE_1_eventHandler.c ****         if((cyBle_eventHandlerFlag & CYBLE_CALLBACK) != 0u)
 481:.\Generated_Source\PSoC4/BLE_1_eventHandler.c ****         {
 482:.\Generated_Source\PSoC4/BLE_1_eventHandler.c ****             CyBle_GlssConfirmationEventHandler(eventParam);
 483:.\Generated_Source\PSoC4/BLE_1_eventHandler.c ****         }
 484:.\Generated_Source\PSoC4/BLE_1_eventHandler.c ****     #endif /* CYBLE_GLS_SERVER */
 485:.\Generated_Source\PSoC4/BLE_1_eventHandler.c ****     
 486:.\Generated_Source\PSoC4/BLE_1_eventHandler.c ****     #ifdef CYBLE_HTS_SERVER
 487:.\Generated_Source\PSoC4/BLE_1_eventHandler.c ****         if((cyBle_eventHandlerFlag & CYBLE_CALLBACK) != 0u)
 488:.\Generated_Source\PSoC4/BLE_1_eventHandler.c ****         {
 489:.\Generated_Source\PSoC4/BLE_1_eventHandler.c ****             CyBle_HtssConfirmationEventHandler(eventParam);
 490:.\Generated_Source\PSoC4/BLE_1_eventHandler.c ****         }
ARM GAS  C:\Users\Ecapable\AppData\Local\Temp\ccmAuCaF.s 			page 12


 491:.\Generated_Source\PSoC4/BLE_1_eventHandler.c ****     #endif /* CYBLE_HTS_SERVER */
 492:.\Generated_Source\PSoC4/BLE_1_eventHandler.c **** 
 493:.\Generated_Source\PSoC4/BLE_1_eventHandler.c ****     #ifdef CYBLE_LNS_SERVER
 494:.\Generated_Source\PSoC4/BLE_1_eventHandler.c ****         if((cyBle_eventHandlerFlag & CYBLE_CALLBACK) != 0u)
 495:.\Generated_Source\PSoC4/BLE_1_eventHandler.c ****         {
 496:.\Generated_Source\PSoC4/BLE_1_eventHandler.c ****             CyBle_LnssConfirmationEventHandler(eventParam);
 497:.\Generated_Source\PSoC4/BLE_1_eventHandler.c ****         }
 498:.\Generated_Source\PSoC4/BLE_1_eventHandler.c ****     #endif /* CYBLE_LNS_SERVER */
 499:.\Generated_Source\PSoC4/BLE_1_eventHandler.c ****     
 500:.\Generated_Source\PSoC4/BLE_1_eventHandler.c ****     #ifdef CYBLE_RSCS_SERVER
 501:.\Generated_Source\PSoC4/BLE_1_eventHandler.c ****         if((cyBle_eventHandlerFlag & CYBLE_CALLBACK) != 0u)
 502:.\Generated_Source\PSoC4/BLE_1_eventHandler.c ****         {
 503:.\Generated_Source\PSoC4/BLE_1_eventHandler.c ****             CyBle_RscssConfirmationEventHandler(eventParam);
 504:.\Generated_Source\PSoC4/BLE_1_eventHandler.c ****         }
 505:.\Generated_Source\PSoC4/BLE_1_eventHandler.c ****     #endif /* CYBLE_RSCS_SERVER */
 506:.\Generated_Source\PSoC4/BLE_1_eventHandler.c ****     
 507:.\Generated_Source\PSoC4/BLE_1_eventHandler.c ****     #ifdef CYBLE_UDS_SERVER
 508:.\Generated_Source\PSoC4/BLE_1_eventHandler.c ****         if((cyBle_eventHandlerFlag & CYBLE_CALLBACK) != 0u)
 509:.\Generated_Source\PSoC4/BLE_1_eventHandler.c ****         {
 510:.\Generated_Source\PSoC4/BLE_1_eventHandler.c ****             CyBle_UdssConfirmationEventHandler(eventParam);
 511:.\Generated_Source\PSoC4/BLE_1_eventHandler.c ****         }
 512:.\Generated_Source\PSoC4/BLE_1_eventHandler.c ****     #endif /* CYBLE_UDS_SERVER */
 513:.\Generated_Source\PSoC4/BLE_1_eventHandler.c ****     
 514:.\Generated_Source\PSoC4/BLE_1_eventHandler.c ****     #ifdef CYBLE_WPTS_SERVER
 515:.\Generated_Source\PSoC4/BLE_1_eventHandler.c ****         if((cyBle_eventHandlerFlag & CYBLE_CALLBACK) != 0u)
 516:.\Generated_Source\PSoC4/BLE_1_eventHandler.c ****         {
 517:.\Generated_Source\PSoC4/BLE_1_eventHandler.c ****             CyBle_WptssConfirmationEventHandler(eventParam);
 518:.\Generated_Source\PSoC4/BLE_1_eventHandler.c ****         }
 519:.\Generated_Source\PSoC4/BLE_1_eventHandler.c ****     #endif /* CYBLE_WPTS_SERVER */
 520:.\Generated_Source\PSoC4/BLE_1_eventHandler.c ****     
 521:.\Generated_Source\PSoC4/BLE_1_eventHandler.c ****     #ifdef CYBLE_WSS_SERVER
 522:.\Generated_Source\PSoC4/BLE_1_eventHandler.c ****         if((cyBle_eventHandlerFlag & CYBLE_CALLBACK) != 0u)
 523:.\Generated_Source\PSoC4/BLE_1_eventHandler.c ****         {
 524:.\Generated_Source\PSoC4/BLE_1_eventHandler.c ****             CyBle_WsssConfirmationEventHandler(eventParam);
 525:.\Generated_Source\PSoC4/BLE_1_eventHandler.c ****         }
 526:.\Generated_Source\PSoC4/BLE_1_eventHandler.c ****     #endif /* CYBLE_WSS_SERVER */
 527:.\Generated_Source\PSoC4/BLE_1_eventHandler.c ****     }
 528:.\Generated_Source\PSoC4/BLE_1_eventHandler.c **** }
 138              		.loc 1 528 0
 139 0008 BD46     		mov	sp, r7
 140 000a 02B0     		add	sp, sp, #8
 141              		@ sp needed
 142 000c 80BD     		pop	{r7, pc}
 143              		.cfi_endproc
 144              	.LFE3:
 145              		.size	CyBle_ValueConfirmation, .-CyBle_ValueConfirmation
 146              		.section	.text.CyBle_GattDisconnectEventHandler,"ax",%progbits
 147              		.align	2
 148              		.code	16
 149              		.thumb_func
 150              		.type	CyBle_GattDisconnectEventHandler, %function
 151              	CyBle_GattDisconnectEventHandler:
 152              	.LFB4:
 529:.\Generated_Source\PSoC4/BLE_1_eventHandler.c **** 
 530:.\Generated_Source\PSoC4/BLE_1_eventHandler.c **** #endif /* CYBLE_GATT_ROLE_SERVER */
 531:.\Generated_Source\PSoC4/BLE_1_eventHandler.c **** 
 532:.\Generated_Source\PSoC4/BLE_1_eventHandler.c **** 
ARM GAS  C:\Users\Ecapable\AppData\Local\Temp\ccmAuCaF.s 			page 13


 533:.\Generated_Source\PSoC4/BLE_1_eventHandler.c **** #if (CYBLE_GATT_ROLE_CLIENT)
 534:.\Generated_Source\PSoC4/BLE_1_eventHandler.c **** 
 535:.\Generated_Source\PSoC4/BLE_1_eventHandler.c **** /****************************************************************************** 
 536:.\Generated_Source\PSoC4/BLE_1_eventHandler.c **** * Function Name: CyBle_GattcWriteResponseEventHandler
 537:.\Generated_Source\PSoC4/BLE_1_eventHandler.c **** ***************************************************************************//**
 538:.\Generated_Source\PSoC4/BLE_1_eventHandler.c **** * 
 539:.\Generated_Source\PSoC4/BLE_1_eventHandler.c **** *  Handles the Write response event from the BLE stack.
 540:.\Generated_Source\PSoC4/BLE_1_eventHandler.c **** * 
 541:.\Generated_Source\PSoC4/BLE_1_eventHandler.c **** *  \param eventParam: Pointer to a structure of type 'CYBLE_CONN_HANDLE_T'
 542:.\Generated_Source\PSoC4/BLE_1_eventHandler.c **** * 
 543:.\Generated_Source\PSoC4/BLE_1_eventHandler.c **** * \return
 544:.\Generated_Source\PSoC4/BLE_1_eventHandler.c **** *  None
 545:.\Generated_Source\PSoC4/BLE_1_eventHandler.c **** * 
 546:.\Generated_Source\PSoC4/BLE_1_eventHandler.c **** ******************************************************************************/
 547:.\Generated_Source\PSoC4/BLE_1_eventHandler.c **** static void CyBle_GattcWriteResponseEventHandler(const CYBLE_CONN_HANDLE_T *eventParam)
 548:.\Generated_Source\PSoC4/BLE_1_eventHandler.c **** {
 549:.\Generated_Source\PSoC4/BLE_1_eventHandler.c **** #ifdef CYBLE_ANCS_CLIENT
 550:.\Generated_Source\PSoC4/BLE_1_eventHandler.c ****     CyBle_AncscWriteResponseEventHandler(eventParam);
 551:.\Generated_Source\PSoC4/BLE_1_eventHandler.c **** #endif /* CYBLE_ANCS_CLIENT */
 552:.\Generated_Source\PSoC4/BLE_1_eventHandler.c **** 
 553:.\Generated_Source\PSoC4/BLE_1_eventHandler.c **** #ifdef CYBLE_ANS_CLIENT
 554:.\Generated_Source\PSoC4/BLE_1_eventHandler.c ****     if((cyBle_eventHandlerFlag & CYBLE_CALLBACK) != 0u)
 555:.\Generated_Source\PSoC4/BLE_1_eventHandler.c ****     {
 556:.\Generated_Source\PSoC4/BLE_1_eventHandler.c ****         CyBle_AnscWriteResponseEventHandler(eventParam);
 557:.\Generated_Source\PSoC4/BLE_1_eventHandler.c ****     }
 558:.\Generated_Source\PSoC4/BLE_1_eventHandler.c **** #endif /* CYBLE_ANS_CLIENT */
 559:.\Generated_Source\PSoC4/BLE_1_eventHandler.c **** 
 560:.\Generated_Source\PSoC4/BLE_1_eventHandler.c **** #ifdef CYBLE_BAS_CLIENT
 561:.\Generated_Source\PSoC4/BLE_1_eventHandler.c ****     if((cyBle_eventHandlerFlag & CYBLE_CALLBACK) != 0u)
 562:.\Generated_Source\PSoC4/BLE_1_eventHandler.c ****     {
 563:.\Generated_Source\PSoC4/BLE_1_eventHandler.c ****         CyBle_BascWriteResponseEventHandler(eventParam);
 564:.\Generated_Source\PSoC4/BLE_1_eventHandler.c ****     }
 565:.\Generated_Source\PSoC4/BLE_1_eventHandler.c **** #endif /* CYBLE_BAS_CLIENT */
 566:.\Generated_Source\PSoC4/BLE_1_eventHandler.c **** 
 567:.\Generated_Source\PSoC4/BLE_1_eventHandler.c **** #ifdef CYBLE_BCS_CLIENT
 568:.\Generated_Source\PSoC4/BLE_1_eventHandler.c ****     if((cyBle_eventHandlerFlag & CYBLE_CALLBACK) != 0u)
 569:.\Generated_Source\PSoC4/BLE_1_eventHandler.c ****     {
 570:.\Generated_Source\PSoC4/BLE_1_eventHandler.c ****         CyBle_BcscWriteResponseEventHandler(eventParam);
 571:.\Generated_Source\PSoC4/BLE_1_eventHandler.c ****     }
 572:.\Generated_Source\PSoC4/BLE_1_eventHandler.c **** #endif /* CYBLE_BCS_CLIENT */
 573:.\Generated_Source\PSoC4/BLE_1_eventHandler.c **** 
 574:.\Generated_Source\PSoC4/BLE_1_eventHandler.c **** #ifdef CYBLE_BLS_CLIENT
 575:.\Generated_Source\PSoC4/BLE_1_eventHandler.c ****     if((cyBle_eventHandlerFlag & CYBLE_CALLBACK) != 0u)
 576:.\Generated_Source\PSoC4/BLE_1_eventHandler.c ****     {
 577:.\Generated_Source\PSoC4/BLE_1_eventHandler.c ****         CyBle_BlscWriteResponseEventHandler(eventParam);
 578:.\Generated_Source\PSoC4/BLE_1_eventHandler.c ****     }
 579:.\Generated_Source\PSoC4/BLE_1_eventHandler.c **** #endif /* CYBLE_BLS_CLIENT */
 580:.\Generated_Source\PSoC4/BLE_1_eventHandler.c **** 
 581:.\Generated_Source\PSoC4/BLE_1_eventHandler.c **** #ifdef CYBLE_BMS_CLIENT
 582:.\Generated_Source\PSoC4/BLE_1_eventHandler.c ****     if((cyBle_eventHandlerFlag & CYBLE_CALLBACK) != 0u)
 583:.\Generated_Source\PSoC4/BLE_1_eventHandler.c ****     {
 584:.\Generated_Source\PSoC4/BLE_1_eventHandler.c ****         CyBle_BmscWriteResponseEventHandler(eventParam);
 585:.\Generated_Source\PSoC4/BLE_1_eventHandler.c ****     }
 586:.\Generated_Source\PSoC4/BLE_1_eventHandler.c **** #endif /* CYBLE_BMS_CLIENT */
 587:.\Generated_Source\PSoC4/BLE_1_eventHandler.c **** 
 588:.\Generated_Source\PSoC4/BLE_1_eventHandler.c **** #ifdef CYBLE_CGMS_CLIENT
 589:.\Generated_Source\PSoC4/BLE_1_eventHandler.c ****     if((cyBle_eventHandlerFlag & CYBLE_CALLBACK) != 0u)
ARM GAS  C:\Users\Ecapable\AppData\Local\Temp\ccmAuCaF.s 			page 14


 590:.\Generated_Source\PSoC4/BLE_1_eventHandler.c ****     {
 591:.\Generated_Source\PSoC4/BLE_1_eventHandler.c ****         CyBle_CgmscWriteResponseEventHandler(eventParam);
 592:.\Generated_Source\PSoC4/BLE_1_eventHandler.c ****     }
 593:.\Generated_Source\PSoC4/BLE_1_eventHandler.c **** #endif /* CYBLE_CGMS_CLIENT */
 594:.\Generated_Source\PSoC4/BLE_1_eventHandler.c **** 
 595:.\Generated_Source\PSoC4/BLE_1_eventHandler.c **** #ifdef CYBLE_CPS_CLIENT
 596:.\Generated_Source\PSoC4/BLE_1_eventHandler.c ****     if((cyBle_eventHandlerFlag & CYBLE_CALLBACK) != 0u)
 597:.\Generated_Source\PSoC4/BLE_1_eventHandler.c ****     {
 598:.\Generated_Source\PSoC4/BLE_1_eventHandler.c ****         CyBle_CpscWriteResponseEventHandler(eventParam);
 599:.\Generated_Source\PSoC4/BLE_1_eventHandler.c ****     }
 600:.\Generated_Source\PSoC4/BLE_1_eventHandler.c **** #endif /* CYBLE_CPS_CLIENT */
 601:.\Generated_Source\PSoC4/BLE_1_eventHandler.c **** 
 602:.\Generated_Source\PSoC4/BLE_1_eventHandler.c **** #ifdef CYBLE_CSCS_CLIENT
 603:.\Generated_Source\PSoC4/BLE_1_eventHandler.c ****     if((cyBle_eventHandlerFlag & CYBLE_CALLBACK) != 0u)
 604:.\Generated_Source\PSoC4/BLE_1_eventHandler.c ****     {
 605:.\Generated_Source\PSoC4/BLE_1_eventHandler.c ****         CyBle_CscscWriteResponseEventHandler(eventParam);
 606:.\Generated_Source\PSoC4/BLE_1_eventHandler.c ****     }
 607:.\Generated_Source\PSoC4/BLE_1_eventHandler.c **** #endif /* CYBLE_CSCS_CLIENT */
 608:.\Generated_Source\PSoC4/BLE_1_eventHandler.c **** 
 609:.\Generated_Source\PSoC4/BLE_1_eventHandler.c **** #ifdef CYBLE_CTS_CLIENT
 610:.\Generated_Source\PSoC4/BLE_1_eventHandler.c ****     if((cyBle_eventHandlerFlag & CYBLE_CALLBACK) != 0u)
 611:.\Generated_Source\PSoC4/BLE_1_eventHandler.c ****     {
 612:.\Generated_Source\PSoC4/BLE_1_eventHandler.c ****         CyBle_CtscWriteResponseEventHandler(eventParam);
 613:.\Generated_Source\PSoC4/BLE_1_eventHandler.c ****     }
 614:.\Generated_Source\PSoC4/BLE_1_eventHandler.c **** #endif /* CYBLE_CTS_CLIENT */
 615:.\Generated_Source\PSoC4/BLE_1_eventHandler.c **** 
 616:.\Generated_Source\PSoC4/BLE_1_eventHandler.c **** #ifdef CYBLE_ESS_CLIENT
 617:.\Generated_Source\PSoC4/BLE_1_eventHandler.c ****     if((cyBle_eventHandlerFlag & CYBLE_CALLBACK) != 0u)
 618:.\Generated_Source\PSoC4/BLE_1_eventHandler.c ****     {
 619:.\Generated_Source\PSoC4/BLE_1_eventHandler.c ****         CyBle_EsscWriteResponseEventHandler(eventParam);
 620:.\Generated_Source\PSoC4/BLE_1_eventHandler.c ****     }
 621:.\Generated_Source\PSoC4/BLE_1_eventHandler.c **** #endif /* CYBLE_ESS_CLIENT */
 622:.\Generated_Source\PSoC4/BLE_1_eventHandler.c **** 
 623:.\Generated_Source\PSoC4/BLE_1_eventHandler.c **** #ifdef CYBLE_GLS_CLIENT
 624:.\Generated_Source\PSoC4/BLE_1_eventHandler.c ****     if((cyBle_eventHandlerFlag & CYBLE_CALLBACK) != 0u)
 625:.\Generated_Source\PSoC4/BLE_1_eventHandler.c ****     {
 626:.\Generated_Source\PSoC4/BLE_1_eventHandler.c ****         CyBle_GlscWriteResponseEventHandler(eventParam);
 627:.\Generated_Source\PSoC4/BLE_1_eventHandler.c ****     }
 628:.\Generated_Source\PSoC4/BLE_1_eventHandler.c **** #endif /* CYBLE_GLS_CLIENT */
 629:.\Generated_Source\PSoC4/BLE_1_eventHandler.c **** 
 630:.\Generated_Source\PSoC4/BLE_1_eventHandler.c **** #ifdef CYBLE_HIDS_CLIENT
 631:.\Generated_Source\PSoC4/BLE_1_eventHandler.c ****     if((cyBle_eventHandlerFlag & CYBLE_CALLBACK) != 0u)
 632:.\Generated_Source\PSoC4/BLE_1_eventHandler.c ****     {
 633:.\Generated_Source\PSoC4/BLE_1_eventHandler.c ****         CyBle_HidscWriteResponseEventHandler(eventParam);
 634:.\Generated_Source\PSoC4/BLE_1_eventHandler.c ****     }
 635:.\Generated_Source\PSoC4/BLE_1_eventHandler.c **** #endif /* CYBLE_HIDS_CLIENT */
 636:.\Generated_Source\PSoC4/BLE_1_eventHandler.c **** 
 637:.\Generated_Source\PSoC4/BLE_1_eventHandler.c **** #ifdef CYBLE_HPS_CLIENT
 638:.\Generated_Source\PSoC4/BLE_1_eventHandler.c ****     if((cyBle_eventHandlerFlag & CYBLE_CALLBACK) != 0u)
 639:.\Generated_Source\PSoC4/BLE_1_eventHandler.c ****     {
 640:.\Generated_Source\PSoC4/BLE_1_eventHandler.c ****         CyBle_HpscWriteResponseEventHandler(eventParam);
 641:.\Generated_Source\PSoC4/BLE_1_eventHandler.c ****     }
 642:.\Generated_Source\PSoC4/BLE_1_eventHandler.c **** #endif /* CYBLE_HPS_CLIENT */
 643:.\Generated_Source\PSoC4/BLE_1_eventHandler.c **** 
 644:.\Generated_Source\PSoC4/BLE_1_eventHandler.c **** #ifdef CYBLE_HRS_CLIENT
 645:.\Generated_Source\PSoC4/BLE_1_eventHandler.c ****     if((cyBle_eventHandlerFlag & CYBLE_CALLBACK) != 0u)
 646:.\Generated_Source\PSoC4/BLE_1_eventHandler.c ****     {
ARM GAS  C:\Users\Ecapable\AppData\Local\Temp\ccmAuCaF.s 			page 15


 647:.\Generated_Source\PSoC4/BLE_1_eventHandler.c ****         CyBle_HrscWriteResponseEventHandler(eventParam);
 648:.\Generated_Source\PSoC4/BLE_1_eventHandler.c ****     }
 649:.\Generated_Source\PSoC4/BLE_1_eventHandler.c **** #endif /* CYBLE_HRS_CLIENT */
 650:.\Generated_Source\PSoC4/BLE_1_eventHandler.c **** 
 651:.\Generated_Source\PSoC4/BLE_1_eventHandler.c **** #ifdef CYBLE_HTS_CLIENT
 652:.\Generated_Source\PSoC4/BLE_1_eventHandler.c ****     if((cyBle_eventHandlerFlag & CYBLE_CALLBACK) != 0u)
 653:.\Generated_Source\PSoC4/BLE_1_eventHandler.c ****     {
 654:.\Generated_Source\PSoC4/BLE_1_eventHandler.c ****         CyBle_HtscWriteResponseEventHandler(eventParam);
 655:.\Generated_Source\PSoC4/BLE_1_eventHandler.c ****     }
 656:.\Generated_Source\PSoC4/BLE_1_eventHandler.c **** #endif /* CYBLE_HTS_CLIENT */
 657:.\Generated_Source\PSoC4/BLE_1_eventHandler.c **** 
 658:.\Generated_Source\PSoC4/BLE_1_eventHandler.c **** #ifdef CYBLE_IPS_CLIENT
 659:.\Generated_Source\PSoC4/BLE_1_eventHandler.c ****     if((cyBle_eventHandlerFlag & CYBLE_CALLBACK) != 0u)
 660:.\Generated_Source\PSoC4/BLE_1_eventHandler.c ****     {
 661:.\Generated_Source\PSoC4/BLE_1_eventHandler.c ****         CyBle_IpscWriteResponseEventHandler(eventParam);
 662:.\Generated_Source\PSoC4/BLE_1_eventHandler.c ****     }
 663:.\Generated_Source\PSoC4/BLE_1_eventHandler.c **** #endif /* CYBLE_IPS_CLIENT */
 664:.\Generated_Source\PSoC4/BLE_1_eventHandler.c **** 
 665:.\Generated_Source\PSoC4/BLE_1_eventHandler.c **** #ifdef CYBLE_LLS_CLIENT
 666:.\Generated_Source\PSoC4/BLE_1_eventHandler.c ****     if((cyBle_eventHandlerFlag & CYBLE_CALLBACK) != 0u)
 667:.\Generated_Source\PSoC4/BLE_1_eventHandler.c ****     {
 668:.\Generated_Source\PSoC4/BLE_1_eventHandler.c ****         CyBle_LlscWriteResponseEventHandler(eventParam);
 669:.\Generated_Source\PSoC4/BLE_1_eventHandler.c ****     }
 670:.\Generated_Source\PSoC4/BLE_1_eventHandler.c **** #endif /* CYBLE_LLS_CLIENT */
 671:.\Generated_Source\PSoC4/BLE_1_eventHandler.c **** 
 672:.\Generated_Source\PSoC4/BLE_1_eventHandler.c **** #ifdef CYBLE_LNS_CLIENT
 673:.\Generated_Source\PSoC4/BLE_1_eventHandler.c ****     if((cyBle_eventHandlerFlag & CYBLE_CALLBACK) != 0u)
 674:.\Generated_Source\PSoC4/BLE_1_eventHandler.c ****     {
 675:.\Generated_Source\PSoC4/BLE_1_eventHandler.c ****         CyBle_LnscWriteResponseEventHandler(eventParam);
 676:.\Generated_Source\PSoC4/BLE_1_eventHandler.c ****     }
 677:.\Generated_Source\PSoC4/BLE_1_eventHandler.c **** #endif /* CYBLE_LNS_CLIENT */
 678:.\Generated_Source\PSoC4/BLE_1_eventHandler.c **** 
 679:.\Generated_Source\PSoC4/BLE_1_eventHandler.c **** #ifdef CYBLE_PASS_CLIENT
 680:.\Generated_Source\PSoC4/BLE_1_eventHandler.c ****     if((cyBle_eventHandlerFlag & CYBLE_CALLBACK) != 0u)
 681:.\Generated_Source\PSoC4/BLE_1_eventHandler.c ****     {
 682:.\Generated_Source\PSoC4/BLE_1_eventHandler.c ****         CyBle_PasscWriteResponseEventHandler(eventParam);
 683:.\Generated_Source\PSoC4/BLE_1_eventHandler.c ****     }
 684:.\Generated_Source\PSoC4/BLE_1_eventHandler.c **** #endif /* CYBLE_PASS_CLIENT */
 685:.\Generated_Source\PSoC4/BLE_1_eventHandler.c **** 
 686:.\Generated_Source\PSoC4/BLE_1_eventHandler.c **** #ifdef CYBLE_RSCS_CLIENT
 687:.\Generated_Source\PSoC4/BLE_1_eventHandler.c ****     if((cyBle_eventHandlerFlag & CYBLE_CALLBACK) != 0u)
 688:.\Generated_Source\PSoC4/BLE_1_eventHandler.c ****     {
 689:.\Generated_Source\PSoC4/BLE_1_eventHandler.c ****         CyBle_RscscWriteResponseEventHandler(eventParam);
 690:.\Generated_Source\PSoC4/BLE_1_eventHandler.c ****     }
 691:.\Generated_Source\PSoC4/BLE_1_eventHandler.c **** #endif /* CYBLE_RSCS_CLIENT */
 692:.\Generated_Source\PSoC4/BLE_1_eventHandler.c **** 
 693:.\Generated_Source\PSoC4/BLE_1_eventHandler.c **** #ifdef CYBLE_SCPS_CLIENT
 694:.\Generated_Source\PSoC4/BLE_1_eventHandler.c ****     if((cyBle_eventHandlerFlag & CYBLE_CALLBACK) != 0u)
 695:.\Generated_Source\PSoC4/BLE_1_eventHandler.c ****     {
 696:.\Generated_Source\PSoC4/BLE_1_eventHandler.c ****         CyBle_ScpscWriteResponseEventHandler(eventParam);
 697:.\Generated_Source\PSoC4/BLE_1_eventHandler.c ****     }
 698:.\Generated_Source\PSoC4/BLE_1_eventHandler.c **** #endif /* CYBLE_SCPS_CLIENT */
 699:.\Generated_Source\PSoC4/BLE_1_eventHandler.c **** 
 700:.\Generated_Source\PSoC4/BLE_1_eventHandler.c **** #ifdef CYBLE_TPS_CLIENT
 701:.\Generated_Source\PSoC4/BLE_1_eventHandler.c ****     if((cyBle_eventHandlerFlag & CYBLE_CALLBACK) != 0u)
 702:.\Generated_Source\PSoC4/BLE_1_eventHandler.c ****     {
 703:.\Generated_Source\PSoC4/BLE_1_eventHandler.c ****         CyBle_TpscWriteResponseEventHandler(eventParam);
ARM GAS  C:\Users\Ecapable\AppData\Local\Temp\ccmAuCaF.s 			page 16


 704:.\Generated_Source\PSoC4/BLE_1_eventHandler.c ****     }
 705:.\Generated_Source\PSoC4/BLE_1_eventHandler.c **** #endif /* CYBLE_TPS_CLIENT */
 706:.\Generated_Source\PSoC4/BLE_1_eventHandler.c **** 
 707:.\Generated_Source\PSoC4/BLE_1_eventHandler.c **** #ifdef CYBLE_UDS_CLIENT
 708:.\Generated_Source\PSoC4/BLE_1_eventHandler.c ****     if((cyBle_eventHandlerFlag & CYBLE_CALLBACK) != 0u)
 709:.\Generated_Source\PSoC4/BLE_1_eventHandler.c ****     {
 710:.\Generated_Source\PSoC4/BLE_1_eventHandler.c ****         CyBle_UdscWriteResponseEventHandler(eventParam);
 711:.\Generated_Source\PSoC4/BLE_1_eventHandler.c ****     }
 712:.\Generated_Source\PSoC4/BLE_1_eventHandler.c **** #endif /* CYBLE_UDS_CLIENT */
 713:.\Generated_Source\PSoC4/BLE_1_eventHandler.c **** #ifdef CYBLE_WPTS_CLIENT
 714:.\Generated_Source\PSoC4/BLE_1_eventHandler.c ****     if((cyBle_eventHandlerFlag & CYBLE_CALLBACK) != 0u)
 715:.\Generated_Source\PSoC4/BLE_1_eventHandler.c ****     {
 716:.\Generated_Source\PSoC4/BLE_1_eventHandler.c ****         CyBle_WptscWriteResponseEventHandler(eventParam);
 717:.\Generated_Source\PSoC4/BLE_1_eventHandler.c ****     }
 718:.\Generated_Source\PSoC4/BLE_1_eventHandler.c **** #endif /* CYBLE_WPTS_CLIENT */
 719:.\Generated_Source\PSoC4/BLE_1_eventHandler.c **** #ifdef CYBLE_WSS_CLIENT
 720:.\Generated_Source\PSoC4/BLE_1_eventHandler.c ****     if((cyBle_eventHandlerFlag & CYBLE_CALLBACK) != 0u)
 721:.\Generated_Source\PSoC4/BLE_1_eventHandler.c ****     {
 722:.\Generated_Source\PSoC4/BLE_1_eventHandler.c ****         CyBle_WsscWriteResponseEventHandler(eventParam);
 723:.\Generated_Source\PSoC4/BLE_1_eventHandler.c ****     }
 724:.\Generated_Source\PSoC4/BLE_1_eventHandler.c **** #endif /* CYBLE_WSS_CLIENT */
 725:.\Generated_Source\PSoC4/BLE_1_eventHandler.c **** }
 726:.\Generated_Source\PSoC4/BLE_1_eventHandler.c **** 
 727:.\Generated_Source\PSoC4/BLE_1_eventHandler.c **** 
 728:.\Generated_Source\PSoC4/BLE_1_eventHandler.c **** /******************************************************************************    
 729:.\Generated_Source\PSoC4/BLE_1_eventHandler.c **** * Function Name: CyBle_NotificationEventHandler
 730:.\Generated_Source\PSoC4/BLE_1_eventHandler.c **** ***************************************************************************//**
 731:.\Generated_Source\PSoC4/BLE_1_eventHandler.c **** * 
 732:.\Generated_Source\PSoC4/BLE_1_eventHandler.c **** *  Handles the Notification event from BLE stack.
 733:.\Generated_Source\PSoC4/BLE_1_eventHandler.c **** * 
 734:.\Generated_Source\PSoC4/BLE_1_eventHandler.c **** *  \param eventParam: event parameter
 735:.\Generated_Source\PSoC4/BLE_1_eventHandler.c **** * 
 736:.\Generated_Source\PSoC4/BLE_1_eventHandler.c **** * \return
 737:.\Generated_Source\PSoC4/BLE_1_eventHandler.c **** *  None
 738:.\Generated_Source\PSoC4/BLE_1_eventHandler.c **** * 
 739:.\Generated_Source\PSoC4/BLE_1_eventHandler.c **** ******************************************************************************/
 740:.\Generated_Source\PSoC4/BLE_1_eventHandler.c **** static void CyBle_NotificationEventHandler(CYBLE_GATTC_HANDLE_VALUE_NTF_PARAM_T *eventParam)
 741:.\Generated_Source\PSoC4/BLE_1_eventHandler.c **** {
 742:.\Generated_Source\PSoC4/BLE_1_eventHandler.c **** #ifdef CYBLE_ANCS_CLIENT
 743:.\Generated_Source\PSoC4/BLE_1_eventHandler.c ****     CyBle_AncscNotificationEventHandler(eventParam);
 744:.\Generated_Source\PSoC4/BLE_1_eventHandler.c **** #endif /* CYBLE_ANCS_CLIENT */
 745:.\Generated_Source\PSoC4/BLE_1_eventHandler.c **** #ifdef CYBLE_ANS_CLIENT
 746:.\Generated_Source\PSoC4/BLE_1_eventHandler.c ****     if((cyBle_eventHandlerFlag & CYBLE_CALLBACK) != 0u)
 747:.\Generated_Source\PSoC4/BLE_1_eventHandler.c ****     {
 748:.\Generated_Source\PSoC4/BLE_1_eventHandler.c ****         CyBle_AnscNotificationEventHandler(eventParam);
 749:.\Generated_Source\PSoC4/BLE_1_eventHandler.c ****     }
 750:.\Generated_Source\PSoC4/BLE_1_eventHandler.c **** #endif /* CYBLE_ANS_CLIENT */
 751:.\Generated_Source\PSoC4/BLE_1_eventHandler.c **** #ifdef CYBLE_BAS_CLIENT
 752:.\Generated_Source\PSoC4/BLE_1_eventHandler.c ****     if((cyBle_eventHandlerFlag & CYBLE_CALLBACK) != 0u)
 753:.\Generated_Source\PSoC4/BLE_1_eventHandler.c ****     {
 754:.\Generated_Source\PSoC4/BLE_1_eventHandler.c ****         CyBle_BascNotificationEventHandler(eventParam);
 755:.\Generated_Source\PSoC4/BLE_1_eventHandler.c ****     }
 756:.\Generated_Source\PSoC4/BLE_1_eventHandler.c **** #endif /* CYBLE_BAS_CLIENT */
 757:.\Generated_Source\PSoC4/BLE_1_eventHandler.c **** #ifdef CYBLE_BLS_CLIENT
 758:.\Generated_Source\PSoC4/BLE_1_eventHandler.c ****     if((cyBle_eventHandlerFlag & CYBLE_CALLBACK) != 0u)
 759:.\Generated_Source\PSoC4/BLE_1_eventHandler.c ****     {
 760:.\Generated_Source\PSoC4/BLE_1_eventHandler.c ****         CyBle_BlscNotificationEventHandler(eventParam);
ARM GAS  C:\Users\Ecapable\AppData\Local\Temp\ccmAuCaF.s 			page 17


 761:.\Generated_Source\PSoC4/BLE_1_eventHandler.c ****     }
 762:.\Generated_Source\PSoC4/BLE_1_eventHandler.c **** #endif /* CYBLE_BLS_CLIENT */
 763:.\Generated_Source\PSoC4/BLE_1_eventHandler.c **** #ifdef CYBLE_CGMS_CLIENT
 764:.\Generated_Source\PSoC4/BLE_1_eventHandler.c ****     if((cyBle_eventHandlerFlag & CYBLE_CALLBACK) != 0u)
 765:.\Generated_Source\PSoC4/BLE_1_eventHandler.c ****     {
 766:.\Generated_Source\PSoC4/BLE_1_eventHandler.c ****         CyBle_CgmscNotificationEventHandler(eventParam);
 767:.\Generated_Source\PSoC4/BLE_1_eventHandler.c ****     }
 768:.\Generated_Source\PSoC4/BLE_1_eventHandler.c **** #endif /* CYBLE_CGMS_CLIENT */
 769:.\Generated_Source\PSoC4/BLE_1_eventHandler.c **** #ifdef CYBLE_CPS_CLIENT
 770:.\Generated_Source\PSoC4/BLE_1_eventHandler.c ****     if((cyBle_eventHandlerFlag & CYBLE_CALLBACK) != 0u)
 771:.\Generated_Source\PSoC4/BLE_1_eventHandler.c ****     {
 772:.\Generated_Source\PSoC4/BLE_1_eventHandler.c ****         CyBle_CpscNotificationEventHandler(eventParam);
 773:.\Generated_Source\PSoC4/BLE_1_eventHandler.c ****     }
 774:.\Generated_Source\PSoC4/BLE_1_eventHandler.c **** #endif /* CYBLE_CPS_CLIENT */
 775:.\Generated_Source\PSoC4/BLE_1_eventHandler.c **** #ifdef CYBLE_CSCS_CLIENT
 776:.\Generated_Source\PSoC4/BLE_1_eventHandler.c ****     if((cyBle_eventHandlerFlag & CYBLE_CALLBACK) != 0u)
 777:.\Generated_Source\PSoC4/BLE_1_eventHandler.c ****     {
 778:.\Generated_Source\PSoC4/BLE_1_eventHandler.c ****         CyBle_CscscNotificationEventHandler(eventParam);
 779:.\Generated_Source\PSoC4/BLE_1_eventHandler.c ****     }
 780:.\Generated_Source\PSoC4/BLE_1_eventHandler.c **** #endif /* CYBLE_CSCS_CLIENT */
 781:.\Generated_Source\PSoC4/BLE_1_eventHandler.c **** #ifdef CYBLE_CTS_CLIENT
 782:.\Generated_Source\PSoC4/BLE_1_eventHandler.c ****     if((cyBle_eventHandlerFlag & CYBLE_CALLBACK) != 0u)
 783:.\Generated_Source\PSoC4/BLE_1_eventHandler.c ****     {
 784:.\Generated_Source\PSoC4/BLE_1_eventHandler.c ****         CyBle_CtscNotificationEventHandler(eventParam);
 785:.\Generated_Source\PSoC4/BLE_1_eventHandler.c ****     }
 786:.\Generated_Source\PSoC4/BLE_1_eventHandler.c **** #endif /* CYBLE_CTS_CLIENT */
 787:.\Generated_Source\PSoC4/BLE_1_eventHandler.c **** #ifdef CYBLE_ESS_CLIENT
 788:.\Generated_Source\PSoC4/BLE_1_eventHandler.c ****     if((cyBle_eventHandlerFlag & CYBLE_CALLBACK) != 0u)
 789:.\Generated_Source\PSoC4/BLE_1_eventHandler.c ****     {
 790:.\Generated_Source\PSoC4/BLE_1_eventHandler.c ****         CyBle_EsscNotificationEventHandler(eventParam);
 791:.\Generated_Source\PSoC4/BLE_1_eventHandler.c ****     }
 792:.\Generated_Source\PSoC4/BLE_1_eventHandler.c **** #endif /* CYBLE_ESS_CLIENT */
 793:.\Generated_Source\PSoC4/BLE_1_eventHandler.c **** #ifdef CYBLE_GLS_CLIENT
 794:.\Generated_Source\PSoC4/BLE_1_eventHandler.c ****     if((cyBle_eventHandlerFlag & CYBLE_CALLBACK) != 0u)
 795:.\Generated_Source\PSoC4/BLE_1_eventHandler.c ****     {
 796:.\Generated_Source\PSoC4/BLE_1_eventHandler.c ****         CyBle_GlscNotificationEventHandler(eventParam);
 797:.\Generated_Source\PSoC4/BLE_1_eventHandler.c ****     }
 798:.\Generated_Source\PSoC4/BLE_1_eventHandler.c **** #endif /* CYBLE_GLS_CLIENT */
 799:.\Generated_Source\PSoC4/BLE_1_eventHandler.c **** #ifdef CYBLE_HIDS_CLIENT
 800:.\Generated_Source\PSoC4/BLE_1_eventHandler.c ****     if((cyBle_eventHandlerFlag & CYBLE_CALLBACK) != 0u)
 801:.\Generated_Source\PSoC4/BLE_1_eventHandler.c ****     {
 802:.\Generated_Source\PSoC4/BLE_1_eventHandler.c ****         CyBle_HidscNotificationEventHandler(eventParam);
 803:.\Generated_Source\PSoC4/BLE_1_eventHandler.c ****     }
 804:.\Generated_Source\PSoC4/BLE_1_eventHandler.c **** #endif /* CYBLE_HIDS_CLIENT */
 805:.\Generated_Source\PSoC4/BLE_1_eventHandler.c **** #ifdef CYBLE_HPS_CLIENT
 806:.\Generated_Source\PSoC4/BLE_1_eventHandler.c ****     if((cyBle_eventHandlerFlag & CYBLE_CALLBACK) != 0u)
 807:.\Generated_Source\PSoC4/BLE_1_eventHandler.c ****     {
 808:.\Generated_Source\PSoC4/BLE_1_eventHandler.c ****         CyBle_HpscNotificationEventHandler(eventParam);
 809:.\Generated_Source\PSoC4/BLE_1_eventHandler.c ****     }
 810:.\Generated_Source\PSoC4/BLE_1_eventHandler.c **** #endif /* CYBLE_HPS_CLIENT */
 811:.\Generated_Source\PSoC4/BLE_1_eventHandler.c **** #ifdef CYBLE_HRS_CLIENT
 812:.\Generated_Source\PSoC4/BLE_1_eventHandler.c ****     if((cyBle_eventHandlerFlag & CYBLE_CALLBACK) != 0u)
 813:.\Generated_Source\PSoC4/BLE_1_eventHandler.c ****     {
 814:.\Generated_Source\PSoC4/BLE_1_eventHandler.c ****         CyBle_HrscNotificationEventHandler(eventParam);
 815:.\Generated_Source\PSoC4/BLE_1_eventHandler.c ****     }
 816:.\Generated_Source\PSoC4/BLE_1_eventHandler.c **** #endif /* CYBLE_HRS_CLIENT */
 817:.\Generated_Source\PSoC4/BLE_1_eventHandler.c **** #ifdef CYBLE_HTS_CLIENT
ARM GAS  C:\Users\Ecapable\AppData\Local\Temp\ccmAuCaF.s 			page 18


 818:.\Generated_Source\PSoC4/BLE_1_eventHandler.c ****     if((cyBle_eventHandlerFlag & CYBLE_CALLBACK) != 0u)
 819:.\Generated_Source\PSoC4/BLE_1_eventHandler.c ****     {
 820:.\Generated_Source\PSoC4/BLE_1_eventHandler.c ****         CyBle_HtscNotificationEventHandler(eventParam);
 821:.\Generated_Source\PSoC4/BLE_1_eventHandler.c ****     }
 822:.\Generated_Source\PSoC4/BLE_1_eventHandler.c **** #endif /* CYBLE_HTS_CLIENT */
 823:.\Generated_Source\PSoC4/BLE_1_eventHandler.c **** #ifdef CYBLE_LNS_CLIENT
 824:.\Generated_Source\PSoC4/BLE_1_eventHandler.c ****     if((cyBle_eventHandlerFlag & CYBLE_CALLBACK) != 0u)
 825:.\Generated_Source\PSoC4/BLE_1_eventHandler.c ****     {
 826:.\Generated_Source\PSoC4/BLE_1_eventHandler.c ****         CyBle_LnscNotificationEventHandler(eventParam);
 827:.\Generated_Source\PSoC4/BLE_1_eventHandler.c ****     }
 828:.\Generated_Source\PSoC4/BLE_1_eventHandler.c **** #endif /* CYBLE_LNS_CLIENT */
 829:.\Generated_Source\PSoC4/BLE_1_eventHandler.c **** #ifdef CYBLE_PASS_CLIENT
 830:.\Generated_Source\PSoC4/BLE_1_eventHandler.c ****     if((cyBle_eventHandlerFlag & CYBLE_CALLBACK) != 0u)
 831:.\Generated_Source\PSoC4/BLE_1_eventHandler.c ****     {
 832:.\Generated_Source\PSoC4/BLE_1_eventHandler.c ****         CyBle_PasscNotificationEventHandler(eventParam);
 833:.\Generated_Source\PSoC4/BLE_1_eventHandler.c ****     }
 834:.\Generated_Source\PSoC4/BLE_1_eventHandler.c **** #endif /* CYBLE_PASS_CLIENT */
 835:.\Generated_Source\PSoC4/BLE_1_eventHandler.c **** #ifdef CYBLE_RSCS_CLIENT
 836:.\Generated_Source\PSoC4/BLE_1_eventHandler.c ****     if((cyBle_eventHandlerFlag & CYBLE_CALLBACK) != 0u)
 837:.\Generated_Source\PSoC4/BLE_1_eventHandler.c ****     {
 838:.\Generated_Source\PSoC4/BLE_1_eventHandler.c ****         CyBle_RscscNotificationEventHandler(eventParam);
 839:.\Generated_Source\PSoC4/BLE_1_eventHandler.c ****     }
 840:.\Generated_Source\PSoC4/BLE_1_eventHandler.c **** #endif /* CYBLE_RSCS_CLIENT */
 841:.\Generated_Source\PSoC4/BLE_1_eventHandler.c **** #ifdef CYBLE_SCPS_CLIENT
 842:.\Generated_Source\PSoC4/BLE_1_eventHandler.c ****     if((cyBle_eventHandlerFlag & CYBLE_CALLBACK) != 0u)
 843:.\Generated_Source\PSoC4/BLE_1_eventHandler.c ****     {
 844:.\Generated_Source\PSoC4/BLE_1_eventHandler.c ****         CyBle_ScpscNotificationEventHandler(eventParam);
 845:.\Generated_Source\PSoC4/BLE_1_eventHandler.c ****     }
 846:.\Generated_Source\PSoC4/BLE_1_eventHandler.c **** #endif /* CYBLE_SCPS_CLIENT */
 847:.\Generated_Source\PSoC4/BLE_1_eventHandler.c **** #ifdef CYBLE_TPS_CLIENT
 848:.\Generated_Source\PSoC4/BLE_1_eventHandler.c ****     if((cyBle_eventHandlerFlag & CYBLE_CALLBACK) != 0u)
 849:.\Generated_Source\PSoC4/BLE_1_eventHandler.c ****     {
 850:.\Generated_Source\PSoC4/BLE_1_eventHandler.c ****         CyBle_TpscNotificationEventHandler(eventParam);
 851:.\Generated_Source\PSoC4/BLE_1_eventHandler.c ****     }
 852:.\Generated_Source\PSoC4/BLE_1_eventHandler.c **** #endif /* CYBLE_TPS_CLIENT */
 853:.\Generated_Source\PSoC4/BLE_1_eventHandler.c **** #ifdef CYBLE_UDS_CLIENT
 854:.\Generated_Source\PSoC4/BLE_1_eventHandler.c ****     if((cyBle_eventHandlerFlag & CYBLE_CALLBACK) != 0u)
 855:.\Generated_Source\PSoC4/BLE_1_eventHandler.c ****     {
 856:.\Generated_Source\PSoC4/BLE_1_eventHandler.c ****         CyBle_UdscNotificationEventHandler(eventParam);
 857:.\Generated_Source\PSoC4/BLE_1_eventHandler.c ****     }
 858:.\Generated_Source\PSoC4/BLE_1_eventHandler.c **** #endif /* CYBLE_UDS_CLIENT */
 859:.\Generated_Source\PSoC4/BLE_1_eventHandler.c **** #ifdef CYBLE_WPTS_CLIENT
 860:.\Generated_Source\PSoC4/BLE_1_eventHandler.c ****     if((cyBle_eventHandlerFlag & CYBLE_CALLBACK) != 0u)
 861:.\Generated_Source\PSoC4/BLE_1_eventHandler.c ****     {
 862:.\Generated_Source\PSoC4/BLE_1_eventHandler.c ****         CyBle_WptscNotificationEventHandler(eventParam);
 863:.\Generated_Source\PSoC4/BLE_1_eventHandler.c ****     }
 864:.\Generated_Source\PSoC4/BLE_1_eventHandler.c **** #endif /* CYBLE_WPTS_CLIENT */
 865:.\Generated_Source\PSoC4/BLE_1_eventHandler.c **** }
 866:.\Generated_Source\PSoC4/BLE_1_eventHandler.c **** 
 867:.\Generated_Source\PSoC4/BLE_1_eventHandler.c **** 
 868:.\Generated_Source\PSoC4/BLE_1_eventHandler.c **** /******************************************************************************    
 869:.\Generated_Source\PSoC4/BLE_1_eventHandler.c **** * Function Name: CyBle_IndicationEventHandler
 870:.\Generated_Source\PSoC4/BLE_1_eventHandler.c **** ***************************************************************************//**
 871:.\Generated_Source\PSoC4/BLE_1_eventHandler.c **** * 
 872:.\Generated_Source\PSoC4/BLE_1_eventHandler.c **** *  Handles the Indication event from BLE stack.
 873:.\Generated_Source\PSoC4/BLE_1_eventHandler.c **** * 
 874:.\Generated_Source\PSoC4/BLE_1_eventHandler.c **** *  \param eventParam: event parameter
ARM GAS  C:\Users\Ecapable\AppData\Local\Temp\ccmAuCaF.s 			page 19


 875:.\Generated_Source\PSoC4/BLE_1_eventHandler.c **** * 
 876:.\Generated_Source\PSoC4/BLE_1_eventHandler.c **** * \return
 877:.\Generated_Source\PSoC4/BLE_1_eventHandler.c **** *  None
 878:.\Generated_Source\PSoC4/BLE_1_eventHandler.c **** * 
 879:.\Generated_Source\PSoC4/BLE_1_eventHandler.c **** ******************************************************************************/
 880:.\Generated_Source\PSoC4/BLE_1_eventHandler.c **** static void CyBle_IndicationEventHandler(CYBLE_GATTC_HANDLE_VALUE_IND_PARAM_T *eventParam)
 881:.\Generated_Source\PSoC4/BLE_1_eventHandler.c **** {
 882:.\Generated_Source\PSoC4/BLE_1_eventHandler.c **** #ifdef CYBLE_BCS_CLIENT
 883:.\Generated_Source\PSoC4/BLE_1_eventHandler.c ****     if((cyBle_eventHandlerFlag & CYBLE_CALLBACK) != 0u)
 884:.\Generated_Source\PSoC4/BLE_1_eventHandler.c ****     {
 885:.\Generated_Source\PSoC4/BLE_1_eventHandler.c ****         CyBle_BcscIndicationEventHandler(eventParam);
 886:.\Generated_Source\PSoC4/BLE_1_eventHandler.c ****     }
 887:.\Generated_Source\PSoC4/BLE_1_eventHandler.c **** #endif /* CYBLE_BCS_CLIENT */
 888:.\Generated_Source\PSoC4/BLE_1_eventHandler.c **** #ifdef CYBLE_BLS_CLIENT
 889:.\Generated_Source\PSoC4/BLE_1_eventHandler.c ****     if((cyBle_eventHandlerFlag & CYBLE_CALLBACK) != 0u)
 890:.\Generated_Source\PSoC4/BLE_1_eventHandler.c ****     {
 891:.\Generated_Source\PSoC4/BLE_1_eventHandler.c ****         CyBle_BlscIndicationEventHandler(eventParam);
 892:.\Generated_Source\PSoC4/BLE_1_eventHandler.c ****     }
 893:.\Generated_Source\PSoC4/BLE_1_eventHandler.c **** #endif /* CYBLE_BLS_CLIENT */
 894:.\Generated_Source\PSoC4/BLE_1_eventHandler.c **** #ifdef CYBLE_CGMS_CLIENT
 895:.\Generated_Source\PSoC4/BLE_1_eventHandler.c ****     if((cyBle_eventHandlerFlag & CYBLE_CALLBACK) != 0u)
 896:.\Generated_Source\PSoC4/BLE_1_eventHandler.c ****     {
 897:.\Generated_Source\PSoC4/BLE_1_eventHandler.c ****         CyBle_CgmscIndicationEventHandler(eventParam);
 898:.\Generated_Source\PSoC4/BLE_1_eventHandler.c ****     }
 899:.\Generated_Source\PSoC4/BLE_1_eventHandler.c **** #endif /* CYBLE_CGMS_CLIENT */
 900:.\Generated_Source\PSoC4/BLE_1_eventHandler.c **** #ifdef CYBLE_CPS_CLIENT
 901:.\Generated_Source\PSoC4/BLE_1_eventHandler.c ****     if((cyBle_eventHandlerFlag & CYBLE_CALLBACK) != 0u)
 902:.\Generated_Source\PSoC4/BLE_1_eventHandler.c ****     {
 903:.\Generated_Source\PSoC4/BLE_1_eventHandler.c ****         CyBle_CpscIndicationEventHandler(eventParam);
 904:.\Generated_Source\PSoC4/BLE_1_eventHandler.c ****     }
 905:.\Generated_Source\PSoC4/BLE_1_eventHandler.c **** #endif /* CYBLE_CPS_CLIENT */
 906:.\Generated_Source\PSoC4/BLE_1_eventHandler.c **** #ifdef CYBLE_CSCS_CLIENT
 907:.\Generated_Source\PSoC4/BLE_1_eventHandler.c ****     if((cyBle_eventHandlerFlag & CYBLE_CALLBACK) != 0u)
 908:.\Generated_Source\PSoC4/BLE_1_eventHandler.c ****     {
 909:.\Generated_Source\PSoC4/BLE_1_eventHandler.c ****         CyBle_CscscIndicationEventHandler(eventParam);
 910:.\Generated_Source\PSoC4/BLE_1_eventHandler.c ****     }
 911:.\Generated_Source\PSoC4/BLE_1_eventHandler.c **** #endif /* CYBLE_CSCS_CLIENT */
 912:.\Generated_Source\PSoC4/BLE_1_eventHandler.c **** #ifdef CYBLE_ESS_CLIENT
 913:.\Generated_Source\PSoC4/BLE_1_eventHandler.c ****     if((cyBle_eventHandlerFlag & CYBLE_CALLBACK) != 0u)
 914:.\Generated_Source\PSoC4/BLE_1_eventHandler.c ****     {
 915:.\Generated_Source\PSoC4/BLE_1_eventHandler.c ****         CyBle_EsscIndicationEventHandler(eventParam);
 916:.\Generated_Source\PSoC4/BLE_1_eventHandler.c ****     }
 917:.\Generated_Source\PSoC4/BLE_1_eventHandler.c **** #endif /* CYBLE_ESS_CLIENT */
 918:.\Generated_Source\PSoC4/BLE_1_eventHandler.c **** #ifdef CYBLE_GLS_CLIENT
 919:.\Generated_Source\PSoC4/BLE_1_eventHandler.c ****     if((cyBle_eventHandlerFlag & CYBLE_CALLBACK) != 0u)
 920:.\Generated_Source\PSoC4/BLE_1_eventHandler.c ****     {
 921:.\Generated_Source\PSoC4/BLE_1_eventHandler.c ****         CyBle_GlscIndicationEventHandler(eventParam);
 922:.\Generated_Source\PSoC4/BLE_1_eventHandler.c ****     }
 923:.\Generated_Source\PSoC4/BLE_1_eventHandler.c **** #endif /* CYBLE_GLS_CLIENT */
 924:.\Generated_Source\PSoC4/BLE_1_eventHandler.c **** #ifdef CYBLE_HTS_CLIENT
 925:.\Generated_Source\PSoC4/BLE_1_eventHandler.c ****     if((cyBle_eventHandlerFlag & CYBLE_CALLBACK) != 0u)
 926:.\Generated_Source\PSoC4/BLE_1_eventHandler.c ****     {
 927:.\Generated_Source\PSoC4/BLE_1_eventHandler.c ****         CyBle_HtscIndicationEventHandler(eventParam);
 928:.\Generated_Source\PSoC4/BLE_1_eventHandler.c ****     }
 929:.\Generated_Source\PSoC4/BLE_1_eventHandler.c **** #endif /* CYBLE_HTS_CLIENT */
 930:.\Generated_Source\PSoC4/BLE_1_eventHandler.c **** #ifdef CYBLE_LNS_CLIENT
 931:.\Generated_Source\PSoC4/BLE_1_eventHandler.c ****     if((cyBle_eventHandlerFlag & CYBLE_CALLBACK) != 0u)
ARM GAS  C:\Users\Ecapable\AppData\Local\Temp\ccmAuCaF.s 			page 20


 932:.\Generated_Source\PSoC4/BLE_1_eventHandler.c ****     {
 933:.\Generated_Source\PSoC4/BLE_1_eventHandler.c ****         CyBle_LnscIndicationEventHandler(eventParam);
 934:.\Generated_Source\PSoC4/BLE_1_eventHandler.c ****     }
 935:.\Generated_Source\PSoC4/BLE_1_eventHandler.c **** #endif /* CYBLE_LNS_CLIENT */
 936:.\Generated_Source\PSoC4/BLE_1_eventHandler.c **** #ifdef CYBLE_RSCS_CLIENT
 937:.\Generated_Source\PSoC4/BLE_1_eventHandler.c ****     if((cyBle_eventHandlerFlag & CYBLE_CALLBACK) != 0u)
 938:.\Generated_Source\PSoC4/BLE_1_eventHandler.c ****     {
 939:.\Generated_Source\PSoC4/BLE_1_eventHandler.c ****         CyBle_RscscIndicationEventHandler(eventParam);
 940:.\Generated_Source\PSoC4/BLE_1_eventHandler.c ****     }
 941:.\Generated_Source\PSoC4/BLE_1_eventHandler.c **** #endif /* CYBLE_RSCS_CLIENT */
 942:.\Generated_Source\PSoC4/BLE_1_eventHandler.c **** #ifdef CYBLE_UDS_CLIENT
 943:.\Generated_Source\PSoC4/BLE_1_eventHandler.c ****     if((cyBle_eventHandlerFlag & CYBLE_CALLBACK) != 0u)
 944:.\Generated_Source\PSoC4/BLE_1_eventHandler.c ****     {
 945:.\Generated_Source\PSoC4/BLE_1_eventHandler.c ****         CyBle_UdscIndicationEventHandler(eventParam);
 946:.\Generated_Source\PSoC4/BLE_1_eventHandler.c ****     }
 947:.\Generated_Source\PSoC4/BLE_1_eventHandler.c **** #endif /* CYBLE_UDS_CLIENT */
 948:.\Generated_Source\PSoC4/BLE_1_eventHandler.c **** #ifdef CYBLE_WPTS_CLIENT
 949:.\Generated_Source\PSoC4/BLE_1_eventHandler.c ****     if((cyBle_eventHandlerFlag & CYBLE_CALLBACK) != 0u)
 950:.\Generated_Source\PSoC4/BLE_1_eventHandler.c ****     {
 951:.\Generated_Source\PSoC4/BLE_1_eventHandler.c ****         CyBle_WptscIndicationEventHandler(eventParam);
 952:.\Generated_Source\PSoC4/BLE_1_eventHandler.c ****     }
 953:.\Generated_Source\PSoC4/BLE_1_eventHandler.c **** #endif /* CYBLE_WPTS_CLIENT */
 954:.\Generated_Source\PSoC4/BLE_1_eventHandler.c **** #ifdef CYBLE_WSS_CLIENT
 955:.\Generated_Source\PSoC4/BLE_1_eventHandler.c ****     if((cyBle_eventHandlerFlag & CYBLE_CALLBACK) != 0u)
 956:.\Generated_Source\PSoC4/BLE_1_eventHandler.c ****     {
 957:.\Generated_Source\PSoC4/BLE_1_eventHandler.c ****         CyBle_WsscIndicationEventHandler(eventParam);
 958:.\Generated_Source\PSoC4/BLE_1_eventHandler.c ****     }
 959:.\Generated_Source\PSoC4/BLE_1_eventHandler.c **** #endif /* CYBLE_WSS_CLIENT */
 960:.\Generated_Source\PSoC4/BLE_1_eventHandler.c **** }
 961:.\Generated_Source\PSoC4/BLE_1_eventHandler.c **** 
 962:.\Generated_Source\PSoC4/BLE_1_eventHandler.c **** 
 963:.\Generated_Source\PSoC4/BLE_1_eventHandler.c **** 
 964:.\Generated_Source\PSoC4/BLE_1_eventHandler.c **** /******************************************************************************    
 965:.\Generated_Source\PSoC4/BLE_1_eventHandler.c **** * Function Name: CyBle_ReadResponseEventHandler
 966:.\Generated_Source\PSoC4/BLE_1_eventHandler.c **** ***************************************************************************//**
 967:.\Generated_Source\PSoC4/BLE_1_eventHandler.c **** * 
 968:.\Generated_Source\PSoC4/BLE_1_eventHandler.c **** *  Handles the Read Response event from BLE stack.
 969:.\Generated_Source\PSoC4/BLE_1_eventHandler.c **** * 
 970:.\Generated_Source\PSoC4/BLE_1_eventHandler.c **** *  \param eventParam: event parameter
 971:.\Generated_Source\PSoC4/BLE_1_eventHandler.c **** * 
 972:.\Generated_Source\PSoC4/BLE_1_eventHandler.c **** * \return
 973:.\Generated_Source\PSoC4/BLE_1_eventHandler.c **** *  None
 974:.\Generated_Source\PSoC4/BLE_1_eventHandler.c **** * 
 975:.\Generated_Source\PSoC4/BLE_1_eventHandler.c **** ******************************************************************************/
 976:.\Generated_Source\PSoC4/BLE_1_eventHandler.c **** static void CyBle_ReadResponseEventHandler(CYBLE_GATTC_READ_RSP_PARAM_T *eventParam)
 977:.\Generated_Source\PSoC4/BLE_1_eventHandler.c **** {
 978:.\Generated_Source\PSoC4/BLE_1_eventHandler.c **** #ifdef CYBLE_CUSTOM_CLIENT
 979:.\Generated_Source\PSoC4/BLE_1_eventHandler.c ****     /* Read response with 128-bit included service uuid */
 980:.\Generated_Source\PSoC4/BLE_1_eventHandler.c ****     if((CYBLE_CLIENT_STATE_INCL_DISCOVERING == CyBle_GetClientState()) &&
 981:.\Generated_Source\PSoC4/BLE_1_eventHandler.c ****        (cyBle_discInclInfo.inclDefHandle != 0u))
 982:.\Generated_Source\PSoC4/BLE_1_eventHandler.c ****     {
 983:.\Generated_Source\PSoC4/BLE_1_eventHandler.c ****         CYBLE_DISC_SRVC128_INFO_T discServInfo;
 984:.\Generated_Source\PSoC4/BLE_1_eventHandler.c **** 
 985:.\Generated_Source\PSoC4/BLE_1_eventHandler.c ****         /* Store service range */
 986:.\Generated_Source\PSoC4/BLE_1_eventHandler.c ****         discServInfo.range = cyBle_discInclInfo.inclHandleRange;
 987:.\Generated_Source\PSoC4/BLE_1_eventHandler.c ****         (void)memcpy((void *) discServInfo.uuid.uuid128.value, (void *)eventParam->value.val, event
 988:.\Generated_Source\PSoC4/BLE_1_eventHandler.c ****         CyBle_CustomcDiscoverServiceEventHandler(&discServInfo);
ARM GAS  C:\Users\Ecapable\AppData\Local\Temp\ccmAuCaF.s 			page 21


 989:.\Generated_Source\PSoC4/BLE_1_eventHandler.c ****         
 990:.\Generated_Source\PSoC4/BLE_1_eventHandler.c ****         /* Re-initiate CyBle_GattcFindIncludedServices function, setting the start
 991:.\Generated_Source\PSoC4/BLE_1_eventHandler.c ****            handle to the attribute handle which is placed next to the one used in
 992:.\Generated_Source\PSoC4/BLE_1_eventHandler.c ****            the above step.
 993:.\Generated_Source\PSoC4/BLE_1_eventHandler.c ****         */
 994:.\Generated_Source\PSoC4/BLE_1_eventHandler.c ****         discServInfo.range.startHandle = cyBle_discInclInfo.inclDefHandle + 1u;
 995:.\Generated_Source\PSoC4/BLE_1_eventHandler.c ****         discServInfo.range.endHandle = cyBle_serverInfo[cyBle_disCount].range.endHandle;
 996:.\Generated_Source\PSoC4/BLE_1_eventHandler.c ****         if(discServInfo.range.startHandle <= discServInfo.range.endHandle)
 997:.\Generated_Source\PSoC4/BLE_1_eventHandler.c ****         {
 998:.\Generated_Source\PSoC4/BLE_1_eventHandler.c ****             if(CYBLE_ERROR_OK != CyBle_GattcFindIncludedServices(cyBle_connHandle, &discServInfo.ra
 999:.\Generated_Source\PSoC4/BLE_1_eventHandler.c ****             {
1000:.\Generated_Source\PSoC4/BLE_1_eventHandler.c ****                 CyBle_ApplCallback(CYBLE_EVT_GATTC_INCL_DISCOVERY_FAILED, NULL);
1001:.\Generated_Source\PSoC4/BLE_1_eventHandler.c ****                 cyBle_eventHandlerFlag &= (uint8)~CYBLE_AUTO_DISCOVERY;
1002:.\Generated_Source\PSoC4/BLE_1_eventHandler.c ****             }
1003:.\Generated_Source\PSoC4/BLE_1_eventHandler.c ****         }
1004:.\Generated_Source\PSoC4/BLE_1_eventHandler.c ****         else /* Continue discovery of the following service */
1005:.\Generated_Source\PSoC4/BLE_1_eventHandler.c ****         {
1006:.\Generated_Source\PSoC4/BLE_1_eventHandler.c ****             CyBle_NextInclDiscovery(CYBLE_DISCOVERY_CONTINUE);
1007:.\Generated_Source\PSoC4/BLE_1_eventHandler.c ****         }
1008:.\Generated_Source\PSoC4/BLE_1_eventHandler.c ****         
1009:.\Generated_Source\PSoC4/BLE_1_eventHandler.c ****         cyBle_eventHandlerFlag &= (uint8)~CYBLE_CALLBACK;
1010:.\Generated_Source\PSoC4/BLE_1_eventHandler.c ****     #ifdef CYBLE_CUSTOM_CLIENT
1011:.\Generated_Source\PSoC4/BLE_1_eventHandler.c ****         cyBle_discInclInfo.inclDefHandle = 0u;
1012:.\Generated_Source\PSoC4/BLE_1_eventHandler.c ****     #endif /* CYBLE_CUSTOM_CLIENT */
1013:.\Generated_Source\PSoC4/BLE_1_eventHandler.c ****     }
1014:.\Generated_Source\PSoC4/BLE_1_eventHandler.c **** #endif /* CYBLE_CUSTOM_CLIENT */
1015:.\Generated_Source\PSoC4/BLE_1_eventHandler.c **** #ifdef CYBLE_ANCS_CLIENT
1016:.\Generated_Source\PSoC4/BLE_1_eventHandler.c ****     if((cyBle_eventHandlerFlag & CYBLE_CALLBACK) != 0u)
1017:.\Generated_Source\PSoC4/BLE_1_eventHandler.c ****     {
1018:.\Generated_Source\PSoC4/BLE_1_eventHandler.c ****         CyBle_AncscReadResponseEventHandler(eventParam);
1019:.\Generated_Source\PSoC4/BLE_1_eventHandler.c ****     }
1020:.\Generated_Source\PSoC4/BLE_1_eventHandler.c **** #endif /* CYBLE_ANCS_CLIENT */
1021:.\Generated_Source\PSoC4/BLE_1_eventHandler.c **** #ifdef CYBLE_ANS_CLIENT
1022:.\Generated_Source\PSoC4/BLE_1_eventHandler.c ****     if((cyBle_eventHandlerFlag & CYBLE_CALLBACK) != 0u)
1023:.\Generated_Source\PSoC4/BLE_1_eventHandler.c ****     {
1024:.\Generated_Source\PSoC4/BLE_1_eventHandler.c ****         CyBle_AnscReadResponseEventHandler(eventParam);
1025:.\Generated_Source\PSoC4/BLE_1_eventHandler.c ****     }
1026:.\Generated_Source\PSoC4/BLE_1_eventHandler.c **** #endif /* CYBLE_ANS_CLIENT */
1027:.\Generated_Source\PSoC4/BLE_1_eventHandler.c **** #ifdef CYBLE_BAS_CLIENT
1028:.\Generated_Source\PSoC4/BLE_1_eventHandler.c ****     if((cyBle_eventHandlerFlag & CYBLE_CALLBACK) != 0u)
1029:.\Generated_Source\PSoC4/BLE_1_eventHandler.c ****     {
1030:.\Generated_Source\PSoC4/BLE_1_eventHandler.c ****         CyBle_BascReadResponseEventHandler(eventParam);
1031:.\Generated_Source\PSoC4/BLE_1_eventHandler.c ****     }
1032:.\Generated_Source\PSoC4/BLE_1_eventHandler.c **** #endif /* CYBLE_BAS_CLIENT */
1033:.\Generated_Source\PSoC4/BLE_1_eventHandler.c **** #ifdef CYBLE_BLS_CLIENT
1034:.\Generated_Source\PSoC4/BLE_1_eventHandler.c ****     if((cyBle_eventHandlerFlag & CYBLE_CALLBACK) != 0u)
1035:.\Generated_Source\PSoC4/BLE_1_eventHandler.c ****     {
1036:.\Generated_Source\PSoC4/BLE_1_eventHandler.c ****         CyBle_BlscReadResponseEventHandler(eventParam);
1037:.\Generated_Source\PSoC4/BLE_1_eventHandler.c ****     }
1038:.\Generated_Source\PSoC4/BLE_1_eventHandler.c **** #endif /* CYBLE_BLS_CLIENT */
1039:.\Generated_Source\PSoC4/BLE_1_eventHandler.c **** #ifdef CYBLE_BCS_CLIENT
1040:.\Generated_Source\PSoC4/BLE_1_eventHandler.c ****     if((cyBle_eventHandlerFlag & CYBLE_CALLBACK) != 0u)
1041:.\Generated_Source\PSoC4/BLE_1_eventHandler.c ****     {
1042:.\Generated_Source\PSoC4/BLE_1_eventHandler.c ****         CyBle_BcscReadResponseEventHandler(eventParam);
1043:.\Generated_Source\PSoC4/BLE_1_eventHandler.c ****     }
1044:.\Generated_Source\PSoC4/BLE_1_eventHandler.c **** #endif /* CYBLE_BCS_CLIENT */
1045:.\Generated_Source\PSoC4/BLE_1_eventHandler.c **** #ifdef CYBLE_BMS_CLIENT
ARM GAS  C:\Users\Ecapable\AppData\Local\Temp\ccmAuCaF.s 			page 22


1046:.\Generated_Source\PSoC4/BLE_1_eventHandler.c ****     if((cyBle_eventHandlerFlag & CYBLE_CALLBACK) != 0u)
1047:.\Generated_Source\PSoC4/BLE_1_eventHandler.c ****     {
1048:.\Generated_Source\PSoC4/BLE_1_eventHandler.c ****         CyBle_BmscReadResponseEventHandler(eventParam);
1049:.\Generated_Source\PSoC4/BLE_1_eventHandler.c ****     }
1050:.\Generated_Source\PSoC4/BLE_1_eventHandler.c **** #endif /* CYBLE_BMS_CLIENT */
1051:.\Generated_Source\PSoC4/BLE_1_eventHandler.c **** #ifdef CYBLE_CGMS_CLIENT
1052:.\Generated_Source\PSoC4/BLE_1_eventHandler.c ****     if((cyBle_eventHandlerFlag & CYBLE_CALLBACK) != 0u)
1053:.\Generated_Source\PSoC4/BLE_1_eventHandler.c ****     {
1054:.\Generated_Source\PSoC4/BLE_1_eventHandler.c ****         CyBle_CgmscReadResponseEventHandler(eventParam);
1055:.\Generated_Source\PSoC4/BLE_1_eventHandler.c ****     }
1056:.\Generated_Source\PSoC4/BLE_1_eventHandler.c **** #endif /* CYBLE_CGMS_CLIENT */
1057:.\Generated_Source\PSoC4/BLE_1_eventHandler.c **** #ifdef CYBLE_CPS_CLIENT
1058:.\Generated_Source\PSoC4/BLE_1_eventHandler.c ****     if((cyBle_eventHandlerFlag & CYBLE_CALLBACK) != 0u)
1059:.\Generated_Source\PSoC4/BLE_1_eventHandler.c ****     {
1060:.\Generated_Source\PSoC4/BLE_1_eventHandler.c ****         CyBle_CpscReadResponseEventHandler(eventParam);
1061:.\Generated_Source\PSoC4/BLE_1_eventHandler.c ****     }
1062:.\Generated_Source\PSoC4/BLE_1_eventHandler.c **** #endif /* CYBLE_CPS_CLIENT */
1063:.\Generated_Source\PSoC4/BLE_1_eventHandler.c **** #ifdef CYBLE_CSCS_CLIENT
1064:.\Generated_Source\PSoC4/BLE_1_eventHandler.c ****     if((cyBle_eventHandlerFlag & CYBLE_CALLBACK) != 0u)
1065:.\Generated_Source\PSoC4/BLE_1_eventHandler.c ****     {
1066:.\Generated_Source\PSoC4/BLE_1_eventHandler.c ****         CyBle_CscscReadResponseEventHandler(eventParam);
1067:.\Generated_Source\PSoC4/BLE_1_eventHandler.c ****     }
1068:.\Generated_Source\PSoC4/BLE_1_eventHandler.c **** #endif /* CYBLE_CSCS_CLIENT */
1069:.\Generated_Source\PSoC4/BLE_1_eventHandler.c **** #ifdef CYBLE_CTS_CLIENT
1070:.\Generated_Source\PSoC4/BLE_1_eventHandler.c ****     if((cyBle_eventHandlerFlag & CYBLE_CALLBACK) != 0u)
1071:.\Generated_Source\PSoC4/BLE_1_eventHandler.c ****     {
1072:.\Generated_Source\PSoC4/BLE_1_eventHandler.c ****         CyBle_CtscReadResponseEventHandler(eventParam);
1073:.\Generated_Source\PSoC4/BLE_1_eventHandler.c ****     }
1074:.\Generated_Source\PSoC4/BLE_1_eventHandler.c **** #endif /* CYBLE_BAS_CLIENT */
1075:.\Generated_Source\PSoC4/BLE_1_eventHandler.c **** #ifdef CYBLE_DIS_CLIENT
1076:.\Generated_Source\PSoC4/BLE_1_eventHandler.c ****     if((cyBle_eventHandlerFlag & CYBLE_CALLBACK) != 0u)
1077:.\Generated_Source\PSoC4/BLE_1_eventHandler.c ****     {
1078:.\Generated_Source\PSoC4/BLE_1_eventHandler.c ****         CyBle_DiscReadResponseEventHandler(eventParam);
1079:.\Generated_Source\PSoC4/BLE_1_eventHandler.c ****     }
1080:.\Generated_Source\PSoC4/BLE_1_eventHandler.c **** #endif /* CYBLE_DIS_CLIENT */
1081:.\Generated_Source\PSoC4/BLE_1_eventHandler.c **** #ifdef CYBLE_ESS_CLIENT
1082:.\Generated_Source\PSoC4/BLE_1_eventHandler.c ****     if((cyBle_eventHandlerFlag & CYBLE_CALLBACK) != 0u)
1083:.\Generated_Source\PSoC4/BLE_1_eventHandler.c ****     {
1084:.\Generated_Source\PSoC4/BLE_1_eventHandler.c ****         CyBle_EsscReadResponseEventHandler(eventParam);
1085:.\Generated_Source\PSoC4/BLE_1_eventHandler.c ****     }
1086:.\Generated_Source\PSoC4/BLE_1_eventHandler.c **** #endif /* CYBLE_ESS_CLIENT */
1087:.\Generated_Source\PSoC4/BLE_1_eventHandler.c **** #ifdef CYBLE_GLS_CLIENT
1088:.\Generated_Source\PSoC4/BLE_1_eventHandler.c ****     if((cyBle_eventHandlerFlag & CYBLE_CALLBACK) != 0u)
1089:.\Generated_Source\PSoC4/BLE_1_eventHandler.c ****     {
1090:.\Generated_Source\PSoC4/BLE_1_eventHandler.c ****         CyBle_GlscReadResponseEventHandler(eventParam);
1091:.\Generated_Source\PSoC4/BLE_1_eventHandler.c ****     }
1092:.\Generated_Source\PSoC4/BLE_1_eventHandler.c **** #endif /* CYBLE_GLS_CLIENT */
1093:.\Generated_Source\PSoC4/BLE_1_eventHandler.c **** #ifdef CYBLE_HIDS_CLIENT
1094:.\Generated_Source\PSoC4/BLE_1_eventHandler.c ****     if((cyBle_eventHandlerFlag & CYBLE_CALLBACK) != 0u)
1095:.\Generated_Source\PSoC4/BLE_1_eventHandler.c ****     {
1096:.\Generated_Source\PSoC4/BLE_1_eventHandler.c ****         CyBle_HidscReadResponseEventHandler(eventParam);
1097:.\Generated_Source\PSoC4/BLE_1_eventHandler.c ****     }
1098:.\Generated_Source\PSoC4/BLE_1_eventHandler.c **** #endif /* CYBLE_HIDS_CLIENT */
1099:.\Generated_Source\PSoC4/BLE_1_eventHandler.c **** #ifdef CYBLE_HPS_CLIENT
1100:.\Generated_Source\PSoC4/BLE_1_eventHandler.c ****     if((cyBle_eventHandlerFlag & CYBLE_CALLBACK) != 0u)
1101:.\Generated_Source\PSoC4/BLE_1_eventHandler.c ****     {
1102:.\Generated_Source\PSoC4/BLE_1_eventHandler.c ****         CyBle_HpscReadResponseEventHandler(eventParam);
ARM GAS  C:\Users\Ecapable\AppData\Local\Temp\ccmAuCaF.s 			page 23


1103:.\Generated_Source\PSoC4/BLE_1_eventHandler.c ****     }
1104:.\Generated_Source\PSoC4/BLE_1_eventHandler.c **** #endif /* CYBLE_HPS_CLIENT */
1105:.\Generated_Source\PSoC4/BLE_1_eventHandler.c **** #ifdef CYBLE_HRS_CLIENT
1106:.\Generated_Source\PSoC4/BLE_1_eventHandler.c ****     if((cyBle_eventHandlerFlag & CYBLE_CALLBACK) != 0u)
1107:.\Generated_Source\PSoC4/BLE_1_eventHandler.c ****     {
1108:.\Generated_Source\PSoC4/BLE_1_eventHandler.c ****         CyBle_HrscReadResponseEventHandler(eventParam);
1109:.\Generated_Source\PSoC4/BLE_1_eventHandler.c ****     }
1110:.\Generated_Source\PSoC4/BLE_1_eventHandler.c **** #endif /* CYBLE_HRS_CLIENT */
1111:.\Generated_Source\PSoC4/BLE_1_eventHandler.c **** #ifdef CYBLE_HTS_CLIENT
1112:.\Generated_Source\PSoC4/BLE_1_eventHandler.c ****     if((cyBle_eventHandlerFlag & CYBLE_CALLBACK) != 0u)
1113:.\Generated_Source\PSoC4/BLE_1_eventHandler.c ****     {
1114:.\Generated_Source\PSoC4/BLE_1_eventHandler.c ****         CyBle_HtscReadResponseEventHandler(eventParam);
1115:.\Generated_Source\PSoC4/BLE_1_eventHandler.c ****     }
1116:.\Generated_Source\PSoC4/BLE_1_eventHandler.c **** #endif /* CYBLE_HTS_CLIENT */
1117:.\Generated_Source\PSoC4/BLE_1_eventHandler.c **** #ifdef CYBLE_IPS_CLIENT
1118:.\Generated_Source\PSoC4/BLE_1_eventHandler.c ****     if((cyBle_eventHandlerFlag & CYBLE_CALLBACK) != 0u)
1119:.\Generated_Source\PSoC4/BLE_1_eventHandler.c ****     {
1120:.\Generated_Source\PSoC4/BLE_1_eventHandler.c ****         CyBle_IpscReadResponseEventHandler(eventParam);
1121:.\Generated_Source\PSoC4/BLE_1_eventHandler.c ****     }
1122:.\Generated_Source\PSoC4/BLE_1_eventHandler.c **** #endif /* CYBLE_IPS_CLIENT */
1123:.\Generated_Source\PSoC4/BLE_1_eventHandler.c **** #ifdef CYBLE_LLS_CLIENT
1124:.\Generated_Source\PSoC4/BLE_1_eventHandler.c ****     if((cyBle_eventHandlerFlag & CYBLE_CALLBACK) != 0u)
1125:.\Generated_Source\PSoC4/BLE_1_eventHandler.c ****     {
1126:.\Generated_Source\PSoC4/BLE_1_eventHandler.c ****         CyBle_LlscReadResponseEventHandler(eventParam);
1127:.\Generated_Source\PSoC4/BLE_1_eventHandler.c ****     }
1128:.\Generated_Source\PSoC4/BLE_1_eventHandler.c **** #endif /* CYBLE_LLS_CLIENT */
1129:.\Generated_Source\PSoC4/BLE_1_eventHandler.c **** #ifdef CYBLE_LNS_CLIENT
1130:.\Generated_Source\PSoC4/BLE_1_eventHandler.c ****     if((cyBle_eventHandlerFlag & CYBLE_CALLBACK) != 0u)
1131:.\Generated_Source\PSoC4/BLE_1_eventHandler.c ****     {
1132:.\Generated_Source\PSoC4/BLE_1_eventHandler.c ****         CyBle_LnscReadResponseEventHandler(eventParam);
1133:.\Generated_Source\PSoC4/BLE_1_eventHandler.c ****     }
1134:.\Generated_Source\PSoC4/BLE_1_eventHandler.c **** #endif /* CYBLE_LNS_CLIENT */
1135:.\Generated_Source\PSoC4/BLE_1_eventHandler.c **** #ifdef CYBLE_NDCS_CLIENT
1136:.\Generated_Source\PSoC4/BLE_1_eventHandler.c ****     if((cyBle_eventHandlerFlag & CYBLE_CALLBACK) != 0u)
1137:.\Generated_Source\PSoC4/BLE_1_eventHandler.c ****     {
1138:.\Generated_Source\PSoC4/BLE_1_eventHandler.c ****         CyBle_NdcscReadResponseEventHandler(eventParam);
1139:.\Generated_Source\PSoC4/BLE_1_eventHandler.c ****     }
1140:.\Generated_Source\PSoC4/BLE_1_eventHandler.c **** #endif /* CYBLE_NDCS_CLIENT */
1141:.\Generated_Source\PSoC4/BLE_1_eventHandler.c **** #ifdef CYBLE_PASS_CLIENT
1142:.\Generated_Source\PSoC4/BLE_1_eventHandler.c ****     if((cyBle_eventHandlerFlag & CYBLE_CALLBACK) != 0u)
1143:.\Generated_Source\PSoC4/BLE_1_eventHandler.c ****     {
1144:.\Generated_Source\PSoC4/BLE_1_eventHandler.c ****         CyBle_PasscReadResponseEventHandler(eventParam);
1145:.\Generated_Source\PSoC4/BLE_1_eventHandler.c ****     }
1146:.\Generated_Source\PSoC4/BLE_1_eventHandler.c **** #endif /* CYBLE_PASS_CLIENT */
1147:.\Generated_Source\PSoC4/BLE_1_eventHandler.c **** #ifdef CYBLE_RSCS_CLIENT
1148:.\Generated_Source\PSoC4/BLE_1_eventHandler.c ****     if((cyBle_eventHandlerFlag & CYBLE_CALLBACK) != 0u)
1149:.\Generated_Source\PSoC4/BLE_1_eventHandler.c ****     {
1150:.\Generated_Source\PSoC4/BLE_1_eventHandler.c ****         CyBle_RscscReadResponseEventHandler(eventParam);
1151:.\Generated_Source\PSoC4/BLE_1_eventHandler.c ****     }
1152:.\Generated_Source\PSoC4/BLE_1_eventHandler.c **** #endif /* CYBLE_RSCS_CLIENT */
1153:.\Generated_Source\PSoC4/BLE_1_eventHandler.c **** #ifdef CYBLE_RTUS_CLIENT
1154:.\Generated_Source\PSoC4/BLE_1_eventHandler.c ****     if((cyBle_eventHandlerFlag & CYBLE_CALLBACK) != 0u)
1155:.\Generated_Source\PSoC4/BLE_1_eventHandler.c ****     {
1156:.\Generated_Source\PSoC4/BLE_1_eventHandler.c ****         CyBle_RtuscReadResponseEventHandler(eventParam);
1157:.\Generated_Source\PSoC4/BLE_1_eventHandler.c ****     }
1158:.\Generated_Source\PSoC4/BLE_1_eventHandler.c **** #endif /* CYBLE_RTUS_CLIENT */
1159:.\Generated_Source\PSoC4/BLE_1_eventHandler.c **** #ifdef CYBLE_SCPS_CLIENT
ARM GAS  C:\Users\Ecapable\AppData\Local\Temp\ccmAuCaF.s 			page 24


1160:.\Generated_Source\PSoC4/BLE_1_eventHandler.c ****     if((cyBle_eventHandlerFlag & CYBLE_CALLBACK) != 0u)
1161:.\Generated_Source\PSoC4/BLE_1_eventHandler.c ****     {
1162:.\Generated_Source\PSoC4/BLE_1_eventHandler.c ****         CyBle_ScpscReadResponseEventHandler(eventParam);
1163:.\Generated_Source\PSoC4/BLE_1_eventHandler.c ****     }
1164:.\Generated_Source\PSoC4/BLE_1_eventHandler.c **** #endif /* CYBLE_SCPS_CLIENT */
1165:.\Generated_Source\PSoC4/BLE_1_eventHandler.c **** #ifdef CYBLE_TPS_CLIENT
1166:.\Generated_Source\PSoC4/BLE_1_eventHandler.c ****     if((cyBle_eventHandlerFlag & CYBLE_CALLBACK) != 0u)
1167:.\Generated_Source\PSoC4/BLE_1_eventHandler.c ****     {
1168:.\Generated_Source\PSoC4/BLE_1_eventHandler.c ****         CyBle_TpscReadResponseEventHandler(eventParam);
1169:.\Generated_Source\PSoC4/BLE_1_eventHandler.c ****     }
1170:.\Generated_Source\PSoC4/BLE_1_eventHandler.c **** #endif /* CYBLE_TPS_CLIENT */
1171:.\Generated_Source\PSoC4/BLE_1_eventHandler.c **** #ifdef CYBLE_UDS_CLIENT
1172:.\Generated_Source\PSoC4/BLE_1_eventHandler.c ****     if((cyBle_eventHandlerFlag & CYBLE_CALLBACK) != 0u)
1173:.\Generated_Source\PSoC4/BLE_1_eventHandler.c ****     {
1174:.\Generated_Source\PSoC4/BLE_1_eventHandler.c ****         CyBle_UdscReadResponseEventHandler(eventParam);
1175:.\Generated_Source\PSoC4/BLE_1_eventHandler.c ****     }
1176:.\Generated_Source\PSoC4/BLE_1_eventHandler.c **** #endif /* CYBLE_UDS_CLIENT */
1177:.\Generated_Source\PSoC4/BLE_1_eventHandler.c **** #ifdef CYBLE_WPTS_CLIENT
1178:.\Generated_Source\PSoC4/BLE_1_eventHandler.c ****     if((cyBle_eventHandlerFlag & CYBLE_CALLBACK) != 0u)
1179:.\Generated_Source\PSoC4/BLE_1_eventHandler.c ****     {
1180:.\Generated_Source\PSoC4/BLE_1_eventHandler.c ****         CyBle_WptscReadResponseEventHandler(eventParam);
1181:.\Generated_Source\PSoC4/BLE_1_eventHandler.c ****     }
1182:.\Generated_Source\PSoC4/BLE_1_eventHandler.c **** #endif /* CYBLE_WPTS_CLIENT */
1183:.\Generated_Source\PSoC4/BLE_1_eventHandler.c **** #ifdef CYBLE_WSS_CLIENT
1184:.\Generated_Source\PSoC4/BLE_1_eventHandler.c ****     if((cyBle_eventHandlerFlag & CYBLE_CALLBACK) != 0u)
1185:.\Generated_Source\PSoC4/BLE_1_eventHandler.c ****     {
1186:.\Generated_Source\PSoC4/BLE_1_eventHandler.c ****         CyBle_WsscReadResponseEventHandler(eventParam);
1187:.\Generated_Source\PSoC4/BLE_1_eventHandler.c ****     }
1188:.\Generated_Source\PSoC4/BLE_1_eventHandler.c **** #endif /* CYBLE_WSS_CLIENT */
1189:.\Generated_Source\PSoC4/BLE_1_eventHandler.c **** }
1190:.\Generated_Source\PSoC4/BLE_1_eventHandler.c **** 
1191:.\Generated_Source\PSoC4/BLE_1_eventHandler.c **** /******************************************************************************    
1192:.\Generated_Source\PSoC4/BLE_1_eventHandler.c **** * Function Name: CyBle_ReadMultipleResponseEventHandler
1193:.\Generated_Source\PSoC4/BLE_1_eventHandler.c **** ***************************************************************************//**
1194:.\Generated_Source\PSoC4/BLE_1_eventHandler.c **** * 
1195:.\Generated_Source\PSoC4/BLE_1_eventHandler.c **** *  Handles the Read Multiple Response event from BLE stack.
1196:.\Generated_Source\PSoC4/BLE_1_eventHandler.c **** * 
1197:.\Generated_Source\PSoC4/BLE_1_eventHandler.c **** *  \param eventParam: event parameter
1198:.\Generated_Source\PSoC4/BLE_1_eventHandler.c **** * 
1199:.\Generated_Source\PSoC4/BLE_1_eventHandler.c **** * \return
1200:.\Generated_Source\PSoC4/BLE_1_eventHandler.c **** *  None
1201:.\Generated_Source\PSoC4/BLE_1_eventHandler.c **** * 
1202:.\Generated_Source\PSoC4/BLE_1_eventHandler.c **** ******************************************************************************/
1203:.\Generated_Source\PSoC4/BLE_1_eventHandler.c **** static void CyBle_ReadMultipleResponseEventHandler(CYBLE_GATTC_READ_RSP_PARAM_T *eventParam)
1204:.\Generated_Source\PSoC4/BLE_1_eventHandler.c **** {
1205:.\Generated_Source\PSoC4/BLE_1_eventHandler.c **** #ifdef CYBLE_CUSTOM_CLIENT
1206:.\Generated_Source\PSoC4/BLE_1_eventHandler.c ****     /* Read response with 128-bit included service uuid */
1207:.\Generated_Source\PSoC4/BLE_1_eventHandler.c ****     if((CYBLE_CLIENT_STATE_INCL_DISCOVERING == CyBle_GetClientState()) &&
1208:.\Generated_Source\PSoC4/BLE_1_eventHandler.c ****        (cyBle_discInclInfo.inclDefHandle != 0u))
1209:.\Generated_Source\PSoC4/BLE_1_eventHandler.c ****     {
1210:.\Generated_Source\PSoC4/BLE_1_eventHandler.c ****         CYBLE_DISC_SRVC128_INFO_T discServInfo;
1211:.\Generated_Source\PSoC4/BLE_1_eventHandler.c **** 
1212:.\Generated_Source\PSoC4/BLE_1_eventHandler.c ****         /* Store service range */
1213:.\Generated_Source\PSoC4/BLE_1_eventHandler.c ****         discServInfo.range = cyBle_discInclInfo.inclHandleRange;
1214:.\Generated_Source\PSoC4/BLE_1_eventHandler.c ****         (void)memcpy((void *) discServInfo.uuid.uuid128.value, (void *)eventParam->value.val, event
1215:.\Generated_Source\PSoC4/BLE_1_eventHandler.c ****         CyBle_CustomcDiscoverServiceEventHandler(&discServInfo);
1216:.\Generated_Source\PSoC4/BLE_1_eventHandler.c ****         
ARM GAS  C:\Users\Ecapable\AppData\Local\Temp\ccmAuCaF.s 			page 25


1217:.\Generated_Source\PSoC4/BLE_1_eventHandler.c ****         /* Re-initiate CyBle_GattcFindIncludedServices function, setting the start
1218:.\Generated_Source\PSoC4/BLE_1_eventHandler.c ****            handle to the attribute handle which is placed next to the one used in
1219:.\Generated_Source\PSoC4/BLE_1_eventHandler.c ****            the above step.
1220:.\Generated_Source\PSoC4/BLE_1_eventHandler.c ****         */
1221:.\Generated_Source\PSoC4/BLE_1_eventHandler.c ****         discServInfo.range.startHandle = cyBle_discInclInfo.inclDefHandle + 1;
1222:.\Generated_Source\PSoC4/BLE_1_eventHandler.c ****         discServInfo.range.endHandle = cyBle_serverInfo[cyBle_disCount].range.endHandle;
1223:.\Generated_Source\PSoC4/BLE_1_eventHandler.c ****         if(discServInfo.range.startHandle <= discServInfo.range.endHandle)
1224:.\Generated_Source\PSoC4/BLE_1_eventHandler.c ****         {
1225:.\Generated_Source\PSoC4/BLE_1_eventHandler.c ****             if(CYBLE_ERROR_OK != CyBle_GattcFindIncludedServices(cyBle_connHandle, &discServInfo.ra
1226:.\Generated_Source\PSoC4/BLE_1_eventHandler.c ****             {
1227:.\Generated_Source\PSoC4/BLE_1_eventHandler.c ****                 CyBle_ApplCallback(CYBLE_EVT_GATTC_INCL_DISCOVERY_FAILED, NULL);
1228:.\Generated_Source\PSoC4/BLE_1_eventHandler.c ****                 cyBle_eventHandlerFlag &= (uint8)~CYBLE_AUTO_DISCOVERY;
1229:.\Generated_Source\PSoC4/BLE_1_eventHandler.c ****             }
1230:.\Generated_Source\PSoC4/BLE_1_eventHandler.c ****         }
1231:.\Generated_Source\PSoC4/BLE_1_eventHandler.c ****         else /* Continue discovery of the following service */
1232:.\Generated_Source\PSoC4/BLE_1_eventHandler.c ****         {
1233:.\Generated_Source\PSoC4/BLE_1_eventHandler.c ****             CyBle_NextInclDiscovery(CYBLE_DISCOVERY_CONTINUE);
1234:.\Generated_Source\PSoC4/BLE_1_eventHandler.c ****         }
1235:.\Generated_Source\PSoC4/BLE_1_eventHandler.c ****         
1236:.\Generated_Source\PSoC4/BLE_1_eventHandler.c ****         cyBle_eventHandlerFlag &= (uint8)~CYBLE_CALLBACK;
1237:.\Generated_Source\PSoC4/BLE_1_eventHandler.c ****     #ifdef CYBLE_CUSTOM_CLIENT
1238:.\Generated_Source\PSoC4/BLE_1_eventHandler.c ****         cyBle_discInclInfo.inclDefHandle = 0u;
1239:.\Generated_Source\PSoC4/BLE_1_eventHandler.c ****     #endif /* CYBLE_CUSTOM_CLIENT */
1240:.\Generated_Source\PSoC4/BLE_1_eventHandler.c ****     }
1241:.\Generated_Source\PSoC4/BLE_1_eventHandler.c **** #endif /* CYBLE_CUSTOM_CLIENT */
1242:.\Generated_Source\PSoC4/BLE_1_eventHandler.c **** #ifdef CYBLE_IPS_CLIENT
1243:.\Generated_Source\PSoC4/BLE_1_eventHandler.c ****     if((cyBle_eventHandlerFlag & CYBLE_CALLBACK) != 0u)
1244:.\Generated_Source\PSoC4/BLE_1_eventHandler.c ****     {
1245:.\Generated_Source\PSoC4/BLE_1_eventHandler.c ****         CyBle_IpscReadMultipleResponseEventHandler(eventParam);
1246:.\Generated_Source\PSoC4/BLE_1_eventHandler.c ****     }
1247:.\Generated_Source\PSoC4/BLE_1_eventHandler.c **** #endif /* CYBLE_IPS_CLIENT */
1248:.\Generated_Source\PSoC4/BLE_1_eventHandler.c ****     /* MISRA 16.7 violavion workarround */
1249:.\Generated_Source\PSoC4/BLE_1_eventHandler.c ****     eventParam = eventParam;
1250:.\Generated_Source\PSoC4/BLE_1_eventHandler.c **** }
1251:.\Generated_Source\PSoC4/BLE_1_eventHandler.c **** #endif /* CYBLE_GATT_ROLE_CLIENT */
1252:.\Generated_Source\PSoC4/BLE_1_eventHandler.c **** 
1253:.\Generated_Source\PSoC4/BLE_1_eventHandler.c **** 
1254:.\Generated_Source\PSoC4/BLE_1_eventHandler.c **** /****************************************************************************** 
1255:.\Generated_Source\PSoC4/BLE_1_eventHandler.c **** * Function Name: CyBle_DisconnectEventHandler
1256:.\Generated_Source\PSoC4/BLE_1_eventHandler.c **** ***************************************************************************//**
1257:.\Generated_Source\PSoC4/BLE_1_eventHandler.c **** * 
1258:.\Generated_Source\PSoC4/BLE_1_eventHandler.c **** *  Handles the GATT Disconnection event from the BLE stack.
1259:.\Generated_Source\PSoC4/BLE_1_eventHandler.c **** * 
1260:.\Generated_Source\PSoC4/BLE_1_eventHandler.c **** * \return
1261:.\Generated_Source\PSoC4/BLE_1_eventHandler.c **** *  None
1262:.\Generated_Source\PSoC4/BLE_1_eventHandler.c **** * 
1263:.\Generated_Source\PSoC4/BLE_1_eventHandler.c **** ******************************************************************************/
1264:.\Generated_Source\PSoC4/BLE_1_eventHandler.c **** static void CyBle_GattDisconnectEventHandler(void)
1265:.\Generated_Source\PSoC4/BLE_1_eventHandler.c **** {
 153              		.loc 1 1265 0
 154              		.cfi_startproc
 155 0000 80B5     		push	{r7, lr}
 156              		.cfi_def_cfa_offset 8
 157              		.cfi_offset 7, -8
 158              		.cfi_offset 14, -4
 159 0002 00AF     		add	r7, sp, #0
 160              		.cfi_def_cfa_register 7
ARM GAS  C:\Users\Ecapable\AppData\Local\Temp\ccmAuCaF.s 			page 26


1266:.\Generated_Source\PSoC4/BLE_1_eventHandler.c ****     cyBle_connHandle.attId = 0u;
 161              		.loc 1 1266 0
 162 0004 034B     		ldr	r3, .L8
 163 0006 0022     		mov	r2, #0
 164 0008 5A70     		strb	r2, [r3, #1]
1267:.\Generated_Source\PSoC4/BLE_1_eventHandler.c ****     cyBle_connHandle.bdHandle = 0u;
 165              		.loc 1 1267 0
 166 000a 024B     		ldr	r3, .L8
 167 000c 0022     		mov	r2, #0
 168 000e 1A70     		strb	r2, [r3]
1268:.\Generated_Source\PSoC4/BLE_1_eventHandler.c ****     
1269:.\Generated_Source\PSoC4/BLE_1_eventHandler.c ****     #if (CYBLE_GATT_ROLE_CLIENT)
1270:.\Generated_Source\PSoC4/BLE_1_eventHandler.c ****         if(CYBLE_CLIENT_STATE_DISCOVERED == CyBle_GetClientState())
1271:.\Generated_Source\PSoC4/BLE_1_eventHandler.c ****         {
1272:.\Generated_Source\PSoC4/BLE_1_eventHandler.c ****             CyBle_SetClientState(CYBLE_CLIENT_STATE_DISCONNECTED_DISCOVERED);
1273:.\Generated_Source\PSoC4/BLE_1_eventHandler.c ****         }
1274:.\Generated_Source\PSoC4/BLE_1_eventHandler.c ****         else
1275:.\Generated_Source\PSoC4/BLE_1_eventHandler.c ****         {
1276:.\Generated_Source\PSoC4/BLE_1_eventHandler.c ****             CyBle_SetClientState(CYBLE_CLIENT_STATE_DISCONNECTED);
1277:.\Generated_Source\PSoC4/BLE_1_eventHandler.c ****         }
1278:.\Generated_Source\PSoC4/BLE_1_eventHandler.c ****     #endif /* CYBLE_GATT_ROLE_CLIENT */
1279:.\Generated_Source\PSoC4/BLE_1_eventHandler.c ****         
1280:.\Generated_Source\PSoC4/BLE_1_eventHandler.c ****     #ifdef CYBLE_CPS_SERVER
1281:.\Generated_Source\PSoC4/BLE_1_eventHandler.c ****         #if CYBLE_GAP_ROLE_BROADCASTER
1282:.\Generated_Source\PSoC4/BLE_1_eventHandler.c ****             CyBle_CpssDisconnectEventHandler();
1283:.\Generated_Source\PSoC4/BLE_1_eventHandler.c ****         #endif /* CYBLE_GAP_ROLE_BROADCASTER */
1284:.\Generated_Source\PSoC4/BLE_1_eventHandler.c ****     #endif /* CYBLE_CPS_SERVER */
1285:.\Generated_Source\PSoC4/BLE_1_eventHandler.c **** 
1286:.\Generated_Source\PSoC4/BLE_1_eventHandler.c ****     #ifdef CYBLE_CPS_CLIENT
1287:.\Generated_Source\PSoC4/BLE_1_eventHandler.c ****         CyBle_CpscDisconnectEventHandler();
1288:.\Generated_Source\PSoC4/BLE_1_eventHandler.c ****     #endif /* CYBLE_CPS_CLIENT */
1289:.\Generated_Source\PSoC4/BLE_1_eventHandler.c **** 
1290:.\Generated_Source\PSoC4/BLE_1_eventHandler.c ****     #ifdef CYBLE_IAS_SERVER
1291:.\Generated_Source\PSoC4/BLE_1_eventHandler.c ****         CyBle_IassDisconnectEventHandler();
1292:.\Generated_Source\PSoC4/BLE_1_eventHandler.c ****     #endif /* CYBLE_IAS_SERVER */
1293:.\Generated_Source\PSoC4/BLE_1_eventHandler.c ****     
1294:.\Generated_Source\PSoC4/BLE_1_eventHandler.c ****     #ifdef CYBLE_GLS_SERVER
1295:.\Generated_Source\PSoC4/BLE_1_eventHandler.c ****         CyBle_GlsInit();
1296:.\Generated_Source\PSoC4/BLE_1_eventHandler.c ****     #endif /* CYBLE_GLS_SERVER */
1297:.\Generated_Source\PSoC4/BLE_1_eventHandler.c ****     
1298:.\Generated_Source\PSoC4/BLE_1_eventHandler.c ****     #ifdef CYBLE_LNS_SERVER
1299:.\Generated_Source\PSoC4/BLE_1_eventHandler.c ****         CyBle_LnsInit();
1300:.\Generated_Source\PSoC4/BLE_1_eventHandler.c ****     #endif /* CYBLE_LNS_SERVER */
1301:.\Generated_Source\PSoC4/BLE_1_eventHandler.c ****     
1302:.\Generated_Source\PSoC4/BLE_1_eventHandler.c ****     #ifdef CYBLE_UDS_SERVER
1303:.\Generated_Source\PSoC4/BLE_1_eventHandler.c ****         CyBle_UdsInit();
1304:.\Generated_Source\PSoC4/BLE_1_eventHandler.c ****     #endif /* CYBLE_UDS_SERVER */
1305:.\Generated_Source\PSoC4/BLE_1_eventHandler.c **** }
 169              		.loc 1 1305 0
 170 0010 BD46     		mov	sp, r7
 171              		@ sp needed
 172 0012 80BD     		pop	{r7, pc}
 173              	.L9:
 174              		.align	2
 175              	.L8:
 176 0014 00000000 		.word	cyBle_connHandle
 177              		.cfi_endproc
ARM GAS  C:\Users\Ecapable\AppData\Local\Temp\ccmAuCaF.s 			page 27


 178              	.LFE4:
 179              		.size	CyBle_GattDisconnectEventHandler, .-CyBle_GattDisconnectEventHandler
 180              		.section	.text.CyBle_TimeOutEventHandler,"ax",%progbits
 181              		.align	2
 182              		.code	16
 183              		.thumb_func
 184              		.type	CyBle_TimeOutEventHandler, %function
 185              	CyBle_TimeOutEventHandler:
 186              	.LFB5:
1306:.\Generated_Source\PSoC4/BLE_1_eventHandler.c **** 
1307:.\Generated_Source\PSoC4/BLE_1_eventHandler.c **** 
1308:.\Generated_Source\PSoC4/BLE_1_eventHandler.c **** /****************************************************************************** 
1309:.\Generated_Source\PSoC4/BLE_1_eventHandler.c **** * Function Name: CyBle_TimeOutEventHandler
1310:.\Generated_Source\PSoC4/BLE_1_eventHandler.c **** ***************************************************************************//**
1311:.\Generated_Source\PSoC4/BLE_1_eventHandler.c **** * 
1312:.\Generated_Source\PSoC4/BLE_1_eventHandler.c **** *  Handles the CYBLE_EVT_TIMEOUT event from the BLE stack.
1313:.\Generated_Source\PSoC4/BLE_1_eventHandler.c **** * 
1314:.\Generated_Source\PSoC4/BLE_1_eventHandler.c **** *  \param eventParam: The pointer to a structure of type CYBLE_TO_REASON_CODE_T.
1315:.\Generated_Source\PSoC4/BLE_1_eventHandler.c **** * 
1316:.\Generated_Source\PSoC4/BLE_1_eventHandler.c **** * \return
1317:.\Generated_Source\PSoC4/BLE_1_eventHandler.c **** *  None
1318:.\Generated_Source\PSoC4/BLE_1_eventHandler.c **** * 
1319:.\Generated_Source\PSoC4/BLE_1_eventHandler.c **** ******************************************************************************/
1320:.\Generated_Source\PSoC4/BLE_1_eventHandler.c **** static void CyBle_TimeOutEventHandler(const CYBLE_TO_REASON_CODE_T *eventParam)
1321:.\Generated_Source\PSoC4/BLE_1_eventHandler.c **** {
 187              		.loc 1 1321 0
 188              		.cfi_startproc
 189 0000 80B5     		push	{r7, lr}
 190              		.cfi_def_cfa_offset 8
 191              		.cfi_offset 7, -8
 192              		.cfi_offset 14, -4
 193 0002 82B0     		sub	sp, sp, #8
 194              		.cfi_def_cfa_offset 16
 195 0004 00AF     		add	r7, sp, #0
 196              		.cfi_def_cfa_register 7
 197 0006 7860     		str	r0, [r7, #4]
1322:.\Generated_Source\PSoC4/BLE_1_eventHandler.c ****     if(*eventParam == CYBLE_GATT_RSP_TO)
1323:.\Generated_Source\PSoC4/BLE_1_eventHandler.c ****     {
1324:.\Generated_Source\PSoC4/BLE_1_eventHandler.c ****     #if (CYBLE_GATT_ROLE_CLIENT)
1325:.\Generated_Source\PSoC4/BLE_1_eventHandler.c ****         if((cyBle_eventHandlerFlag & CYBLE_AUTO_DISCOVERY) != 0u)
1326:.\Generated_Source\PSoC4/BLE_1_eventHandler.c ****         {
1327:.\Generated_Source\PSoC4/BLE_1_eventHandler.c ****             switch(CyBle_GetClientState())
1328:.\Generated_Source\PSoC4/BLE_1_eventHandler.c ****             {
1329:.\Generated_Source\PSoC4/BLE_1_eventHandler.c ****                 case CYBLE_CLIENT_STATE_SRVC_DISCOVERING:
1330:.\Generated_Source\PSoC4/BLE_1_eventHandler.c ****                     CyBle_ApplCallback(CYBLE_EVT_GATTC_SRVC_DISCOVERY_FAILED, NULL);
1331:.\Generated_Source\PSoC4/BLE_1_eventHandler.c ****                     break;
1332:.\Generated_Source\PSoC4/BLE_1_eventHandler.c ****                 case CYBLE_CLIENT_STATE_INCL_DISCOVERING:
1333:.\Generated_Source\PSoC4/BLE_1_eventHandler.c ****                     CyBle_ApplCallback(CYBLE_EVT_GATTC_INCL_DISCOVERY_FAILED, NULL);
1334:.\Generated_Source\PSoC4/BLE_1_eventHandler.c ****                     break;
1335:.\Generated_Source\PSoC4/BLE_1_eventHandler.c ****                 case CYBLE_CLIENT_STATE_CHAR_DISCOVERING:
1336:.\Generated_Source\PSoC4/BLE_1_eventHandler.c ****                     CyBle_ApplCallback(CYBLE_EVT_GATTC_CHAR_DISCOVERY_FAILED, NULL);
1337:.\Generated_Source\PSoC4/BLE_1_eventHandler.c ****                     break;
1338:.\Generated_Source\PSoC4/BLE_1_eventHandler.c ****                 case CYBLE_CLIENT_STATE_DESCR_DISCOVERING:
1339:.\Generated_Source\PSoC4/BLE_1_eventHandler.c ****                     CyBle_ApplCallback(CYBLE_EVT_GATTC_DESCR_DISCOVERY_FAILED, NULL);
1340:.\Generated_Source\PSoC4/BLE_1_eventHandler.c ****                     break;
1341:.\Generated_Source\PSoC4/BLE_1_eventHandler.c ****                 default:        /* Other states should not be set in Auto discovery mode */
1342:.\Generated_Source\PSoC4/BLE_1_eventHandler.c ****                     break;
ARM GAS  C:\Users\Ecapable\AppData\Local\Temp\ccmAuCaF.s 			page 28


1343:.\Generated_Source\PSoC4/BLE_1_eventHandler.c ****             }
1344:.\Generated_Source\PSoC4/BLE_1_eventHandler.c ****             cyBle_eventHandlerFlag &= (uint8)~CYBLE_AUTO_DISCOVERY;
1345:.\Generated_Source\PSoC4/BLE_1_eventHandler.c ****             CyBle_SetClientState(CYBLE_CLIENT_STATE_CONNECTED);
1346:.\Generated_Source\PSoC4/BLE_1_eventHandler.c ****         }
1347:.\Generated_Source\PSoC4/BLE_1_eventHandler.c ****     #endif /* CYBLE_GATT_ROLE_CLIENT */
1348:.\Generated_Source\PSoC4/BLE_1_eventHandler.c ****     #ifdef CYBLE_CPS_SERVER
1349:.\Generated_Source\PSoC4/BLE_1_eventHandler.c ****         CyBle_CpssTimeOutEventHandler();
1350:.\Generated_Source\PSoC4/BLE_1_eventHandler.c ****     #endif /* CYBLE_CPS_SERVER */
1351:.\Generated_Source\PSoC4/BLE_1_eventHandler.c ****     }
1352:.\Generated_Source\PSoC4/BLE_1_eventHandler.c ****     
1353:.\Generated_Source\PSoC4/BLE_1_eventHandler.c ****     /* Connection procedure timeout */
1354:.\Generated_Source\PSoC4/BLE_1_eventHandler.c ****     if(*eventParam == CYBLE_GENERIC_TO)
1355:.\Generated_Source\PSoC4/BLE_1_eventHandler.c ****     {
1356:.\Generated_Source\PSoC4/BLE_1_eventHandler.c ****     #if(CYBLE_GAP_ROLE_CENTRAL)
1357:.\Generated_Source\PSoC4/BLE_1_eventHandler.c ****         if(CYBLE_STATE_CONNECTING == CyBle_GetState())
1358:.\Generated_Source\PSoC4/BLE_1_eventHandler.c ****         {
1359:.\Generated_Source\PSoC4/BLE_1_eventHandler.c ****             (void)CyBle_GapcCancelDeviceConnection();
1360:.\Generated_Source\PSoC4/BLE_1_eventHandler.c ****         }
1361:.\Generated_Source\PSoC4/BLE_1_eventHandler.c ****     #endif /* CYBLE_GAP_ROLE_CENTRAL */
1362:.\Generated_Source\PSoC4/BLE_1_eventHandler.c ****     }
1363:.\Generated_Source\PSoC4/BLE_1_eventHandler.c **** }
 198              		.loc 1 1363 0
 199 0008 BD46     		mov	sp, r7
 200 000a 02B0     		add	sp, sp, #8
 201              		@ sp needed
 202 000c 80BD     		pop	{r7, pc}
 203              		.cfi_endproc
 204              	.LFE5:
 205              		.size	CyBle_TimeOutEventHandler, .-CyBle_TimeOutEventHandler
 206              		.section	.text.CyBle_GattConnectReqHandler,"ax",%progbits
 207              		.align	2
 208              		.code	16
 209              		.thumb_func
 210              		.type	CyBle_GattConnectReqHandler, %function
 211              	CyBle_GattConnectReqHandler:
 212              	.LFB6:
1364:.\Generated_Source\PSoC4/BLE_1_eventHandler.c **** 
1365:.\Generated_Source\PSoC4/BLE_1_eventHandler.c **** 
1366:.\Generated_Source\PSoC4/BLE_1_eventHandler.c **** /****************************************************************************** 
1367:.\Generated_Source\PSoC4/BLE_1_eventHandler.c **** * Function Name: CyBle_GattConnectReqHandler
1368:.\Generated_Source\PSoC4/BLE_1_eventHandler.c **** ***************************************************************************//**
1369:.\Generated_Source\PSoC4/BLE_1_eventHandler.c **** * 
1370:.\Generated_Source\PSoC4/BLE_1_eventHandler.c **** *  Handles the GATT connect event from the BLE stack.
1371:.\Generated_Source\PSoC4/BLE_1_eventHandler.c **** * 
1372:.\Generated_Source\PSoC4/BLE_1_eventHandler.c **** * \return
1373:.\Generated_Source\PSoC4/BLE_1_eventHandler.c **** *  None
1374:.\Generated_Source\PSoC4/BLE_1_eventHandler.c **** * 
1375:.\Generated_Source\PSoC4/BLE_1_eventHandler.c **** ******************************************************************************/
1376:.\Generated_Source\PSoC4/BLE_1_eventHandler.c **** static void CyBle_GattConnectReqHandler(void)
1377:.\Generated_Source\PSoC4/BLE_1_eventHandler.c **** {
 213              		.loc 1 1377 0
 214              		.cfi_startproc
 215 0000 80B5     		push	{r7, lr}
 216              		.cfi_def_cfa_offset 8
 217              		.cfi_offset 7, -8
 218              		.cfi_offset 14, -4
 219 0002 00AF     		add	r7, sp, #0
ARM GAS  C:\Users\Ecapable\AppData\Local\Temp\ccmAuCaF.s 			page 29


 220              		.cfi_def_cfa_register 7
1378:.\Generated_Source\PSoC4/BLE_1_eventHandler.c ****     #ifdef CYBLE_CGMS_SERVER
1379:.\Generated_Source\PSoC4/BLE_1_eventHandler.c ****         CyBle_CgmsInit();
1380:.\Generated_Source\PSoC4/BLE_1_eventHandler.c ****     #endif /* CYBLE_CGMS_SERVER */
1381:.\Generated_Source\PSoC4/BLE_1_eventHandler.c ****     
1382:.\Generated_Source\PSoC4/BLE_1_eventHandler.c ****     #ifdef CYBLE_CPS_SERVER
1383:.\Generated_Source\PSoC4/BLE_1_eventHandler.c ****         CyBle_CpssConnectEventHandler();
1384:.\Generated_Source\PSoC4/BLE_1_eventHandler.c ****     #endif /* CYBLE_CPS_SERVER */
1385:.\Generated_Source\PSoC4/BLE_1_eventHandler.c ****     
1386:.\Generated_Source\PSoC4/BLE_1_eventHandler.c ****     #ifdef CYBLE_CSCS_SERVER
1387:.\Generated_Source\PSoC4/BLE_1_eventHandler.c ****             CyBle_CscsInit();
1388:.\Generated_Source\PSoC4/BLE_1_eventHandler.c ****     #endif /* CYBLE_CSCS_SERVER */
1389:.\Generated_Source\PSoC4/BLE_1_eventHandler.c ****     
1390:.\Generated_Source\PSoC4/BLE_1_eventHandler.c ****     #ifdef CYBLE_LLS_SERVER
1391:.\Generated_Source\PSoC4/BLE_1_eventHandler.c ****         CyBle_LlssConnectEventHandler();
1392:.\Generated_Source\PSoC4/BLE_1_eventHandler.c ****     #endif /* CYBLE_LLS_SERVER */
1393:.\Generated_Source\PSoC4/BLE_1_eventHandler.c ****     
1394:.\Generated_Source\PSoC4/BLE_1_eventHandler.c ****     #ifdef CYBLE_HIDS_SERVER
1395:.\Generated_Source\PSoC4/BLE_1_eventHandler.c ****         CyBle_HidssOnDeviceConnected();
1396:.\Generated_Source\PSoC4/BLE_1_eventHandler.c ****     #endif /* CYBLE_HIDS_SERVER */
1397:.\Generated_Source\PSoC4/BLE_1_eventHandler.c **** 
1398:.\Generated_Source\PSoC4/BLE_1_eventHandler.c ****     #ifdef CYBLE_RSCS_SERVER
1399:.\Generated_Source\PSoC4/BLE_1_eventHandler.c ****         CyBle_RscsInit();
1400:.\Generated_Source\PSoC4/BLE_1_eventHandler.c ****     #endif /* CYBLE_RSCS_SERVER */
1401:.\Generated_Source\PSoC4/BLE_1_eventHandler.c **** }
 221              		.loc 1 1401 0
 222 0004 BD46     		mov	sp, r7
 223              		@ sp needed
 224 0006 80BD     		pop	{r7, pc}
 225              		.cfi_endproc
 226              	.LFE6:
 227              		.size	CyBle_GattConnectReqHandler, .-CyBle_GattConnectReqHandler
 228              		.section	.text.CyBle_IsDeviceAddressValid,"ax",%progbits
 229              		.align	2
 230              		.global	CyBle_IsDeviceAddressValid
 231              		.code	16
 232              		.thumb_func
 233              		.type	CyBle_IsDeviceAddressValid, %function
 234              	CyBle_IsDeviceAddressValid:
 235              	.LFB7:
1402:.\Generated_Source\PSoC4/BLE_1_eventHandler.c **** 
1403:.\Generated_Source\PSoC4/BLE_1_eventHandler.c **** 
1404:.\Generated_Source\PSoC4/BLE_1_eventHandler.c **** #if (CYBLE_GATT_ROLE_SERVER || CYBLE_GATT_ROLE_CLIENT)
1405:.\Generated_Source\PSoC4/BLE_1_eventHandler.c **** 
1406:.\Generated_Source\PSoC4/BLE_1_eventHandler.c **** /****************************************************************************** 
1407:.\Generated_Source\PSoC4/BLE_1_eventHandler.c **** * Function Name: CyBle_IsDeviceAddressValid
1408:.\Generated_Source\PSoC4/BLE_1_eventHandler.c **** ***************************************************************************//**
1409:.\Generated_Source\PSoC4/BLE_1_eventHandler.c **** * 
1410:.\Generated_Source\PSoC4/BLE_1_eventHandler.c **** *  This function verifies that BLE public address has been programmed to SFLASH 
1411:.\Generated_Source\PSoC4/BLE_1_eventHandler.c **** *  during manufacture. It could be used to verify if public device address is 
1412:.\Generated_Source\PSoC4/BLE_1_eventHandler.c **** *  programmed to flash memory.
1413:.\Generated_Source\PSoC4/BLE_1_eventHandler.c **** * 
1414:.\Generated_Source\PSoC4/BLE_1_eventHandler.c **** *  \param deviceAddress: the pointer to the BD address of type CYBLE_GAP_BD_ADDR_T. 
1415:.\Generated_Source\PSoC4/BLE_1_eventHandler.c **** * 
1416:.\Generated_Source\PSoC4/BLE_1_eventHandler.c **** * \return
1417:.\Generated_Source\PSoC4/BLE_1_eventHandler.c **** *  Non zero value when a device address differs from the default SFLASH content.
1418:.\Generated_Source\PSoC4/BLE_1_eventHandler.c **** * 
ARM GAS  C:\Users\Ecapable\AppData\Local\Temp\ccmAuCaF.s 			page 30


1419:.\Generated_Source\PSoC4/BLE_1_eventHandler.c **** ******************************************************************************/
1420:.\Generated_Source\PSoC4/BLE_1_eventHandler.c **** uint8 CyBle_IsDeviceAddressValid(const CYBLE_GAP_BD_ADDR_T *deviceAddress)
1421:.\Generated_Source\PSoC4/BLE_1_eventHandler.c **** {
 236              		.loc 1 1421 0
 237              		.cfi_startproc
 238 0000 80B5     		push	{r7, lr}
 239              		.cfi_def_cfa_offset 8
 240              		.cfi_offset 7, -8
 241              		.cfi_offset 14, -4
 242 0002 84B0     		sub	sp, sp, #16
 243              		.cfi_def_cfa_offset 24
 244 0004 00AF     		add	r7, sp, #0
 245              		.cfi_def_cfa_register 7
 246 0006 7860     		str	r0, [r7, #4]
1422:.\Generated_Source\PSoC4/BLE_1_eventHandler.c ****     uint8 i;
1423:.\Generated_Source\PSoC4/BLE_1_eventHandler.c ****     uint8 addressValid = 0u;
 247              		.loc 1 1423 0
 248 0008 0E23     		mov	r3, #14
 249 000a FB18     		add	r3, r7, r3
 250 000c 0022     		mov	r2, #0
 251 000e 1A70     		strb	r2, [r3]
1424:.\Generated_Source\PSoC4/BLE_1_eventHandler.c ****     
1425:.\Generated_Source\PSoC4/BLE_1_eventHandler.c ****     if(deviceAddress -> type == CYBLE_GAP_ADDR_TYPE_PUBLIC)  
 252              		.loc 1 1425 0
 253 0010 7B68     		ldr	r3, [r7, #4]
 254 0012 9B79     		ldrb	r3, [r3, #6]
 255 0014 002B     		cmp	r3, #0
 256 0016 1CD1     		bne	.L13
1426:.\Generated_Source\PSoC4/BLE_1_eventHandler.c ****     {
1427:.\Generated_Source\PSoC4/BLE_1_eventHandler.c ****         for(i = 0u; i < CYBLE_GAP_BD_ADDR_SIZE; i++)
 257              		.loc 1 1427 0
 258 0018 0F23     		mov	r3, #15
 259 001a FB18     		add	r3, r7, r3
 260 001c 0022     		mov	r2, #0
 261 001e 1A70     		strb	r2, [r3]
 262 0020 12E0     		b	.L14
 263              	.L16:
1428:.\Generated_Source\PSoC4/BLE_1_eventHandler.c ****         {
1429:.\Generated_Source\PSoC4/BLE_1_eventHandler.c ****             if(deviceAddress->bdAddr[i] != 0u)
 264              		.loc 1 1429 0
 265 0022 0F23     		mov	r3, #15
 266 0024 FB18     		add	r3, r7, r3
 267 0026 1B78     		ldrb	r3, [r3]
 268 0028 7A68     		ldr	r2, [r7, #4]
 269 002a D35C     		ldrb	r3, [r2, r3]
 270 002c 002B     		cmp	r3, #0
 271 002e 04D0     		beq	.L15
1430:.\Generated_Source\PSoC4/BLE_1_eventHandler.c ****             {
1431:.\Generated_Source\PSoC4/BLE_1_eventHandler.c ****                 addressValid = 1u;
 272              		.loc 1 1431 0
 273 0030 0E23     		mov	r3, #14
 274 0032 FB18     		add	r3, r7, r3
 275 0034 0122     		mov	r2, #1
 276 0036 1A70     		strb	r2, [r3]
1432:.\Generated_Source\PSoC4/BLE_1_eventHandler.c ****                 break;
 277              		.loc 1 1432 0
 278 0038 0BE0     		b	.L13
ARM GAS  C:\Users\Ecapable\AppData\Local\Temp\ccmAuCaF.s 			page 31


 279              	.L15:
1427:.\Generated_Source\PSoC4/BLE_1_eventHandler.c ****         {
 280              		.loc 1 1427 0 discriminator 2
 281 003a 0F23     		mov	r3, #15
 282 003c FB18     		add	r3, r7, r3
 283 003e 1A78     		ldrb	r2, [r3]
 284 0040 0F23     		mov	r3, #15
 285 0042 FB18     		add	r3, r7, r3
 286 0044 0132     		add	r2, r2, #1
 287 0046 1A70     		strb	r2, [r3]
 288              	.L14:
1427:.\Generated_Source\PSoC4/BLE_1_eventHandler.c ****         {
 289              		.loc 1 1427 0 is_stmt 0 discriminator 1
 290 0048 0F23     		mov	r3, #15
 291 004a FB18     		add	r3, r7, r3
 292 004c 1B78     		ldrb	r3, [r3]
 293 004e 052B     		cmp	r3, #5
 294 0050 E7D9     		bls	.L16
 295              	.L13:
1433:.\Generated_Source\PSoC4/BLE_1_eventHandler.c ****             }
1434:.\Generated_Source\PSoC4/BLE_1_eventHandler.c ****         }
1435:.\Generated_Source\PSoC4/BLE_1_eventHandler.c ****     }
1436:.\Generated_Source\PSoC4/BLE_1_eventHandler.c ****     return (addressValid);
 296              		.loc 1 1436 0 is_stmt 1
 297 0052 0E23     		mov	r3, #14
 298 0054 FB18     		add	r3, r7, r3
 299 0056 1B78     		ldrb	r3, [r3]
1437:.\Generated_Source\PSoC4/BLE_1_eventHandler.c **** }
 300              		.loc 1 1437 0
 301 0058 181C     		mov	r0, r3
 302 005a BD46     		mov	sp, r7
 303 005c 04B0     		add	sp, sp, #16
 304              		@ sp needed
 305 005e 80BD     		pop	{r7, pc}
 306              		.cfi_endproc
 307              	.LFE7:
 308              		.size	CyBle_IsDeviceAddressValid, .-CyBle_IsDeviceAddressValid
 309              		.section	.text.CyBle_L2Cap_ConnParamUpdateRspEventHandler,"ax",%progbits
 310              		.align	2
 311              		.code	16
 312              		.thumb_func
 313              		.type	CyBle_L2Cap_ConnParamUpdateRspEventHandler, %function
 314              	CyBle_L2Cap_ConnParamUpdateRspEventHandler:
 315              	.LFB8:
1438:.\Generated_Source\PSoC4/BLE_1_eventHandler.c **** #endif /* CYBLE_GATT_ROLE_SERVER || CYBLE_GATT_ROLE_CLIENT */
1439:.\Generated_Source\PSoC4/BLE_1_eventHandler.c **** 
1440:.\Generated_Source\PSoC4/BLE_1_eventHandler.c **** 
1441:.\Generated_Source\PSoC4/BLE_1_eventHandler.c **** /****************************************************************************** 
1442:.\Generated_Source\PSoC4/BLE_1_eventHandler.c **** * Function Name: CyBle_L2Cap_ConnParamUpdateRspHandler
1443:.\Generated_Source\PSoC4/BLE_1_eventHandler.c **** ***************************************************************************//**
1444:.\Generated_Source\PSoC4/BLE_1_eventHandler.c **** * 
1445:.\Generated_Source\PSoC4/BLE_1_eventHandler.c **** *  Handles the L2CAP connection parameter response event from
1446:.\Generated_Source\PSoC4/BLE_1_eventHandler.c **** *  the BLE stack.
1447:.\Generated_Source\PSoC4/BLE_1_eventHandler.c **** * 
1448:.\Generated_Source\PSoC4/BLE_1_eventHandler.c **** *  \param response:
1449:.\Generated_Source\PSoC4/BLE_1_eventHandler.c **** *      * Accepted = 0x0000
1450:.\Generated_Source\PSoC4/BLE_1_eventHandler.c **** *      * Rejected = 0x0001
ARM GAS  C:\Users\Ecapable\AppData\Local\Temp\ccmAuCaF.s 			page 32


1451:.\Generated_Source\PSoC4/BLE_1_eventHandler.c **** * 
1452:.\Generated_Source\PSoC4/BLE_1_eventHandler.c **** * \return
1453:.\Generated_Source\PSoC4/BLE_1_eventHandler.c **** *  None
1454:.\Generated_Source\PSoC4/BLE_1_eventHandler.c **** * 
1455:.\Generated_Source\PSoC4/BLE_1_eventHandler.c **** ******************************************************************************/
1456:.\Generated_Source\PSoC4/BLE_1_eventHandler.c **** static void CyBle_L2Cap_ConnParamUpdateRspEventHandler(uint16 response)
1457:.\Generated_Source\PSoC4/BLE_1_eventHandler.c **** {
 316              		.loc 1 1457 0
 317              		.cfi_startproc
 318 0000 80B5     		push	{r7, lr}
 319              		.cfi_def_cfa_offset 8
 320              		.cfi_offset 7, -8
 321              		.cfi_offset 14, -4
 322 0002 82B0     		sub	sp, sp, #8
 323              		.cfi_def_cfa_offset 16
 324 0004 00AF     		add	r7, sp, #0
 325              		.cfi_def_cfa_register 7
 326 0006 021C     		mov	r2, r0
 327 0008 BB1D     		add	r3, r7, #6
 328 000a 1A80     		strh	r2, [r3]
1458:.\Generated_Source\PSoC4/BLE_1_eventHandler.c ****     #ifdef CYBLE_CPS_SERVER
1459:.\Generated_Source\PSoC4/BLE_1_eventHandler.c ****         CyBle_CpssConnParamUpdateRspEventHandler(response);
1460:.\Generated_Source\PSoC4/BLE_1_eventHandler.c ****     #endif /* CYBLE_CPS_SERVER */
1461:.\Generated_Source\PSoC4/BLE_1_eventHandler.c ****     
1462:.\Generated_Source\PSoC4/BLE_1_eventHandler.c ****     /* Unreferenced variable warning workaround */
1463:.\Generated_Source\PSoC4/BLE_1_eventHandler.c ****     if(response != 0u)
1464:.\Generated_Source\PSoC4/BLE_1_eventHandler.c ****     {
1465:.\Generated_Source\PSoC4/BLE_1_eventHandler.c ****     }
1466:.\Generated_Source\PSoC4/BLE_1_eventHandler.c **** }
 329              		.loc 1 1466 0
 330 000c BD46     		mov	sp, r7
 331 000e 02B0     		add	sp, sp, #8
 332              		@ sp needed
 333 0010 80BD     		pop	{r7, pc}
 334              		.cfi_endproc
 335              	.LFE8:
 336              		.size	CyBle_L2Cap_ConnParamUpdateRspEventHandler, .-CyBle_L2Cap_ConnParamUpdateRspEventHandler
 337 0012 C046     		.section	.text.CyBle_GapConnUpdateCompleteEventHandler,"ax",%progbits
 338              		.align	2
 339              		.code	16
 340              		.thumb_func
 341              		.type	CyBle_GapConnUpdateCompleteEventHandler, %function
 342              	CyBle_GapConnUpdateCompleteEventHandler:
 343              	.LFB9:
1467:.\Generated_Source\PSoC4/BLE_1_eventHandler.c **** 
1468:.\Generated_Source\PSoC4/BLE_1_eventHandler.c **** 
1469:.\Generated_Source\PSoC4/BLE_1_eventHandler.c **** /****************************************************************************** 
1470:.\Generated_Source\PSoC4/BLE_1_eventHandler.c **** * Function Name: CyBle_GapConnUpdateCompleteEventHandler
1471:.\Generated_Source\PSoC4/BLE_1_eventHandler.c **** ***************************************************************************//**
1472:.\Generated_Source\PSoC4/BLE_1_eventHandler.c **** * 
1473:.\Generated_Source\PSoC4/BLE_1_eventHandler.c **** *  Handles the CYBLE_EVT_GAP_CONNECTION_UPDATE_COMPLETE event from
1474:.\Generated_Source\PSoC4/BLE_1_eventHandler.c **** *  the BLE stack.
1475:.\Generated_Source\PSoC4/BLE_1_eventHandler.c **** * 
1476:.\Generated_Source\PSoC4/BLE_1_eventHandler.c **** *  \param eventParam: The pointer to the data structure specified by the event.
1477:.\Generated_Source\PSoC4/BLE_1_eventHandler.c **** * 
1478:.\Generated_Source\PSoC4/BLE_1_eventHandler.c **** * \return
1479:.\Generated_Source\PSoC4/BLE_1_eventHandler.c **** *  None
ARM GAS  C:\Users\Ecapable\AppData\Local\Temp\ccmAuCaF.s 			page 33


1480:.\Generated_Source\PSoC4/BLE_1_eventHandler.c **** * 
1481:.\Generated_Source\PSoC4/BLE_1_eventHandler.c **** ******************************************************************************/
1482:.\Generated_Source\PSoC4/BLE_1_eventHandler.c **** static void CyBle_GapConnUpdateCompleteEventHandler(const CYBLE_GAP_CONN_PARAM_UPDATED_IN_CONTROLLE
1483:.\Generated_Source\PSoC4/BLE_1_eventHandler.c **** {
 344              		.loc 1 1483 0
 345              		.cfi_startproc
 346 0000 80B5     		push	{r7, lr}
 347              		.cfi_def_cfa_offset 8
 348              		.cfi_offset 7, -8
 349              		.cfi_offset 14, -4
 350 0002 82B0     		sub	sp, sp, #8
 351              		.cfi_def_cfa_offset 16
 352 0004 00AF     		add	r7, sp, #0
 353              		.cfi_def_cfa_register 7
 354 0006 7860     		str	r0, [r7, #4]
1484:.\Generated_Source\PSoC4/BLE_1_eventHandler.c ****     #ifdef CYBLE_CPS_SERVER
1485:.\Generated_Source\PSoC4/BLE_1_eventHandler.c ****         CyBle_CpssConnUpdateCompleteEventHandler(eventParam);
1486:.\Generated_Source\PSoC4/BLE_1_eventHandler.c ****     #endif /* CYBLE_CPS_SERVER */
1487:.\Generated_Source\PSoC4/BLE_1_eventHandler.c ****     
1488:.\Generated_Source\PSoC4/BLE_1_eventHandler.c ****     /* Unreferenced variable warning workaround */
1489:.\Generated_Source\PSoC4/BLE_1_eventHandler.c ****     if(eventParam != 0u)
1490:.\Generated_Source\PSoC4/BLE_1_eventHandler.c ****     {
1491:.\Generated_Source\PSoC4/BLE_1_eventHandler.c ****     }
1492:.\Generated_Source\PSoC4/BLE_1_eventHandler.c **** }
 355              		.loc 1 1492 0
 356 0008 BD46     		mov	sp, r7
 357 000a 02B0     		add	sp, sp, #8
 358              		@ sp needed
 359 000c 80BD     		pop	{r7, pc}
 360              		.cfi_endproc
 361              	.LFE9:
 362              		.size	CyBle_GapConnUpdateCompleteEventHandler, .-CyBle_GapConnUpdateCompleteEventHandler
 363              		.section	.text.CyBle_EventHandler,"ax",%progbits
 364              		.align	2
 365              		.global	CyBle_EventHandler
 366              		.code	16
 367              		.thumb_func
 368              		.type	CyBle_EventHandler, %function
 369              	CyBle_EventHandler:
 370              	.LFB10:
1493:.\Generated_Source\PSoC4/BLE_1_eventHandler.c **** 
1494:.\Generated_Source\PSoC4/BLE_1_eventHandler.c **** 
1495:.\Generated_Source\PSoC4/BLE_1_eventHandler.c **** /****************************************************************************** 
1496:.\Generated_Source\PSoC4/BLE_1_eventHandler.c **** * Function Name: CyBle_EventHandler
1497:.\Generated_Source\PSoC4/BLE_1_eventHandler.c **** ***************************************************************************//**
1498:.\Generated_Source\PSoC4/BLE_1_eventHandler.c **** * 
1499:.\Generated_Source\PSoC4/BLE_1_eventHandler.c **** *  Handles the events from the BLE stack
1500:.\Generated_Source\PSoC4/BLE_1_eventHandler.c **** * 
1501:.\Generated_Source\PSoC4/BLE_1_eventHandler.c **** *  \param eventCode:    the event code
1502:.\Generated_Source\PSoC4/BLE_1_eventHandler.c **** *  \param eventParam:  the event parameters
1503:.\Generated_Source\PSoC4/BLE_1_eventHandler.c **** * 
1504:.\Generated_Source\PSoC4/BLE_1_eventHandler.c **** * \return
1505:.\Generated_Source\PSoC4/BLE_1_eventHandler.c **** *  None.
1506:.\Generated_Source\PSoC4/BLE_1_eventHandler.c **** * 
1507:.\Generated_Source\PSoC4/BLE_1_eventHandler.c **** ******************************************************************************/
1508:.\Generated_Source\PSoC4/BLE_1_eventHandler.c **** void CyBle_EventHandler(uint8 eventCode, void *eventParam)
1509:.\Generated_Source\PSoC4/BLE_1_eventHandler.c **** {
ARM GAS  C:\Users\Ecapable\AppData\Local\Temp\ccmAuCaF.s 			page 34


 371              		.loc 1 1509 0
 372              		.cfi_startproc
 373 0000 80B5     		push	{r7, lr}
 374              		.cfi_def_cfa_offset 8
 375              		.cfi_offset 7, -8
 376              		.cfi_offset 14, -4
 377 0002 88B0     		sub	sp, sp, #32
 378              		.cfi_def_cfa_offset 40
 379 0004 00AF     		add	r7, sp, #0
 380              		.cfi_def_cfa_register 7
 381 0006 021C     		mov	r2, r0
 382 0008 3960     		str	r1, [r7]
 383 000a FB1D     		add	r3, r7, #7
 384 000c 1A70     		strb	r2, [r3]
1510:.\Generated_Source\PSoC4/BLE_1_eventHandler.c ****     cyBle_eventHandlerFlag |= CYBLE_CALLBACK;
 385              		.loc 1 1510 0
 386 000e C54B     		ldr	r3, .L57
 387 0010 1B78     		ldrb	r3, [r3]
 388 0012 DBB2     		uxtb	r3, r3
 389 0014 0122     		mov	r2, #1
 390 0016 1343     		orr	r3, r2
 391 0018 DAB2     		uxtb	r2, r3
 392 001a C24B     		ldr	r3, .L57
 393 001c 1A70     		strb	r2, [r3]
1511:.\Generated_Source\PSoC4/BLE_1_eventHandler.c **** 
1512:.\Generated_Source\PSoC4/BLE_1_eventHandler.c ****     /* Common Profile event handling */
1513:.\Generated_Source\PSoC4/BLE_1_eventHandler.c ****     switch(eventCode)
 394              		.loc 1 1513 0
 395 001e FB1D     		add	r3, r7, #7
 396 0020 1B78     		ldrb	r3, [r3]
 397 0022 712B     		cmp	r3, #113
 398 0024 00D9     		bls	.LCB325
 399 0026 62E1     		b	.L56	@long jump
 400              	.LCB325:
 401 0028 9A00     		lsl	r2, r3, #2
 402 002a BF4B     		ldr	r3, .L57+4
 403 002c D318     		add	r3, r2, r3
 404 002e 1B68     		ldr	r3, [r3]
 405 0030 9F46     		mov	pc, r3
 406              		.section	.rodata
 407              		.align	2
 408              	.L23:
 409 0000 EE020000 		.word	.L56
 410 0004 32000000 		.word	.L22
 411 0008 2E010000 		.word	.L24
 412 000c EE020000 		.word	.L56
 413 0010 EE020000 		.word	.L56
 414 0014 38010000 		.word	.L25
 415 0018 42010000 		.word	.L26
 416 001c EE020000 		.word	.L56
 417 0020 EE020000 		.word	.L56
 418 0024 EE020000 		.word	.L56
 419 0028 EE020000 		.word	.L56
 420 002c EE020000 		.word	.L56
 421 0030 EE020000 		.word	.L56
 422 0034 EE020000 		.word	.L56
 423 0038 EE020000 		.word	.L56
ARM GAS  C:\Users\Ecapable\AppData\Local\Temp\ccmAuCaF.s 			page 35


 424 003c EE020000 		.word	.L56
 425 0040 EE020000 		.word	.L56
 426 0044 EE020000 		.word	.L56
 427 0048 EE020000 		.word	.L56
 428 004c EE020000 		.word	.L56
 429 0050 EE020000 		.word	.L56
 430 0054 EE020000 		.word	.L56
 431 0058 EE020000 		.word	.L56
 432 005c EE020000 		.word	.L56
 433 0060 EE020000 		.word	.L56
 434 0064 EE020000 		.word	.L56
 435 0068 EE020000 		.word	.L56
 436 006c EE020000 		.word	.L56
 437 0070 EE020000 		.word	.L56
 438 0074 EE020000 		.word	.L56
 439 0078 EE020000 		.word	.L56
 440 007c EE020000 		.word	.L56
 441 0080 EE020000 		.word	.L56
 442 0084 82010000 		.word	.L27
 443 0088 EE020000 		.word	.L56
 444 008c EE020000 		.word	.L56
 445 0090 EE020000 		.word	.L56
 446 0094 EE020000 		.word	.L56
 447 0098 E2010000 		.word	.L29
 448 009c CA010000 		.word	.L30
 449 00a0 DA010000 		.word	.L31
 450 00a4 EE020000 		.word	.L56
 451 00a8 C0010000 		.word	.L32
 452 00ac EE020000 		.word	.L56
 453 00b0 EE020000 		.word	.L56
 454 00b4 EE020000 		.word	.L56
 455 00b8 EE020000 		.word	.L56
 456 00bc EE020000 		.word	.L56
 457 00c0 EE020000 		.word	.L56
 458 00c4 EE020000 		.word	.L56
 459 00c8 EE020000 		.word	.L56
 460 00cc EE020000 		.word	.L56
 461 00d0 EE020000 		.word	.L56
 462 00d4 EE020000 		.word	.L56
 463 00d8 EE020000 		.word	.L56
 464 00dc EE020000 		.word	.L56
 465 00e0 EE020000 		.word	.L56
 466 00e4 EE020000 		.word	.L56
 467 00e8 EE020000 		.word	.L56
 468 00ec EE020000 		.word	.L56
 469 00f0 EE020000 		.word	.L56
 470 00f4 EE020000 		.word	.L56
 471 00f8 EE020000 		.word	.L56
 472 00fc EE020000 		.word	.L56
 473 0100 EE020000 		.word	.L56
 474 0104 7A020000 		.word	.L33
 475 0108 9A020000 		.word	.L34
 476 010c A0020000 		.word	.L35
 477 0110 EE020000 		.word	.L56
 478 0114 EE020000 		.word	.L56
 479 0118 EE020000 		.word	.L56
 480 011c EE020000 		.word	.L56
ARM GAS  C:\Users\Ecapable\AppData\Local\Temp\ccmAuCaF.s 			page 36


 481 0120 EE020000 		.word	.L56
 482 0124 EE020000 		.word	.L56
 483 0128 EE020000 		.word	.L56
 484 012c EE020000 		.word	.L56
 485 0130 DA020000 		.word	.L36
 486 0134 EE020000 		.word	.L56
 487 0138 EE020000 		.word	.L56
 488 013c EE020000 		.word	.L56
 489 0140 EE020000 		.word	.L56
 490 0144 EE020000 		.word	.L56
 491 0148 EE020000 		.word	.L56
 492 014c EE020000 		.word	.L56
 493 0150 E4020000 		.word	.L40
 494 0154 EE020000 		.word	.L56
 495 0158 EE020000 		.word	.L56
 496 015c EE020000 		.word	.L56
 497 0160 EE020000 		.word	.L56
 498 0164 EE020000 		.word	.L56
 499 0168 EE020000 		.word	.L56
 500 016c EE020000 		.word	.L56
 501 0170 EE020000 		.word	.L56
 502 0174 EE020000 		.word	.L56
 503 0178 EE020000 		.word	.L56
 504 017c EE020000 		.word	.L56
 505 0180 EE020000 		.word	.L56
 506 0184 EE020000 		.word	.L56
 507 0188 EE020000 		.word	.L56
 508 018c EE020000 		.word	.L56
 509 0190 EE020000 		.word	.L56
 510 0194 EE020000 		.word	.L56
 511 0198 EE020000 		.word	.L56
 512 019c EE020000 		.word	.L56
 513 01a0 EE020000 		.word	.L56
 514 01a4 EE020000 		.word	.L56
 515 01a8 EE020000 		.word	.L56
 516 01ac EE020000 		.word	.L56
 517 01b0 EE020000 		.word	.L56
 518 01b4 EE020000 		.word	.L56
 519 01b8 EE020000 		.word	.L56
 520 01bc EE020000 		.word	.L56
 521 01c0 EE020000 		.word	.L56
 522 01c4 6E020000 		.word	.L42
 523              		.section	.text.CyBle_EventHandler
 524              	.L22:
 525              	.LBB3:
1514:.\Generated_Source\PSoC4/BLE_1_eventHandler.c ****     {
1515:.\Generated_Source\PSoC4/BLE_1_eventHandler.c ****         /**********************************************************
1516:.\Generated_Source\PSoC4/BLE_1_eventHandler.c ****         * General events
1517:.\Generated_Source\PSoC4/BLE_1_eventHandler.c ****         ************************************************************/
1518:.\Generated_Source\PSoC4/BLE_1_eventHandler.c ****         case CYBLE_EVT_STACK_ON:
1519:.\Generated_Source\PSoC4/BLE_1_eventHandler.c ****         #if(CYBLE_MODE_PROFILE)
1520:.\Generated_Source\PSoC4/BLE_1_eventHandler.c ****         {
1521:.\Generated_Source\PSoC4/BLE_1_eventHandler.c ****             CYBLE_BLESS_PWR_IN_DB_T bleSsPowerLevel;
1522:.\Generated_Source\PSoC4/BLE_1_eventHandler.c ****             
1523:.\Generated_Source\PSoC4/BLE_1_eventHandler.c ****             /* Set Tx Power Level for advertising and connection channels */
1524:.\Generated_Source\PSoC4/BLE_1_eventHandler.c ****             bleSsPowerLevel.blePwrLevelInDbm = CYBLE_TX_POWER_LEVEL_ADV;
 526              		.loc 1 1524 0
ARM GAS  C:\Users\Ecapable\AppData\Local\Temp\ccmAuCaF.s 			page 37


 527 0032 1023     		mov	r3, #16
 528 0034 FB18     		add	r3, r7, r3
 529 0036 0722     		mov	r2, #7
 530 0038 1A70     		strb	r2, [r3]
1525:.\Generated_Source\PSoC4/BLE_1_eventHandler.c ****             bleSsPowerLevel.bleSsChId = CYBLE_LL_ADV_CH_TYPE;
 531              		.loc 1 1525 0
 532 003a 1023     		mov	r3, #16
 533 003c FB18     		add	r3, r7, r3
 534 003e 0022     		mov	r2, #0
 535 0040 5A70     		strb	r2, [r3, #1]
1526:.\Generated_Source\PSoC4/BLE_1_eventHandler.c ****             (void) CyBle_SetTxPowerLevel (&bleSsPowerLevel);
 536              		.loc 1 1526 0
 537 0042 1023     		mov	r3, #16
 538 0044 FB18     		add	r3, r7, r3
 539 0046 181C     		mov	r0, r3
 540 0048 FFF7FEFF 		bl	CyBle_SetTxPowerLevel
1527:.\Generated_Source\PSoC4/BLE_1_eventHandler.c ****             bleSsPowerLevel.blePwrLevelInDbm = CYBLE_TX_POWER_LEVEL_CONN;
 541              		.loc 1 1527 0
 542 004c 1023     		mov	r3, #16
 543 004e FB18     		add	r3, r7, r3
 544 0050 0722     		mov	r2, #7
 545 0052 1A70     		strb	r2, [r3]
1528:.\Generated_Source\PSoC4/BLE_1_eventHandler.c ****             bleSsPowerLevel.bleSsChId = CYBLE_LL_CONN_CH_TYPE;
 546              		.loc 1 1528 0
 547 0054 1023     		mov	r3, #16
 548 0056 FB18     		add	r3, r7, r3
 549 0058 0122     		mov	r2, #1
 550 005a 5A70     		strb	r2, [r3, #1]
1529:.\Generated_Source\PSoC4/BLE_1_eventHandler.c ****             (void) CyBle_SetTxPowerLevel (&bleSsPowerLevel);
 551              		.loc 1 1529 0
 552 005c 1023     		mov	r3, #16
 553 005e FB18     		add	r3, r7, r3
 554 0060 181C     		mov	r0, r3
 555 0062 FFF7FEFF 		bl	CyBle_SetTxPowerLevel
 556              	.LBE3:
1530:.\Generated_Source\PSoC4/BLE_1_eventHandler.c ****             
1531:.\Generated_Source\PSoC4/BLE_1_eventHandler.c ****         }
1532:.\Generated_Source\PSoC4/BLE_1_eventHandler.c ****         #endif /* CYBLE_MODE_PROFILE */
1533:.\Generated_Source\PSoC4/BLE_1_eventHandler.c ****         #if (CYBLE_GATT_ROLE_SERVER || CYBLE_GATT_ROLE_CLIENT)
1534:.\Generated_Source\PSoC4/BLE_1_eventHandler.c ****             /* Set device Address  */
1535:.\Generated_Source\PSoC4/BLE_1_eventHandler.c ****             if(CyBle_IsDeviceAddressValid(cyBle_sflashDeviceAddress) != 0u)
 557              		.loc 1 1535 0
 558 0066 B14B     		ldr	r3, .L57+8
 559 0068 1B68     		ldr	r3, [r3]
 560 006a 181C     		mov	r0, r3
 561 006c FFF7FEFF 		bl	CyBle_IsDeviceAddressValid
 562 0070 031E     		sub	r3, r0, #0
 563 0072 11D0     		beq	.L43
1536:.\Generated_Source\PSoC4/BLE_1_eventHandler.c ****             {
1537:.\Generated_Source\PSoC4/BLE_1_eventHandler.c ****                 (void) CyBle_SetDeviceAddress(cyBle_sflashDeviceAddress);
 564              		.loc 1 1537 0
 565 0074 AD4B     		ldr	r3, .L57+8
 566 0076 1B68     		ldr	r3, [r3]
 567 0078 181C     		mov	r0, r3
 568 007a FFF7FEFF 		bl	CyBle_SetDeviceAddress
1538:.\Generated_Source\PSoC4/BLE_1_eventHandler.c ****                 #if(CYBLE_GAP_ROLE_PERIPHERAL || CYBLE_GAP_ROLE_BROADCASTER)
1539:.\Generated_Source\PSoC4/BLE_1_eventHandler.c ****                     CyBle_ChangeAdDeviceAddress(cyBle_sflashDeviceAddress, 0u);
ARM GAS  C:\Users\Ecapable\AppData\Local\Temp\ccmAuCaF.s 			page 38


 569              		.loc 1 1539 0
 570 007e AB4B     		ldr	r3, .L57+8
 571 0080 1B68     		ldr	r3, [r3]
 572 0082 181C     		mov	r0, r3
 573 0084 0021     		mov	r1, #0
 574 0086 FFF7FEFF 		bl	CyBle_ChangeAdDeviceAddress
1540:.\Generated_Source\PSoC4/BLE_1_eventHandler.c ****                     CyBle_ChangeAdDeviceAddress(cyBle_sflashDeviceAddress, 1u);
 575              		.loc 1 1540 0
 576 008a A84B     		ldr	r3, .L57+8
 577 008c 1B68     		ldr	r3, [r3]
 578 008e 181C     		mov	r0, r3
 579 0090 0121     		mov	r1, #1
 580 0092 FFF7FEFF 		bl	CyBle_ChangeAdDeviceAddress
 581 0096 36E0     		b	.L44
 582              	.L43:
 583              	.LBB4:
1541:.\Generated_Source\PSoC4/BLE_1_eventHandler.c ****                 #endif /* CYBLE_GAP_ROLE_PERIPHERAL || CYBLE_GAP_ROLE_BROADCASTER */    
1542:.\Generated_Source\PSoC4/BLE_1_eventHandler.c ****             }
1543:.\Generated_Source\PSoC4/BLE_1_eventHandler.c ****             else
1544:.\Generated_Source\PSoC4/BLE_1_eventHandler.c ****             {
1545:.\Generated_Source\PSoC4/BLE_1_eventHandler.c ****             #if (SILICON_GENERATED_DEVICE_ADDRESS != 0u)
1546:.\Generated_Source\PSoC4/BLE_1_eventHandler.c ****             {
1547:.\Generated_Source\PSoC4/BLE_1_eventHandler.c ****                 uint32 bdAddrLoc;
1548:.\Generated_Source\PSoC4/BLE_1_eventHandler.c ****                 bdAddrLoc = (CYBLE_SFLASH_DIE_X_REG & CYBLE_SFLASH_DIE_X_MASK) |
 584              		.loc 1 1548 0
 585 0098 A54B     		ldr	r3, .L57+12
 586 009a 1B78     		ldrb	r3, [r3]
 587 009c 1A1C     		mov	r2, r3
 588 009e 3F23     		mov	r3, #63
 589 00a0 1A40     		and	r2, r3
1549:.\Generated_Source\PSoC4/BLE_1_eventHandler.c ****                     ((uint32)(((uint32)CYBLE_SFLASH_DIE_Y_REG) & ((uint32)CYBLE_SFLASH_DIE_Y_MASK))
 590              		.loc 1 1549 0
 591 00a2 A44B     		ldr	r3, .L57+16
 592 00a4 1B78     		ldrb	r3, [r3]
 593 00a6 191C     		mov	r1, r3
 594 00a8 3F23     		mov	r3, #63
 595 00aa 0B40     		and	r3, r1
 596 00ac 9B01     		lsl	r3, r3, #6
1548:.\Generated_Source\PSoC4/BLE_1_eventHandler.c ****                     ((uint32)(((uint32)CYBLE_SFLASH_DIE_Y_REG) & ((uint32)CYBLE_SFLASH_DIE_Y_MASK))
 597              		.loc 1 1548 0
 598 00ae 1A43     		orr	r2, r3
1550:.\Generated_Source\PSoC4/BLE_1_eventHandler.c ****                         CYBLE_SFLASH_DIE_X_BITS) |
1551:.\Generated_Source\PSoC4/BLE_1_eventHandler.c ****                     ((uint32)(((uint32)CYBLE_SFLASH_DIE_WAFER_REG) & ((uint32)CYBLE_SFLASH_DIE_WAFE
 599              		.loc 1 1551 0
 600 00b0 A14B     		ldr	r3, .L57+20
 601 00b2 1B78     		ldrb	r3, [r3]
 602 00b4 191C     		mov	r1, r3
 603 00b6 1F23     		mov	r3, #31
 604 00b8 0B40     		and	r3, r1
 605 00ba 1B03     		lsl	r3, r3, #12
1550:.\Generated_Source\PSoC4/BLE_1_eventHandler.c ****                         CYBLE_SFLASH_DIE_X_BITS) |
 606              		.loc 1 1550 0
 607 00bc 1A43     		orr	r2, r3
1552:.\Generated_Source\PSoC4/BLE_1_eventHandler.c ****                         CYBLE_SFLASH_DIE_XY_BITS) |
1553:.\Generated_Source\PSoC4/BLE_1_eventHandler.c ****                     ((uint32)(((uint32)CYBLE_SFLASH_DIE_LOT_REG) & ((uint32)CYBLE_SFLASH_DIE_LOT_MA
 608              		.loc 1 1553 0
 609 00be 9F4B     		ldr	r3, .L57+24
ARM GAS  C:\Users\Ecapable\AppData\Local\Temp\ccmAuCaF.s 			page 39


 610 00c0 1B78     		ldrb	r3, [r3]
 611 00c2 191C     		mov	r1, r3
 612 00c4 7F23     		mov	r3, #127
 613 00c6 0B40     		and	r3, r1
 614 00c8 5B04     		lsl	r3, r3, #17
1548:.\Generated_Source\PSoC4/BLE_1_eventHandler.c ****                     ((uint32)(((uint32)CYBLE_SFLASH_DIE_Y_REG) & ((uint32)CYBLE_SFLASH_DIE_Y_MASK))
 615              		.loc 1 1548 0
 616 00ca 1343     		orr	r3, r2
 617 00cc BB61     		str	r3, [r7, #24]
1554:.\Generated_Source\PSoC4/BLE_1_eventHandler.c ****                         CYBLE_SFLASH_DIE_XYWAFER_BITS);
1555:.\Generated_Source\PSoC4/BLE_1_eventHandler.c ****                             
1556:.\Generated_Source\PSoC4/BLE_1_eventHandler.c ****                 cyBle_deviceAddress.bdAddr[0] = (uint8)bdAddrLoc;
 618              		.loc 1 1556 0
 619 00ce BB69     		ldr	r3, [r7, #24]
 620 00d0 DAB2     		uxtb	r2, r3
 621 00d2 9B4B     		ldr	r3, .L57+28
 622 00d4 1A70     		strb	r2, [r3]
1557:.\Generated_Source\PSoC4/BLE_1_eventHandler.c ****                 cyBle_deviceAddress.bdAddr[1] = (uint8)(bdAddrLoc >> 8u);
 623              		.loc 1 1557 0
 624 00d6 BB69     		ldr	r3, [r7, #24]
 625 00d8 1B0A     		lsr	r3, r3, #8
 626 00da DAB2     		uxtb	r2, r3
 627 00dc 984B     		ldr	r3, .L57+28
 628 00de 5A70     		strb	r2, [r3, #1]
1558:.\Generated_Source\PSoC4/BLE_1_eventHandler.c ****                 cyBle_deviceAddress.bdAddr[2] = (uint8)(bdAddrLoc >> 16u);
 629              		.loc 1 1558 0
 630 00e0 BB69     		ldr	r3, [r7, #24]
 631 00e2 1B0C     		lsr	r3, r3, #16
 632 00e4 DAB2     		uxtb	r2, r3
 633 00e6 964B     		ldr	r3, .L57+28
 634 00e8 9A70     		strb	r2, [r3, #2]
 635              	.LBE4:
1559:.\Generated_Source\PSoC4/BLE_1_eventHandler.c ****             }
1560:.\Generated_Source\PSoC4/BLE_1_eventHandler.c ****             #endif /* SILICON_GENERATED_DEVICE_ADDRESS != 0u */
1561:.\Generated_Source\PSoC4/BLE_1_eventHandler.c ****                 (void) CyBle_SetDeviceAddress(&cyBle_deviceAddress);
 636              		.loc 1 1561 0
 637 00ea 954B     		ldr	r3, .L57+28
 638 00ec 181C     		mov	r0, r3
 639 00ee FFF7FEFF 		bl	CyBle_SetDeviceAddress
1562:.\Generated_Source\PSoC4/BLE_1_eventHandler.c ****                 #if(CYBLE_GAP_ROLE_PERIPHERAL || CYBLE_GAP_ROLE_BROADCASTER)
1563:.\Generated_Source\PSoC4/BLE_1_eventHandler.c ****                     CyBle_ChangeAdDeviceAddress(&cyBle_deviceAddress, 0u);
 640              		.loc 1 1563 0
 641 00f2 934B     		ldr	r3, .L57+28
 642 00f4 181C     		mov	r0, r3
 643 00f6 0021     		mov	r1, #0
 644 00f8 FFF7FEFF 		bl	CyBle_ChangeAdDeviceAddress
1564:.\Generated_Source\PSoC4/BLE_1_eventHandler.c ****                     CyBle_ChangeAdDeviceAddress(&cyBle_deviceAddress, 1u);
 645              		.loc 1 1564 0
 646 00fc 904B     		ldr	r3, .L57+28
 647 00fe 181C     		mov	r0, r3
 648 0100 0121     		mov	r1, #1
 649 0102 FFF7FEFF 		bl	CyBle_ChangeAdDeviceAddress
 650              	.L44:
1565:.\Generated_Source\PSoC4/BLE_1_eventHandler.c ****                 #endif /* CYBLE_GAP_ROLE_PERIPHERAL || CYBLE_GAP_ROLE_BROADCASTER */    
1566:.\Generated_Source\PSoC4/BLE_1_eventHandler.c ****             }
1567:.\Generated_Source\PSoC4/BLE_1_eventHandler.c ****             /* Set device IO Capability  */
1568:.\Generated_Source\PSoC4/BLE_1_eventHandler.c ****             (void) CyBle_GapSetIoCap(CYBLE_IO_CAPABILITY);    
ARM GAS  C:\Users\Ecapable\AppData\Local\Temp\ccmAuCaF.s 			page 40


 651              		.loc 1 1568 0
 652 0106 0320     		mov	r0, #3
 653 0108 FFF7FEFF 		bl	CyBle_GapSetIoCap
 654              	.LBB5:
1569:.\Generated_Source\PSoC4/BLE_1_eventHandler.c ****             {
1570:.\Generated_Source\PSoC4/BLE_1_eventHandler.c ****                 /* Enable all 4.1 events and configured 4.2 events */
1571:.\Generated_Source\PSoC4/BLE_1_eventHandler.c ****                 uint8 leMask[CYBLE_LE_MASK_LENGTH] = {LO8(CYBLE_LE_MASK), HI8(CYBLE_LE_MASK)};
 655              		.loc 1 1571 0
 656 010c 0C23     		mov	r3, #12
 657 010e FB18     		add	r3, r7, r3
 658 0110 3F22     		mov	r2, #63
 659 0112 1A70     		strb	r2, [r3]
 660 0114 0C23     		mov	r3, #12
 661 0116 FB18     		add	r3, r7, r3
 662 0118 0022     		mov	r2, #0
 663 011a 5A70     		strb	r2, [r3, #1]
1572:.\Generated_Source\PSoC4/BLE_1_eventHandler.c ****                 (void) CyBle_GapSetLeEventMask(leMask);
 664              		.loc 1 1572 0
 665 011c 0C23     		mov	r3, #12
 666 011e FB18     		add	r3, r7, r3
 667 0120 181C     		mov	r0, r3
 668 0122 FFF7FEFF 		bl	CyBle_GapSetLeEventMask
 669              	.LBE5:
1573:.\Generated_Source\PSoC4/BLE_1_eventHandler.c ****             }
1574:.\Generated_Source\PSoC4/BLE_1_eventHandler.c ****         #if(CYBLE_DLE_FEATURE_ENABLED)
1575:.\Generated_Source\PSoC4/BLE_1_eventHandler.c ****         {
1576:.\Generated_Source\PSoC4/BLE_1_eventHandler.c ****             /* Set maximum suggested TX payload size */
1577:.\Generated_Source\PSoC4/BLE_1_eventHandler.c ****             uint16 payloadTime = CYBLE_LL_MAX_TX_TIME;
1578:.\Generated_Source\PSoC4/BLE_1_eventHandler.c ****             (void) CyBle_GapConvertOctetToTime(CYBLE_GAP_PHY_1MBPS, CYBLE_LL_MAX_TX_PAYLOAD_SIZE, &
1579:.\Generated_Source\PSoC4/BLE_1_eventHandler.c ****             (void) CyBle_GapSetSuggestedDataLength(CYBLE_LL_MAX_TX_PAYLOAD_SIZE, payloadTime); 
1580:.\Generated_Source\PSoC4/BLE_1_eventHandler.c ****         }
1581:.\Generated_Source\PSoC4/BLE_1_eventHandler.c ****         #endif /* CYBLE_DLE_FEATURE != 0u */
1582:.\Generated_Source\PSoC4/BLE_1_eventHandler.c ****         
1583:.\Generated_Source\PSoC4/BLE_1_eventHandler.c ****         #endif /* CYBLE_GATT_ROLE_SERVER || CYBLE_GATT_ROLE_CLIENT */
1584:.\Generated_Source\PSoC4/BLE_1_eventHandler.c ****             CyBle_SetState(CYBLE_STATE_DISCONNECTED);
 670              		.loc 1 1584 0
 671 0126 874B     		ldr	r3, .L57+32
 672 0128 0422     		mov	r2, #4
 673 012a 1A70     		strb	r2, [r3]
1585:.\Generated_Source\PSoC4/BLE_1_eventHandler.c ****             break;
 674              		.loc 1 1585 0
 675 012c E0E0     		b	.L45
 676              	.L24:
1586:.\Generated_Source\PSoC4/BLE_1_eventHandler.c ****         case CYBLE_EVT_TIMEOUT:
1587:.\Generated_Source\PSoC4/BLE_1_eventHandler.c ****             CyBle_TimeOutEventHandler((CYBLE_TO_REASON_CODE_T *)eventParam);
 677              		.loc 1 1587 0
 678 012e 3B68     		ldr	r3, [r7]
 679 0130 181C     		mov	r0, r3
 680 0132 FFF7FEFF 		bl	CyBle_TimeOutEventHandler
1588:.\Generated_Source\PSoC4/BLE_1_eventHandler.c ****             break;
 681              		.loc 1 1588 0
 682 0136 DBE0     		b	.L45
 683              	.L25:
1589:.\Generated_Source\PSoC4/BLE_1_eventHandler.c ****     	case CYBLE_EVT_STACK_BUSY_STATUS:
1590:.\Generated_Source\PSoC4/BLE_1_eventHandler.c ****             cyBle_busyStatus = *(uint8 *)eventParam;
 684              		.loc 1 1590 0
 685 0138 3B68     		ldr	r3, [r7]
ARM GAS  C:\Users\Ecapable\AppData\Local\Temp\ccmAuCaF.s 			page 41


 686 013a 1A78     		ldrb	r2, [r3]
 687 013c 824B     		ldr	r3, .L57+36
 688 013e 1A70     		strb	r2, [r3]
1591:.\Generated_Source\PSoC4/BLE_1_eventHandler.c ****             break;
 689              		.loc 1 1591 0
 690 0140 D6E0     		b	.L45
 691              	.L26:
 692              	.LBB6:
1592:.\Generated_Source\PSoC4/BLE_1_eventHandler.c ****     	case CYBLE_EVT_MEMORY_REQUEST:
1593:.\Generated_Source\PSoC4/BLE_1_eventHandler.c ****         #if(CYBLE_MODE_PROFILE)
1594:.\Generated_Source\PSoC4/BLE_1_eventHandler.c ****         {
1595:.\Generated_Source\PSoC4/BLE_1_eventHandler.c ****             CYBLE_MEMORY_REQUEST_T *memReq = (CYBLE_MEMORY_REQUEST_T *)eventParam;
 693              		.loc 1 1595 0
 694 0142 3B68     		ldr	r3, [r7]
 695 0144 7B61     		str	r3, [r7, #20]
1596:.\Generated_Source\PSoC4/BLE_1_eventHandler.c ****             if(memReq->request == CYBLE_PREPARED_WRITE_REQUEST)
 696              		.loc 1 1596 0
 697 0146 7B69     		ldr	r3, [r7, #20]
 698 0148 1B78     		ldrb	r3, [r3]
 699 014a 002B     		cmp	r3, #0
 700 014c 18D1     		bne	.L46
1597:.\Generated_Source\PSoC4/BLE_1_eventHandler.c ****             {  
1598:.\Generated_Source\PSoC4/BLE_1_eventHandler.c ****             #if(CYBLE_GATT_ENABLE_EXTERNAL_PREP_WRITE_BUFF == 0u)
1599:.\Generated_Source\PSoC4/BLE_1_eventHandler.c ****                 /* Stack requests to provide memory to process remote request */
1600:.\Generated_Source\PSoC4/BLE_1_eventHandler.c ****                 if(memReq->allocFree == CYBLE_ALLOC_MEMORY)
 701              		.loc 1 1600 0
 702 014e 7B69     		ldr	r3, [r7, #20]
 703 0150 5B78     		ldrb	r3, [r3, #1]
 704 0152 002B     		cmp	r3, #0
 705 0154 0BD1     		bne	.L47
 706              	.LBB7:
1601:.\Generated_Source\PSoC4/BLE_1_eventHandler.c ****                 {
1602:.\Generated_Source\PSoC4/BLE_1_eventHandler.c ****                     static CYBLE_PREPARE_WRITE_REQUEST_MEMORY_T gPrepWriteReqMem;
1603:.\Generated_Source\PSoC4/BLE_1_eventHandler.c ****                     
1604:.\Generated_Source\PSoC4/BLE_1_eventHandler.c ****                     /* Configure and return statically allocated buffer at the end of cyBle_stackMe
1605:.\Generated_Source\PSoC4/BLE_1_eventHandler.c ****                     gPrepWriteReqMem.prepareWriteQueueSize = CYBLE_GATT_MAX_PREPARE_BUFF_COUNT;
 707              		.loc 1 1605 0
 708 0156 7D4B     		ldr	r3, .L57+40
 709 0158 0022     		mov	r2, #0
 710 015a DA80     		strh	r2, [r3, #6]
1606:.\Generated_Source\PSoC4/BLE_1_eventHandler.c ****                     gPrepWriteReqMem.totalAttrValueLength = CYBLE_GATT_PREPARE_LENGTH_ALIGN;
 711              		.loc 1 1606 0
 712 015c 7B4B     		ldr	r3, .L57+40
 713 015e 0022     		mov	r2, #0
 714 0160 9A80     		strh	r2, [r3, #4]
1607:.\Generated_Source\PSoC4/BLE_1_eventHandler.c ****                     gPrepWriteReqMem.queueBuffer = &cyBle_stackMemoryRam[CYBLE_STACK_RAM_SIZE - 
 715              		.loc 1 1607 0
 716 0162 7A4B     		ldr	r3, .L57+40
 717 0164 7A4A     		ldr	r2, .L57+44
 718 0166 1A60     		str	r2, [r3]
1608:.\Generated_Source\PSoC4/BLE_1_eventHandler.c ****                                                                          CYBLE_GATT_PREPARE_WRITE_B
1609:.\Generated_Source\PSoC4/BLE_1_eventHandler.c ****                     memReq->configMemory = &gPrepWriteReqMem;  
 719              		.loc 1 1609 0
 720 0168 7B69     		ldr	r3, [r7, #20]
 721 016a 784A     		ldr	r2, .L57+40
 722 016c 5A60     		str	r2, [r3, #4]
 723              	.L47:
ARM GAS  C:\Users\Ecapable\AppData\Local\Temp\ccmAuCaF.s 			page 42


 724              	.LBE7:
1610:.\Generated_Source\PSoC4/BLE_1_eventHandler.c ****                 }                
1611:.\Generated_Source\PSoC4/BLE_1_eventHandler.c ****                 /* Clear CYBLE_CALLBACK flag not to provide handled event to application */
1612:.\Generated_Source\PSoC4/BLE_1_eventHandler.c ****                 cyBle_eventHandlerFlag &= (uint8)~CYBLE_CALLBACK;
 725              		.loc 1 1612 0
 726 016e 6D4B     		ldr	r3, .L57
 727 0170 1B78     		ldrb	r3, [r3]
 728 0172 DBB2     		uxtb	r3, r3
 729 0174 0122     		mov	r2, #1
 730 0176 9343     		bic	r3, r2
 731 0178 DAB2     		uxtb	r2, r3
 732 017a 6A4B     		ldr	r3, .L57
 733 017c 1A70     		strb	r2, [r3]
 734              	.LBE6:
1613:.\Generated_Source\PSoC4/BLE_1_eventHandler.c ****             #endif  /* CYBLE_GATT_ENABLE_EXTERNAL_PREP_WRITE_BUFF == 0u */
1614:.\Generated_Source\PSoC4/BLE_1_eventHandler.c ****             }
1615:.\Generated_Source\PSoC4/BLE_1_eventHandler.c ****         }
1616:.\Generated_Source\PSoC4/BLE_1_eventHandler.c ****         #endif /* CYBLE_MODE_PROFILE */
1617:.\Generated_Source\PSoC4/BLE_1_eventHandler.c ****             break;
 735              		.loc 1 1617 0
 736 017e B7E0     		b	.L45
 737              	.L46:
 738 0180 B6E0     		b	.L45
 739              	.L27:
1618:.\Generated_Source\PSoC4/BLE_1_eventHandler.c ****         /**********************************************************
1619:.\Generated_Source\PSoC4/BLE_1_eventHandler.c ****         * GAP events
1620:.\Generated_Source\PSoC4/BLE_1_eventHandler.c ****         ************************************************************/
1621:.\Generated_Source\PSoC4/BLE_1_eventHandler.c ****         case CYBLE_EVT_GAP_AUTH_REQ:
1622:.\Generated_Source\PSoC4/BLE_1_eventHandler.c ****         #if(CYBLE_MODE_PROFILE)
1623:.\Generated_Source\PSoC4/BLE_1_eventHandler.c ****             if(0u == (cyBle_eventHandlerFlag & CYBLE_DISABLE_AUTOMATIC_AUTH))
 740              		.loc 1 1623 0
 741 0182 684B     		ldr	r3, .L57
 742 0184 1B78     		ldrb	r3, [r3]
 743 0186 DBB2     		uxtb	r3, r3
 744 0188 1A1C     		mov	r2, r3
 745 018a 2023     		mov	r3, #32
 746 018c 1340     		and	r3, r2
 747 018e 16D1     		bne	.L48
1624:.\Generated_Source\PSoC4/BLE_1_eventHandler.c ****             {
1625:.\Generated_Source\PSoC4/BLE_1_eventHandler.c ****                 /* If the responding device does not support pairing then the responding 
1626:.\Generated_Source\PSoC4/BLE_1_eventHandler.c ****                    device shall respond using the Pairing Failed message with the error 
1627:.\Generated_Source\PSoC4/BLE_1_eventHandler.c ****                    code "Pairing Not Supported" otherwise it responds with a Pairing 
1628:.\Generated_Source\PSoC4/BLE_1_eventHandler.c ****                    Response message.
1629:.\Generated_Source\PSoC4/BLE_1_eventHandler.c ****                 */
1630:.\Generated_Source\PSoC4/BLE_1_eventHandler.c ****                 if(cyBle_authInfo.security == (CYBLE_GAP_SEC_MODE_1 | CYBLE_GAP_SEC_LEVEL_1))
 748              		.loc 1 1630 0
 749 0190 704B     		ldr	r3, .L57+48
 750 0192 1B78     		ldrb	r3, [r3]
 751 0194 102B     		cmp	r3, #16
 752 0196 02D1     		bne	.L49
1631:.\Generated_Source\PSoC4/BLE_1_eventHandler.c ****                 {
1632:.\Generated_Source\PSoC4/BLE_1_eventHandler.c ****                     cyBle_authInfo.authErr = CYBLE_GAP_AUTH_ERROR_PAIRING_NOT_SUPPORTED;
 753              		.loc 1 1632 0
 754 0198 6E4B     		ldr	r3, .L57+48
 755 019a 0522     		mov	r2, #5
 756 019c DA70     		strb	r2, [r3, #3]
 757              	.L49:
ARM GAS  C:\Users\Ecapable\AppData\Local\Temp\ccmAuCaF.s 			page 43


1633:.\Generated_Source\PSoC4/BLE_1_eventHandler.c ****                 }    
1634:.\Generated_Source\PSoC4/BLE_1_eventHandler.c ****             #if(CYBLE_GAP_ROLE_PERIPHERAL)
1635:.\Generated_Source\PSoC4/BLE_1_eventHandler.c ****                 (void)CyBle_GappAuthReqReply(cyBle_connHandle.bdHandle, &cyBle_authInfo);
 758              		.loc 1 1635 0
 759 019e 6E4B     		ldr	r3, .L57+52
 760 01a0 1A78     		ldrb	r2, [r3]
 761 01a2 6C4B     		ldr	r3, .L57+48
 762 01a4 101C     		mov	r0, r2
 763 01a6 191C     		mov	r1, r3
 764 01a8 FFF7FEFF 		bl	CyBle_GappAuthReqReply
1636:.\Generated_Source\PSoC4/BLE_1_eventHandler.c ****                 /* Setting callback flag again as CyBle_GappAuthReqReply() will generate
1637:.\Generated_Source\PSoC4/BLE_1_eventHandler.c ****                 * CYBLE_EVT_GAP_SMP_NEGOTIATED_AUTH_INFO event wich will clear the callback
1638:.\Generated_Source\PSoC4/BLE_1_eventHandler.c ****                 * flag.
1639:.\Generated_Source\PSoC4/BLE_1_eventHandler.c ****                 */
1640:.\Generated_Source\PSoC4/BLE_1_eventHandler.c ****                 cyBle_eventHandlerFlag |= CYBLE_CALLBACK;
 765              		.loc 1 1640 0
 766 01ac 5D4B     		ldr	r3, .L57
 767 01ae 1B78     		ldrb	r3, [r3]
 768 01b0 DBB2     		uxtb	r3, r3
 769 01b2 0122     		mov	r2, #1
 770 01b4 1343     		orr	r3, r2
 771 01b6 DAB2     		uxtb	r2, r3
 772 01b8 5A4B     		ldr	r3, .L57
 773 01ba 1A70     		strb	r2, [r3]
1641:.\Generated_Source\PSoC4/BLE_1_eventHandler.c ****             #endif /* CYBLE_GAP_ROLE_PERIPHERAL */
1642:.\Generated_Source\PSoC4/BLE_1_eventHandler.c ****             #if (CYBLE_GAP_ROLE_CENTRAL)
1643:.\Generated_Source\PSoC4/BLE_1_eventHandler.c ****                 (void)CyBle_GapAuthReq(cyBle_connHandle.bdHandle, &cyBle_authInfo);
1644:.\Generated_Source\PSoC4/BLE_1_eventHandler.c ****             #endif /* CYBLE_GAP_ROLE_CENTRAL */
1645:.\Generated_Source\PSoC4/BLE_1_eventHandler.c ****             }
1646:.\Generated_Source\PSoC4/BLE_1_eventHandler.c ****         #endif /* CYBLE_MODE_PROFILE */
1647:.\Generated_Source\PSoC4/BLE_1_eventHandler.c ****             break;
 774              		.loc 1 1647 0
 775 01bc 98E0     		b	.L45
 776              	.L48:
 777 01be 97E0     		b	.L45
 778              	.L32:
1648:.\Generated_Source\PSoC4/BLE_1_eventHandler.c ****         
1649:.\Generated_Source\PSoC4/BLE_1_eventHandler.c ****         case CYBLE_EVT_GAP_AUTH_COMPLETE:
1650:.\Generated_Source\PSoC4/BLE_1_eventHandler.c ****         #if((CYBLE_GAP_ROLE_PERIPHERAL || CYBLE_GAP_ROLE_CENTRAL) && (CYBLE_BONDING_REQUIREMENT == 
1651:.\Generated_Source\PSoC4/BLE_1_eventHandler.c ****             cyBle_peerBonding = ((CYBLE_GAP_AUTH_INFO_T *)eventParam)->bonding;
1652:.\Generated_Source\PSoC4/BLE_1_eventHandler.c ****         #endif  /* CYBLE_BONDING_REQUIREMENT == CYBLE_BONDING_YES */
1653:.\Generated_Source\PSoC4/BLE_1_eventHandler.c ****             break;
1654:.\Generated_Source\PSoC4/BLE_1_eventHandler.c ****         
1655:.\Generated_Source\PSoC4/BLE_1_eventHandler.c ****         case CYBLE_EVT_GAP_CONNECTION_UPDATE_COMPLETE:
1656:.\Generated_Source\PSoC4/BLE_1_eventHandler.c ****             CyBle_GapConnUpdateCompleteEventHandler((const CYBLE_GAP_CONN_PARAM_UPDATED_IN_CONTROLL
 779              		.loc 1 1656 0
 780 01c0 3B68     		ldr	r3, [r7]
 781 01c2 181C     		mov	r0, r3
 782 01c4 FFF7FEFF 		bl	CyBle_GapConnUpdateCompleteEventHandler
1657:.\Generated_Source\PSoC4/BLE_1_eventHandler.c ****             break;
 783              		.loc 1 1657 0
 784 01c8 92E0     		b	.L45
 785              	.L30:
1658:.\Generated_Source\PSoC4/BLE_1_eventHandler.c ****             
1659:.\Generated_Source\PSoC4/BLE_1_eventHandler.c ****     #if(CYBLE_LL_PRIVACY_FEATURE != 0u)        
1660:.\Generated_Source\PSoC4/BLE_1_eventHandler.c ****         case CYBLE_EVT_GAP_ENHANCE_CONN_COMPLETE:
1661:.\Generated_Source\PSoC4/BLE_1_eventHandler.c ****         {
ARM GAS  C:\Users\Ecapable\AppData\Local\Temp\ccmAuCaF.s 			page 44


1662:.\Generated_Source\PSoC4/BLE_1_eventHandler.c ****             CYBLE_GAP_CONN_PARAM_UPDATED_IN_CONTROLLER_T  connCParam;
1663:.\Generated_Source\PSoC4/BLE_1_eventHandler.c ****             CYBLE_GAP_ENHANCE_CONN_COMPLETE_T *connEnhanceParam;
1664:.\Generated_Source\PSoC4/BLE_1_eventHandler.c ****             
1665:.\Generated_Source\PSoC4/BLE_1_eventHandler.c ****             connEnhanceParam = (CYBLE_GAP_ENHANCE_CONN_COMPLETE_T *)eventParam;
1666:.\Generated_Source\PSoC4/BLE_1_eventHandler.c ****             connCParam.status = connEnhanceParam->status;
1667:.\Generated_Source\PSoC4/BLE_1_eventHandler.c ****             connCParam.connIntv = connEnhanceParam->connIntv;
1668:.\Generated_Source\PSoC4/BLE_1_eventHandler.c ****             connCParam.connLatency = connEnhanceParam->connLatency;
1669:.\Generated_Source\PSoC4/BLE_1_eventHandler.c ****             connCParam.supervisionTO = connEnhanceParam->supervisionTo;
1670:.\Generated_Source\PSoC4/BLE_1_eventHandler.c ****             CyBle_GapConnUpdateCompleteEventHandler((const CYBLE_GAP_CONN_PARAM_UPDATED_IN_CONTROLL
1671:.\Generated_Source\PSoC4/BLE_1_eventHandler.c ****             
1672:.\Generated_Source\PSoC4/BLE_1_eventHandler.c ****             #if(CYBLE_GAP_ROLE_CENTRAL)
1673:.\Generated_Source\PSoC4/BLE_1_eventHandler.c ****                 if(cyBle_connectingTimeout != 0u)
1674:.\Generated_Source\PSoC4/BLE_1_eventHandler.c ****                 {
1675:.\Generated_Source\PSoC4/BLE_1_eventHandler.c ****                    (void)CyBle_StopTimer();
1676:.\Generated_Source\PSoC4/BLE_1_eventHandler.c ****                 }
1677:.\Generated_Source\PSoC4/BLE_1_eventHandler.c ****             #endif /* CYBLE_GAP_ROLE_CENTRAL */
1678:.\Generated_Source\PSoC4/BLE_1_eventHandler.c ****             CyBle_SetState(CYBLE_STATE_CONNECTED);
1679:.\Generated_Source\PSoC4/BLE_1_eventHandler.c ****         }
1680:.\Generated_Source\PSoC4/BLE_1_eventHandler.c ****             break;
1681:.\Generated_Source\PSoC4/BLE_1_eventHandler.c ****     #endif /* CYBLE_LL_PRIVACY_FEATURE != 0u */      
1682:.\Generated_Source\PSoC4/BLE_1_eventHandler.c ****             
1683:.\Generated_Source\PSoC4/BLE_1_eventHandler.c ****         case CYBLE_EVT_GAP_DEVICE_CONNECTED:
1684:.\Generated_Source\PSoC4/BLE_1_eventHandler.c ****             CyBle_GapConnUpdateCompleteEventHandler((const CYBLE_GAP_CONN_PARAM_UPDATED_IN_CONTROLL
 786              		.loc 1 1684 0
 787 01ca 3B68     		ldr	r3, [r7]
 788 01cc 181C     		mov	r0, r3
 789 01ce FFF7FEFF 		bl	CyBle_GapConnUpdateCompleteEventHandler
1685:.\Generated_Source\PSoC4/BLE_1_eventHandler.c ****             #if(CYBLE_GAP_ROLE_CENTRAL)
1686:.\Generated_Source\PSoC4/BLE_1_eventHandler.c ****                 if(cyBle_connectingTimeout != 0u)
1687:.\Generated_Source\PSoC4/BLE_1_eventHandler.c ****                 {
1688:.\Generated_Source\PSoC4/BLE_1_eventHandler.c ****                    (void)CyBle_StopTimer();
1689:.\Generated_Source\PSoC4/BLE_1_eventHandler.c ****                 }
1690:.\Generated_Source\PSoC4/BLE_1_eventHandler.c ****             #endif /* CYBLE_GAP_ROLE_CENTRAL */
1691:.\Generated_Source\PSoC4/BLE_1_eventHandler.c ****             CyBle_SetState(CYBLE_STATE_CONNECTED);
 790              		.loc 1 1691 0
 791 01d2 5C4B     		ldr	r3, .L57+32
 792 01d4 0222     		mov	r2, #2
 793 01d6 1A70     		strb	r2, [r3]
1692:.\Generated_Source\PSoC4/BLE_1_eventHandler.c ****             break;
 794              		.loc 1 1692 0
 795 01d8 8AE0     		b	.L45
 796              	.L31:
1693:.\Generated_Source\PSoC4/BLE_1_eventHandler.c **** 
1694:.\Generated_Source\PSoC4/BLE_1_eventHandler.c ****         case CYBLE_EVT_GAP_DEVICE_DISCONNECTED:
1695:.\Generated_Source\PSoC4/BLE_1_eventHandler.c ****             CyBle_SetState(CYBLE_STATE_DISCONNECTED);
 797              		.loc 1 1695 0
 798 01da 5A4B     		ldr	r3, .L57+32
 799 01dc 0422     		mov	r2, #4
 800 01de 1A70     		strb	r2, [r3]
1696:.\Generated_Source\PSoC4/BLE_1_eventHandler.c ****             break;
 801              		.loc 1 1696 0
 802 01e0 86E0     		b	.L45
 803              	.L29:
1697:.\Generated_Source\PSoC4/BLE_1_eventHandler.c ****         #if(CYBLE_GAP_ROLE_PERIPHERAL || CYBLE_GAP_ROLE_BROADCASTER)
1698:.\Generated_Source\PSoC4/BLE_1_eventHandler.c ****             
1699:.\Generated_Source\PSoC4/BLE_1_eventHandler.c ****         case CYBLE_EVT_GAPP_ADVERTISEMENT_START_STOP:
1700:.\Generated_Source\PSoC4/BLE_1_eventHandler.c ****             #ifdef CYBLE_CPS_SERVER
ARM GAS  C:\Users\Ecapable\AppData\Local\Temp\ccmAuCaF.s 			page 45


1701:.\Generated_Source\PSoC4/BLE_1_eventHandler.c ****                 #if(CYBLE_GAP_ROLE_BROADCASTER)
1702:.\Generated_Source\PSoC4/BLE_1_eventHandler.c ****                     CyBle_CpssAdvertisementStartStopEventHandler();
1703:.\Generated_Source\PSoC4/BLE_1_eventHandler.c ****                 #endif /* CYBLE_GAP_ROLE_BROADCASTER */
1704:.\Generated_Source\PSoC4/BLE_1_eventHandler.c ****             #endif /* CYBLE_CPS_SERVER */
1705:.\Generated_Source\PSoC4/BLE_1_eventHandler.c ****             
1706:.\Generated_Source\PSoC4/BLE_1_eventHandler.c ****             if((CYBLE_STATE_CONNECTED != CyBle_GetState()) && ((cyBle_eventHandlerFlag & CYBLE_CALL
 804              		.loc 1 1706 0
 805 01e2 584B     		ldr	r3, .L57+32
 806 01e4 1B78     		ldrb	r3, [r3]
 807 01e6 022B     		cmp	r3, #2
 808 01e8 40D0     		beq	.L50
 809              		.loc 1 1706 0 is_stmt 0 discriminator 1
 810 01ea 4E4B     		ldr	r3, .L57
 811 01ec 1B78     		ldrb	r3, [r3]
 812 01ee DBB2     		uxtb	r3, r3
 813 01f0 1A1C     		mov	r2, r3
 814 01f2 0123     		mov	r3, #1
 815 01f4 1340     		and	r3, r2
 816 01f6 39D0     		beq	.L50
1707:.\Generated_Source\PSoC4/BLE_1_eventHandler.c ****             {
1708:.\Generated_Source\PSoC4/BLE_1_eventHandler.c ****                 /* After CyBle_GappStartAdvertisement first event indicates that advertising has be
1709:.\Generated_Source\PSoC4/BLE_1_eventHandler.c ****                 if(0u != (cyBle_eventHandlerFlag & CYBLE_START_FLAG))
 817              		.loc 1 1709 0 is_stmt 1
 818 01f8 4A4B     		ldr	r3, .L57
 819 01fa 1B78     		ldrb	r3, [r3]
 820 01fc DBB2     		uxtb	r3, r3
 821 01fe 1A1C     		mov	r2, r3
 822 0200 0423     		mov	r3, #4
 823 0202 1340     		and	r3, r2
 824 0204 0BD0     		beq	.L51
1710:.\Generated_Source\PSoC4/BLE_1_eventHandler.c ****                 {
1711:.\Generated_Source\PSoC4/BLE_1_eventHandler.c ****                     CyBle_SetState(CYBLE_STATE_ADVERTISING);
 825              		.loc 1 1711 0
 826 0206 4F4B     		ldr	r3, .L57+32
 827 0208 0322     		mov	r2, #3
 828 020a 1A70     		strb	r2, [r3]
1712:.\Generated_Source\PSoC4/BLE_1_eventHandler.c ****                     cyBle_eventHandlerFlag &= (uint8)~CYBLE_START_FLAG;
 829              		.loc 1 1712 0
 830 020c 454B     		ldr	r3, .L57
 831 020e 1B78     		ldrb	r3, [r3]
 832 0210 DBB2     		uxtb	r3, r3
 833 0212 0422     		mov	r2, #4
 834 0214 9343     		bic	r3, r2
 835 0216 DAB2     		uxtb	r2, r3
 836 0218 424B     		ldr	r3, .L57
 837 021a 1A70     		strb	r2, [r3]
 838 021c 26E0     		b	.L50
 839              	.L51:
1713:.\Generated_Source\PSoC4/BLE_1_eventHandler.c ****                 }
1714:.\Generated_Source\PSoC4/BLE_1_eventHandler.c ****                 /* When application initiated stop advertisement */
1715:.\Generated_Source\PSoC4/BLE_1_eventHandler.c ****                 else if(0u != (cyBle_eventHandlerFlag & CYBLE_STOP_FLAG))
 840              		.loc 1 1715 0
 841 021e 414B     		ldr	r3, .L57
 842 0220 1B78     		ldrb	r3, [r3]
 843 0222 DBB2     		uxtb	r3, r3
 844 0224 1A1C     		mov	r2, r3
 845 0226 0823     		mov	r3, #8
ARM GAS  C:\Users\Ecapable\AppData\Local\Temp\ccmAuCaF.s 			page 46


 846 0228 1340     		and	r3, r2
 847 022a 0BD0     		beq	.L52
1716:.\Generated_Source\PSoC4/BLE_1_eventHandler.c ****                 {
1717:.\Generated_Source\PSoC4/BLE_1_eventHandler.c ****                     CyBle_SetState(CYBLE_STATE_DISCONNECTED);  
 848              		.loc 1 1717 0
 849 022c 454B     		ldr	r3, .L57+32
 850 022e 0422     		mov	r2, #4
 851 0230 1A70     		strb	r2, [r3]
1718:.\Generated_Source\PSoC4/BLE_1_eventHandler.c ****                     cyBle_eventHandlerFlag &= (uint8)~CYBLE_STOP_FLAG;
 852              		.loc 1 1718 0
 853 0232 3C4B     		ldr	r3, .L57
 854 0234 1B78     		ldrb	r3, [r3]
 855 0236 DBB2     		uxtb	r3, r3
 856 0238 0822     		mov	r2, #8
 857 023a 9343     		bic	r3, r2
 858 023c DAB2     		uxtb	r2, r3
 859 023e 394B     		ldr	r3, .L57
 860 0240 1A70     		strb	r2, [r3]
 861 0242 13E0     		b	.L50
 862              	.L52:
1719:.\Generated_Source\PSoC4/BLE_1_eventHandler.c ****                 }
1720:.\Generated_Source\PSoC4/BLE_1_eventHandler.c ****                 else /* Following event indicates that advertising has been stopped */
1721:.\Generated_Source\PSoC4/BLE_1_eventHandler.c ****                 {
1722:.\Generated_Source\PSoC4/BLE_1_eventHandler.c ****                     if(CYBLE_STATE_ADVERTISING == CyBle_GetState())
 863              		.loc 1 1722 0
 864 0244 3F4B     		ldr	r3, .L57+32
 865 0246 1B78     		ldrb	r3, [r3]
 866 0248 032B     		cmp	r3, #3
 867 024a 0FD1     		bne	.L50
1723:.\Generated_Source\PSoC4/BLE_1_eventHandler.c ****                     {
1724:.\Generated_Source\PSoC4/BLE_1_eventHandler.c ****                         CyBle_SetState(CYBLE_STATE_DISCONNECTED);
 868              		.loc 1 1724 0
 869 024c 3D4B     		ldr	r3, .L57+32
 870 024e 0422     		mov	r2, #4
 871 0250 1A70     		strb	r2, [r3]
1725:.\Generated_Source\PSoC4/BLE_1_eventHandler.c ****                     #if ((CYBLE_SLOW_ADV_ENABLED != 0u) && (CYBLE_FAST_ADV_TIMEOUT != 0u))
1726:.\Generated_Source\PSoC4/BLE_1_eventHandler.c ****                         if(cyBle_advertisingIntervalType == CYBLE_ADVERTISING_FAST)
 872              		.loc 1 1726 0
 873 0252 424B     		ldr	r3, .L57+56
 874 0254 1B78     		ldrb	r3, [r3]
 875 0256 002B     		cmp	r3, #0
 876 0258 08D1     		bne	.L50
1727:.\Generated_Source\PSoC4/BLE_1_eventHandler.c ****                         {
1728:.\Generated_Source\PSoC4/BLE_1_eventHandler.c ****                             /* When fast advertising time out occur: Start slow advertising */
1729:.\Generated_Source\PSoC4/BLE_1_eventHandler.c ****                             if(CYBLE_ERROR_OK == CyBle_GappStartAdvertisement(CYBLE_ADVERTISING_SLO
 877              		.loc 1 1729 0
 878 025a 0120     		mov	r0, #1
 879 025c FFF7FEFF 		bl	CyBle_GappStartAdvertisement
 880 0260 031E     		sub	r3, r0, #0
 881 0262 03D1     		bne	.L50
1730:.\Generated_Source\PSoC4/BLE_1_eventHandler.c ****                             {
1731:.\Generated_Source\PSoC4/BLE_1_eventHandler.c ****                                 CyBle_SetState(CYBLE_STATE_ADVERTISING);
 882              		.loc 1 1731 0
 883 0264 374B     		ldr	r3, .L57+32
 884 0266 0322     		mov	r2, #3
 885 0268 1A70     		strb	r2, [r3]
1732:.\Generated_Source\PSoC4/BLE_1_eventHandler.c ****                             }
ARM GAS  C:\Users\Ecapable\AppData\Local\Temp\ccmAuCaF.s 			page 47


1733:.\Generated_Source\PSoC4/BLE_1_eventHandler.c ****                         }
1734:.\Generated_Source\PSoC4/BLE_1_eventHandler.c ****                     #endif /* CYBLE_SLOW_ADV_ENABLED */
1735:.\Generated_Source\PSoC4/BLE_1_eventHandler.c ****                     }
1736:.\Generated_Source\PSoC4/BLE_1_eventHandler.c ****                 }
1737:.\Generated_Source\PSoC4/BLE_1_eventHandler.c ****             }
1738:.\Generated_Source\PSoC4/BLE_1_eventHandler.c ****             break;
 886              		.loc 1 1738 0
 887 026a 41E0     		b	.L45
 888              	.L50:
 889 026c 40E0     		b	.L45
 890              	.L42:
1739:.\Generated_Source\PSoC4/BLE_1_eventHandler.c ****         #endif /* CYBLE_GAP_ROLE_PERIPHERAL || CYBLE_GAP_ROLE_BROADCASTER */
1740:.\Generated_Source\PSoC4/BLE_1_eventHandler.c ****         
1741:.\Generated_Source\PSoC4/BLE_1_eventHandler.c ****         #if(CYBLE_GAP_ROLE_CENTRAL || CYBLE_GAP_ROLE_OBSERVER)    
1742:.\Generated_Source\PSoC4/BLE_1_eventHandler.c ****         case CYBLE_EVT_GAPC_SCAN_START_STOP:
1743:.\Generated_Source\PSoC4/BLE_1_eventHandler.c ****             #ifdef CYBLE_CPS_CLIENT
1744:.\Generated_Source\PSoC4/BLE_1_eventHandler.c ****                 CyBle_CpscScanStartStopEventHandler();
1745:.\Generated_Source\PSoC4/BLE_1_eventHandler.c ****             #endif /* CYBLE_CPS_CLIENT */
1746:.\Generated_Source\PSoC4/BLE_1_eventHandler.c ****             
1747:.\Generated_Source\PSoC4/BLE_1_eventHandler.c ****             if((CYBLE_STATE_CONNECTED != CyBle_GetState()) && ((cyBle_eventHandlerFlag & CYBLE_CALL
1748:.\Generated_Source\PSoC4/BLE_1_eventHandler.c ****             {
1749:.\Generated_Source\PSoC4/BLE_1_eventHandler.c ****                 /* After CyBle_GapcStartScan first event indicates that scanning has been started *
1750:.\Generated_Source\PSoC4/BLE_1_eventHandler.c ****                 if(0u != (cyBle_eventHandlerFlag & CYBLE_START_FLAG))
1751:.\Generated_Source\PSoC4/BLE_1_eventHandler.c ****                 {
1752:.\Generated_Source\PSoC4/BLE_1_eventHandler.c ****                     CyBle_SetState(CYBLE_STATE_SCANNING);
1753:.\Generated_Source\PSoC4/BLE_1_eventHandler.c ****                     cyBle_eventHandlerFlag &= (uint8)~CYBLE_START_FLAG;
1754:.\Generated_Source\PSoC4/BLE_1_eventHandler.c ****                 }
1755:.\Generated_Source\PSoC4/BLE_1_eventHandler.c ****                 /* When application initiated stop scanning */
1756:.\Generated_Source\PSoC4/BLE_1_eventHandler.c ****                 else if(0u != (cyBle_eventHandlerFlag & CYBLE_STOP_FLAG))
1757:.\Generated_Source\PSoC4/BLE_1_eventHandler.c ****                 {
1758:.\Generated_Source\PSoC4/BLE_1_eventHandler.c ****                     CyBle_SetState(CYBLE_STATE_DISCONNECTED);  
1759:.\Generated_Source\PSoC4/BLE_1_eventHandler.c ****                     cyBle_eventHandlerFlag &= (uint8)~CYBLE_STOP_FLAG;
1760:.\Generated_Source\PSoC4/BLE_1_eventHandler.c ****                 }
1761:.\Generated_Source\PSoC4/BLE_1_eventHandler.c ****                 else /* Following event indicates that scanning has been stopped by stack */
1762:.\Generated_Source\PSoC4/BLE_1_eventHandler.c ****                 {
1763:.\Generated_Source\PSoC4/BLE_1_eventHandler.c ****                     if(CYBLE_STATE_SCANNING == CyBle_GetState())
1764:.\Generated_Source\PSoC4/BLE_1_eventHandler.c ****                     {
1765:.\Generated_Source\PSoC4/BLE_1_eventHandler.c ****                         CyBle_SetState(CYBLE_STATE_DISCONNECTED);  
1766:.\Generated_Source\PSoC4/BLE_1_eventHandler.c ****                     #if ((CYBLE_SLOW_SCAN_ENABLED != 0u) && (CYBLE_FAST_SCAN_TIMEOUT != 0u))
1767:.\Generated_Source\PSoC4/BLE_1_eventHandler.c ****                         if(cyBle_scanningIntervalType == CYBLE_SCANNING_FAST)
1768:.\Generated_Source\PSoC4/BLE_1_eventHandler.c ****                         {
1769:.\Generated_Source\PSoC4/BLE_1_eventHandler.c ****                             /* When fast scanning time out occur: Start slow scanning */
1770:.\Generated_Source\PSoC4/BLE_1_eventHandler.c ****                             if(CYBLE_ERROR_OK == CyBle_GapcStartScan(CYBLE_SCANNING_SLOW))
1771:.\Generated_Source\PSoC4/BLE_1_eventHandler.c ****                             {
1772:.\Generated_Source\PSoC4/BLE_1_eventHandler.c ****                                 CyBle_SetState(CYBLE_STATE_SCANNING);
1773:.\Generated_Source\PSoC4/BLE_1_eventHandler.c ****                             }
1774:.\Generated_Source\PSoC4/BLE_1_eventHandler.c ****                         }
1775:.\Generated_Source\PSoC4/BLE_1_eventHandler.c ****                     #endif /* CYBLE_SLOW_SCAN_ENABLED */
1776:.\Generated_Source\PSoC4/BLE_1_eventHandler.c ****                     }
1777:.\Generated_Source\PSoC4/BLE_1_eventHandler.c ****                 }
1778:.\Generated_Source\PSoC4/BLE_1_eventHandler.c ****             }
1779:.\Generated_Source\PSoC4/BLE_1_eventHandler.c ****             break;
1780:.\Generated_Source\PSoC4/BLE_1_eventHandler.c ****         #endif /* CYBLE_GAP_ROLE_CENTRAL || CYBLE_GAP_ROLE_OBSERVER */
1781:.\Generated_Source\PSoC4/BLE_1_eventHandler.c **** 
1782:.\Generated_Source\PSoC4/BLE_1_eventHandler.c ****         /**********************************************************
1783:.\Generated_Source\PSoC4/BLE_1_eventHandler.c ****         * L2AP events 
1784:.\Generated_Source\PSoC4/BLE_1_eventHandler.c ****         ************************************************************/
ARM GAS  C:\Users\Ecapable\AppData\Local\Temp\ccmAuCaF.s 			page 48


1785:.\Generated_Source\PSoC4/BLE_1_eventHandler.c ****         case CYBLE_EVT_L2CAP_CONN_PARAM_UPDATE_RSP:
1786:.\Generated_Source\PSoC4/BLE_1_eventHandler.c ****             CyBle_L2Cap_ConnParamUpdateRspEventHandler(*(uint16 *)eventParam);
 891              		.loc 1 1786 0
 892 026e 3B68     		ldr	r3, [r7]
 893 0270 1B88     		ldrh	r3, [r3]
 894 0272 181C     		mov	r0, r3
 895 0274 FFF7FEFF 		bl	CyBle_L2Cap_ConnParamUpdateRspEventHandler
1787:.\Generated_Source\PSoC4/BLE_1_eventHandler.c ****             break;
 896              		.loc 1 1787 0
 897 0278 3AE0     		b	.L45
 898              	.L33:
1788:.\Generated_Source\PSoC4/BLE_1_eventHandler.c ****         
1789:.\Generated_Source\PSoC4/BLE_1_eventHandler.c ****         /**********************************************************
1790:.\Generated_Source\PSoC4/BLE_1_eventHandler.c ****         * GATT events
1791:.\Generated_Source\PSoC4/BLE_1_eventHandler.c ****         ************************************************************/        
1792:.\Generated_Source\PSoC4/BLE_1_eventHandler.c ****         case CYBLE_EVT_GATT_CONNECT_IND:
1793:.\Generated_Source\PSoC4/BLE_1_eventHandler.c ****             cyBle_connHandle = *(CYBLE_CONN_HANDLE_T *)eventParam;
 899              		.loc 1 1793 0
 900 027a 374A     		ldr	r2, .L57+52
 901 027c 3B68     		ldr	r3, [r7]
 902 027e 111C     		mov	r1, r2
 903 0280 1A1C     		mov	r2, r3
 904 0282 0223     		mov	r3, #2
 905 0284 081C     		mov	r0, r1
 906 0286 111C     		mov	r1, r2
 907 0288 1A1C     		mov	r2, r3
 908 028a FFF7FEFF 		bl	memcpy
1794:.\Generated_Source\PSoC4/BLE_1_eventHandler.c ****             cyBle_busyStatus = CYBLE_STACK_STATE_FREE;
 909              		.loc 1 1794 0
 910 028e 2E4B     		ldr	r3, .L57+36
 911 0290 0022     		mov	r2, #0
 912 0292 1A70     		strb	r2, [r3]
1795:.\Generated_Source\PSoC4/BLE_1_eventHandler.c ****             
1796:.\Generated_Source\PSoC4/BLE_1_eventHandler.c ****         #if((CYBLE_GATT_ROLE_SERVER) && (CYBLE_GATT_DB_CCCD_COUNT != 0u) && \
1797:.\Generated_Source\PSoC4/BLE_1_eventHandler.c ****             (CYBLE_BONDING_REQUIREMENT == CYBLE_BONDING_YES))
1798:.\Generated_Source\PSoC4/BLE_1_eventHandler.c ****             /* Init CCCD values in RAM when bonding is enabled */
1799:.\Generated_Source\PSoC4/BLE_1_eventHandler.c ****         	(void) memcpy (cyBle_attValuesCCCD, cyBle_flashStorage.attValuesCCCDFlashMemory[cyBle_conn
1800:.\Generated_Source\PSoC4/BLE_1_eventHandler.c ****                             CYBLE_GATT_DB_CCCD_COUNT);
1801:.\Generated_Source\PSoC4/BLE_1_eventHandler.c ****         #endif /* CYBLE_GATT_ROLE_SERVER && (CYBLE_BONDING_REQUIREMENT == CYBLE_BONDING_YES) */
1802:.\Generated_Source\PSoC4/BLE_1_eventHandler.c ****         
1803:.\Generated_Source\PSoC4/BLE_1_eventHandler.c ****         #if (CYBLE_GATT_ROLE_CLIENT)
1804:.\Generated_Source\PSoC4/BLE_1_eventHandler.c ****             CyBle_SetClientState(CYBLE_CLIENT_STATE_CONNECTED);
1805:.\Generated_Source\PSoC4/BLE_1_eventHandler.c ****         #endif /* CYBLE_GATT_ROLE_CLIENT */
1806:.\Generated_Source\PSoC4/BLE_1_eventHandler.c ****         
1807:.\Generated_Source\PSoC4/BLE_1_eventHandler.c ****             CyBle_GattConnectReqHandler();
 913              		.loc 1 1807 0
 914 0294 FFF7FEFF 		bl	CyBle_GattConnectReqHandler
1808:.\Generated_Source\PSoC4/BLE_1_eventHandler.c ****             break;
 915              		.loc 1 1808 0
 916 0298 2AE0     		b	.L45
 917              	.L34:
1809:.\Generated_Source\PSoC4/BLE_1_eventHandler.c **** 
1810:.\Generated_Source\PSoC4/BLE_1_eventHandler.c ****         case CYBLE_EVT_GATT_DISCONNECT_IND:
1811:.\Generated_Source\PSoC4/BLE_1_eventHandler.c ****             CyBle_GattDisconnectEventHandler();
 918              		.loc 1 1811 0
 919 029a FFF7FEFF 		bl	CyBle_GattDisconnectEventHandler
1812:.\Generated_Source\PSoC4/BLE_1_eventHandler.c ****             break;
ARM GAS  C:\Users\Ecapable\AppData\Local\Temp\ccmAuCaF.s 			page 49


 920              		.loc 1 1812 0
 921 029e 27E0     		b	.L45
 922              	.L35:
 923              	.LBB8:
1813:.\Generated_Source\PSoC4/BLE_1_eventHandler.c **** 
1814:.\Generated_Source\PSoC4/BLE_1_eventHandler.c ****     #if((CYBLE_GATT_ROLE_SERVER) || (CYBLE_GATT_ROLE_CLIENT))
1815:.\Generated_Source\PSoC4/BLE_1_eventHandler.c ****         case CYBLE_EVT_GATTS_XCNHG_MTU_REQ:
1816:.\Generated_Source\PSoC4/BLE_1_eventHandler.c ****             {
1817:.\Generated_Source\PSoC4/BLE_1_eventHandler.c ****                 uint16 cyBle_mtuSize;
1818:.\Generated_Source\PSoC4/BLE_1_eventHandler.c ****                 if(CYBLE_GATT_MTU > ((CYBLE_GATT_XCHG_MTU_PARAM_T *)eventParam)->mtu)
 924              		.loc 1 1818 0
 925 02a0 3B68     		ldr	r3, [r7]
 926 02a2 5B88     		ldrh	r3, [r3, #2]
 927 02a4 162B     		cmp	r3, #22
 928 02a6 05D8     		bhi	.L53
1819:.\Generated_Source\PSoC4/BLE_1_eventHandler.c ****                 {
1820:.\Generated_Source\PSoC4/BLE_1_eventHandler.c ****                     cyBle_mtuSize = ((CYBLE_GATT_XCHG_MTU_PARAM_T *)eventParam)->mtu;
 929              		.loc 1 1820 0
 930 02a8 1E23     		mov	r3, #30
 931 02aa FB18     		add	r3, r7, r3
 932 02ac 3A68     		ldr	r2, [r7]
 933 02ae 5288     		ldrh	r2, [r2, #2]
 934 02b0 1A80     		strh	r2, [r3]
 935 02b2 03E0     		b	.L54
 936              	.L53:
1821:.\Generated_Source\PSoC4/BLE_1_eventHandler.c ****                 }
1822:.\Generated_Source\PSoC4/BLE_1_eventHandler.c ****                 else
1823:.\Generated_Source\PSoC4/BLE_1_eventHandler.c ****                 {
1824:.\Generated_Source\PSoC4/BLE_1_eventHandler.c ****                     cyBle_mtuSize = CYBLE_GATT_MTU;
 937              		.loc 1 1824 0
 938 02b4 1E23     		mov	r3, #30
 939 02b6 FB18     		add	r3, r7, r3
 940 02b8 1722     		mov	r2, #23
 941 02ba 1A80     		strh	r2, [r3]
 942              	.L54:
1825:.\Generated_Source\PSoC4/BLE_1_eventHandler.c ****                 }
1826:.\Generated_Source\PSoC4/BLE_1_eventHandler.c ****                 (void)CyBle_GattsExchangeMtuRsp(((CYBLE_GATT_XCHG_MTU_PARAM_T *)eventParam)->connHa
 943              		.loc 1 1826 0
 944 02bc 3B68     		ldr	r3, [r7]
 945 02be 1E22     		mov	r2, #30
 946 02c0 BA18     		add	r2, r7, r2
 947 02c2 1188     		ldrh	r1, [r2]
 948 02c4 1A88     		ldrh	r2, [r3]
 949 02c6 0023     		mov	r3, #0
 950 02c8 1204     		lsl	r2, r2, #16
 951 02ca 120C     		lsr	r2, r2, #16
 952 02cc 1B0C     		lsr	r3, r3, #16
 953 02ce 1B04     		lsl	r3, r3, #16
 954 02d0 1343     		orr	r3, r2
 955 02d2 181C     		mov	r0, r3
 956 02d4 FFF7FEFF 		bl	CyBle_GattsExchangeMtuRsp
 957              	.LBE8:
1827:.\Generated_Source\PSoC4/BLE_1_eventHandler.c ****             }
1828:.\Generated_Source\PSoC4/BLE_1_eventHandler.c ****             break;
 958              		.loc 1 1828 0
 959 02d8 0AE0     		b	.L45
 960              	.L36:
ARM GAS  C:\Users\Ecapable\AppData\Local\Temp\ccmAuCaF.s 			page 50


1829:.\Generated_Source\PSoC4/BLE_1_eventHandler.c ****     #endif /* CYBLE_GATT_ROLE_SERVER || CYBLE_GATT_ROLE_CLIENT */
1830:.\Generated_Source\PSoC4/BLE_1_eventHandler.c ****     
1831:.\Generated_Source\PSoC4/BLE_1_eventHandler.c ****     #if (CYBLE_GATT_ROLE_CLIENT)
1832:.\Generated_Source\PSoC4/BLE_1_eventHandler.c ****         case CYBLE_EVT_GAPC_SCAN_PROGRESS_RESULT:
1833:.\Generated_Source\PSoC4/BLE_1_eventHandler.c ****         #ifdef CYBLE_CPS_CLIENT
1834:.\Generated_Source\PSoC4/BLE_1_eventHandler.c ****             CyBle_CpscScanProcessEventHandler((CYBLE_GAPC_ADV_REPORT_T *)eventParam);
1835:.\Generated_Source\PSoC4/BLE_1_eventHandler.c ****         #endif /* CYBLE_CPS_CLIENT */
1836:.\Generated_Source\PSoC4/BLE_1_eventHandler.c ****             break;
1837:.\Generated_Source\PSoC4/BLE_1_eventHandler.c ****     #endif /* CYBLE_GATT_ROLE_CLIENT */
1838:.\Generated_Source\PSoC4/BLE_1_eventHandler.c **** 
1839:.\Generated_Source\PSoC4/BLE_1_eventHandler.c ****     #if(CYBLE_GATT_ROLE_SERVER)
1840:.\Generated_Source\PSoC4/BLE_1_eventHandler.c ****         case CYBLE_EVT_GATTS_WRITE_REQ:
1841:.\Generated_Source\PSoC4/BLE_1_eventHandler.c ****             CyBle_WriteReqHandler((CYBLE_GATTS_WRITE_REQ_PARAM_T *)eventParam);
 961              		.loc 1 1841 0
 962 02da 3B68     		ldr	r3, [r7]
 963 02dc 181C     		mov	r0, r3
 964 02de FFF7FEFF 		bl	CyBle_WriteReqHandler
1842:.\Generated_Source\PSoC4/BLE_1_eventHandler.c ****             break;
 965              		.loc 1 1842 0
 966 02e2 05E0     		b	.L45
 967              	.L40:
1843:.\Generated_Source\PSoC4/BLE_1_eventHandler.c **** 
1844:.\Generated_Source\PSoC4/BLE_1_eventHandler.c ****         case CYBLE_EVT_GATTS_WRITE_CMD_REQ:
1845:.\Generated_Source\PSoC4/BLE_1_eventHandler.c ****         #ifdef CYBLE_IAS_SERVER
1846:.\Generated_Source\PSoC4/BLE_1_eventHandler.c ****             if((cyBle_eventHandlerFlag & CYBLE_CALLBACK) != 0u)
1847:.\Generated_Source\PSoC4/BLE_1_eventHandler.c ****             {
1848:.\Generated_Source\PSoC4/BLE_1_eventHandler.c ****                 (void)CyBle_IassWriteCmdEventHandler((CYBLE_GATTS_WRITE_REQ_PARAM_T *)eventParam);
1849:.\Generated_Source\PSoC4/BLE_1_eventHandler.c ****             }
1850:.\Generated_Source\PSoC4/BLE_1_eventHandler.c ****         #endif /* CYBLE_IAS_SERVER */
1851:.\Generated_Source\PSoC4/BLE_1_eventHandler.c ****         #ifdef CYBLE_IPS_SERVER
1852:.\Generated_Source\PSoC4/BLE_1_eventHandler.c ****             if((cyBle_eventHandlerFlag & CYBLE_CALLBACK) != 0u)
1853:.\Generated_Source\PSoC4/BLE_1_eventHandler.c ****             {
1854:.\Generated_Source\PSoC4/BLE_1_eventHandler.c ****                 (void)CyBle_IpssWriteCmdEventHandler((CYBLE_GATTS_WRITE_REQ_PARAM_T *)eventParam);
1855:.\Generated_Source\PSoC4/BLE_1_eventHandler.c ****             }
1856:.\Generated_Source\PSoC4/BLE_1_eventHandler.c ****         #endif /* CYBLE_IPS_SERVER */
1857:.\Generated_Source\PSoC4/BLE_1_eventHandler.c ****         #ifdef CYBLE_HIDS_SERVER
1858:.\Generated_Source\PSoC4/BLE_1_eventHandler.c ****             if((cyBle_eventHandlerFlag & CYBLE_CALLBACK) != 0u)
1859:.\Generated_Source\PSoC4/BLE_1_eventHandler.c ****             {
1860:.\Generated_Source\PSoC4/BLE_1_eventHandler.c ****                 (void)CyBle_HidssWriteEventHandler((CYBLE_GATTS_WRITE_REQ_PARAM_T *)eventParam);
1861:.\Generated_Source\PSoC4/BLE_1_eventHandler.c ****             }
1862:.\Generated_Source\PSoC4/BLE_1_eventHandler.c ****         #endif /* CYBLE_HIDS_SERVER */
1863:.\Generated_Source\PSoC4/BLE_1_eventHandler.c ****         #ifdef CYBLE_PASS_SERVER
1864:.\Generated_Source\PSoC4/BLE_1_eventHandler.c ****             if((cyBle_eventHandlerFlag & CYBLE_CALLBACK) != 0u)
1865:.\Generated_Source\PSoC4/BLE_1_eventHandler.c ****             {
1866:.\Generated_Source\PSoC4/BLE_1_eventHandler.c ****                 (void)CyBle_PasssWriteCmdEventHandler((CYBLE_GATTS_WRITE_REQ_PARAM_T *)eventParam);
1867:.\Generated_Source\PSoC4/BLE_1_eventHandler.c ****             }
1868:.\Generated_Source\PSoC4/BLE_1_eventHandler.c ****         #endif /* CYBLE_PASS_SERVER */
1869:.\Generated_Source\PSoC4/BLE_1_eventHandler.c ****         #ifdef CYBLE_RTUS_SERVER
1870:.\Generated_Source\PSoC4/BLE_1_eventHandler.c ****             if((cyBle_eventHandlerFlag & CYBLE_CALLBACK) != 0u)
1871:.\Generated_Source\PSoC4/BLE_1_eventHandler.c ****             {
1872:.\Generated_Source\PSoC4/BLE_1_eventHandler.c ****                 (void)CyBle_RtussWriteCmdEventHandler((CYBLE_GATTS_WRITE_REQ_PARAM_T *)eventParam);
1873:.\Generated_Source\PSoC4/BLE_1_eventHandler.c ****             }
1874:.\Generated_Source\PSoC4/BLE_1_eventHandler.c ****         #endif /* CYBLE_RTUS_SERVER */
1875:.\Generated_Source\PSoC4/BLE_1_eventHandler.c ****         #ifdef CYBLE_SCPS_SERVER
1876:.\Generated_Source\PSoC4/BLE_1_eventHandler.c ****             if((cyBle_eventHandlerFlag & CYBLE_CALLBACK) != 0u)
1877:.\Generated_Source\PSoC4/BLE_1_eventHandler.c ****             {
1878:.\Generated_Source\PSoC4/BLE_1_eventHandler.c ****                 (void)CyBle_ScpssWriteEventHandler((CYBLE_GATTS_WRITE_REQ_PARAM_T *)eventParam);
ARM GAS  C:\Users\Ecapable\AppData\Local\Temp\ccmAuCaF.s 			page 51


1879:.\Generated_Source\PSoC4/BLE_1_eventHandler.c ****             }
1880:.\Generated_Source\PSoC4/BLE_1_eventHandler.c ****         #endif /* CYBLE_SCPS_SERVER */
1881:.\Generated_Source\PSoC4/BLE_1_eventHandler.c ****             break;
1882:.\Generated_Source\PSoC4/BLE_1_eventHandler.c ****         
1883:.\Generated_Source\PSoC4/BLE_1_eventHandler.c ****         case CYBLE_EVT_GATTS_PREP_WRITE_REQ:
1884:.\Generated_Source\PSoC4/BLE_1_eventHandler.c ****         #ifdef CYBLE_BMS_SERVER
1885:.\Generated_Source\PSoC4/BLE_1_eventHandler.c ****             CyBle_BmssPrepareWriteRequestEventHandler((CYBLE_GATTS_PREP_WRITE_REQ_PARAM_T *)eventPa
1886:.\Generated_Source\PSoC4/BLE_1_eventHandler.c ****         #endif /* CYBLE_BMS_SERVER */
1887:.\Generated_Source\PSoC4/BLE_1_eventHandler.c ****         #ifdef CYBLE_BTS_SERVER
1888:.\Generated_Source\PSoC4/BLE_1_eventHandler.c ****             if((cyBle_eventHandlerFlag & CYBLE_CALLBACK) != 0u)
1889:.\Generated_Source\PSoC4/BLE_1_eventHandler.c ****             {
1890:.\Generated_Source\PSoC4/BLE_1_eventHandler.c ****                 CyBle_BtssPrepareWriteRequestEventHandler((CYBLE_GATTS_PREP_WRITE_REQ_PARAM_T *)eve
1891:.\Generated_Source\PSoC4/BLE_1_eventHandler.c ****             }
1892:.\Generated_Source\PSoC4/BLE_1_eventHandler.c ****         #endif /* CYBLE_BTS_SERVER */
1893:.\Generated_Source\PSoC4/BLE_1_eventHandler.c ****         #ifdef CYBLE_ESS_SERVER
1894:.\Generated_Source\PSoC4/BLE_1_eventHandler.c ****             if((cyBle_eventHandlerFlag & CYBLE_CALLBACK) != 0u)
1895:.\Generated_Source\PSoC4/BLE_1_eventHandler.c ****             {
1896:.\Generated_Source\PSoC4/BLE_1_eventHandler.c ****                 CyBle_EsssPrepareWriteRequestEventHandler((CYBLE_GATTS_PREP_WRITE_REQ_PARAM_T *)eve
1897:.\Generated_Source\PSoC4/BLE_1_eventHandler.c ****             }
1898:.\Generated_Source\PSoC4/BLE_1_eventHandler.c ****         #endif /* CYBLE_ESS_SERVER */
1899:.\Generated_Source\PSoC4/BLE_1_eventHandler.c ****         #ifdef CYBLE_HPS_SERVER
1900:.\Generated_Source\PSoC4/BLE_1_eventHandler.c ****             if((cyBle_eventHandlerFlag & CYBLE_CALLBACK) != 0u)
1901:.\Generated_Source\PSoC4/BLE_1_eventHandler.c ****             {
1902:.\Generated_Source\PSoC4/BLE_1_eventHandler.c ****                 CyBle_HpssPrepareWriteRequestEventHandler((CYBLE_GATTS_PREP_WRITE_REQ_PARAM_T *)eve
1903:.\Generated_Source\PSoC4/BLE_1_eventHandler.c ****             }
1904:.\Generated_Source\PSoC4/BLE_1_eventHandler.c ****         #endif /* CYBLE_HPS_SERVER */
1905:.\Generated_Source\PSoC4/BLE_1_eventHandler.c ****         #ifdef CYBLE_IPS_SERVER
1906:.\Generated_Source\PSoC4/BLE_1_eventHandler.c ****             if((cyBle_eventHandlerFlag & CYBLE_CALLBACK) != 0u)
1907:.\Generated_Source\PSoC4/BLE_1_eventHandler.c ****             {
1908:.\Generated_Source\PSoC4/BLE_1_eventHandler.c ****                 CyBle_IpssPrepareWriteRequestEventHandler((CYBLE_GATTS_PREP_WRITE_REQ_PARAM_T *)eve
1909:.\Generated_Source\PSoC4/BLE_1_eventHandler.c ****             }
1910:.\Generated_Source\PSoC4/BLE_1_eventHandler.c ****         #endif /* CYBLE_IPS_SERVER */
1911:.\Generated_Source\PSoC4/BLE_1_eventHandler.c ****         #ifdef CYBLE_UDS_SERVER
1912:.\Generated_Source\PSoC4/BLE_1_eventHandler.c ****             if((cyBle_eventHandlerFlag & CYBLE_CALLBACK) != 0u)
1913:.\Generated_Source\PSoC4/BLE_1_eventHandler.c ****             {
1914:.\Generated_Source\PSoC4/BLE_1_eventHandler.c ****                 CyBle_UdssPrepareWriteRequestEventHandler((CYBLE_GATTS_PREP_WRITE_REQ_PARAM_T *)eve
1915:.\Generated_Source\PSoC4/BLE_1_eventHandler.c ****             }
1916:.\Generated_Source\PSoC4/BLE_1_eventHandler.c ****         #endif /* CYBLE_UDS_SERVER */
1917:.\Generated_Source\PSoC4/BLE_1_eventHandler.c ****             break;
1918:.\Generated_Source\PSoC4/BLE_1_eventHandler.c **** 
1919:.\Generated_Source\PSoC4/BLE_1_eventHandler.c ****         case CYBLE_EVT_GATTS_EXEC_WRITE_REQ:
1920:.\Generated_Source\PSoC4/BLE_1_eventHandler.c ****         #ifdef CYBLE_BMS_SERVER
1921:.\Generated_Source\PSoC4/BLE_1_eventHandler.c ****             CyBle_BmssExecuteWriteRequestEventHandler((CYBLE_GATTS_EXEC_WRITE_REQ_T *)eventParam);
1922:.\Generated_Source\PSoC4/BLE_1_eventHandler.c ****         #endif /* CYBLE_BMS_SERVER */
1923:.\Generated_Source\PSoC4/BLE_1_eventHandler.c ****         #ifdef CYBLE_BTS_SERVER
1924:.\Generated_Source\PSoC4/BLE_1_eventHandler.c ****             CyBle_BtssExecuteWriteRequestEventHandler((CYBLE_GATTS_EXEC_WRITE_REQ_T *)eventParam);
1925:.\Generated_Source\PSoC4/BLE_1_eventHandler.c ****         #endif /* CYBLE_BTS_SERVER */
1926:.\Generated_Source\PSoC4/BLE_1_eventHandler.c ****         #ifdef CYBLE_ESS_SERVER
1927:.\Generated_Source\PSoC4/BLE_1_eventHandler.c ****             CyBle_EsssExecuteWriteRequestEventHandler((CYBLE_GATTS_EXEC_WRITE_REQ_T *)eventParam);
1928:.\Generated_Source\PSoC4/BLE_1_eventHandler.c ****         #endif /* CYBLE_ESS_SERVER */
1929:.\Generated_Source\PSoC4/BLE_1_eventHandler.c ****         #ifdef CYBLE_HPS_SERVER
1930:.\Generated_Source\PSoC4/BLE_1_eventHandler.c ****             CyBle_HpssExecuteWriteRequestEventHandler((CYBLE_GATTS_EXEC_WRITE_REQ_T *)eventParam);
1931:.\Generated_Source\PSoC4/BLE_1_eventHandler.c ****         #endif /* CYBLE_HPS_SERVER */
1932:.\Generated_Source\PSoC4/BLE_1_eventHandler.c ****         #ifdef CYBLE_IPS_SERVER
1933:.\Generated_Source\PSoC4/BLE_1_eventHandler.c ****             CyBle_IpssExecuteWriteRequestEventHandler((CYBLE_GATTS_EXEC_WRITE_REQ_T *)eventParam);
1934:.\Generated_Source\PSoC4/BLE_1_eventHandler.c ****         #endif /* CYBLE_IPS_SERVER */
1935:.\Generated_Source\PSoC4/BLE_1_eventHandler.c **** 		#ifdef CYBLE_UDS_SERVER
ARM GAS  C:\Users\Ecapable\AppData\Local\Temp\ccmAuCaF.s 			page 52


1936:.\Generated_Source\PSoC4/BLE_1_eventHandler.c ****             CyBle_UdssExecuteWriteRequestEventHandler((CYBLE_GATTS_EXEC_WRITE_REQ_T *)eventParam);
1937:.\Generated_Source\PSoC4/BLE_1_eventHandler.c ****         #endif /* CYBLE_UDS_SERVER */
1938:.\Generated_Source\PSoC4/BLE_1_eventHandler.c ****             break;
1939:.\Generated_Source\PSoC4/BLE_1_eventHandler.c ****         
1940:.\Generated_Source\PSoC4/BLE_1_eventHandler.c ****         case CYBLE_EVT_GATTS_HANDLE_VALUE_CNF:
1941:.\Generated_Source\PSoC4/BLE_1_eventHandler.c ****             CyBle_ValueConfirmation((CYBLE_CONN_HANDLE_T *)eventParam);
 968              		.loc 1 1941 0
 969 02e4 3B68     		ldr	r3, [r7]
 970 02e6 181C     		mov	r0, r3
 971 02e8 FFF7FEFF 		bl	CyBle_ValueConfirmation
1942:.\Generated_Source\PSoC4/BLE_1_eventHandler.c ****             break;
 972              		.loc 1 1942 0
 973 02ec 00E0     		b	.L45
 974              	.L56:
1943:.\Generated_Source\PSoC4/BLE_1_eventHandler.c ****             
1944:.\Generated_Source\PSoC4/BLE_1_eventHandler.c ****         case CYBLE_EVT_GATTS_READ_CHAR_VAL_ACCESS_REQ:
1945:.\Generated_Source\PSoC4/BLE_1_eventHandler.c ****         #ifdef CYBLE_UDS_SERVER
1946:.\Generated_Source\PSoC4/BLE_1_eventHandler.c ****             CyBle_UdssReadRequestEventHandler((CYBLE_GATTS_CHAR_VAL_READ_REQ_T *)eventParam);
1947:.\Generated_Source\PSoC4/BLE_1_eventHandler.c ****         #endif /* CYBLE_UDS_SERVER */
1948:.\Generated_Source\PSoC4/BLE_1_eventHandler.c ****             break;
1949:.\Generated_Source\PSoC4/BLE_1_eventHandler.c ****             
1950:.\Generated_Source\PSoC4/BLE_1_eventHandler.c ****     #endif /* CYBLE_GATT_ROLE_SERVER */
1951:.\Generated_Source\PSoC4/BLE_1_eventHandler.c **** 
1952:.\Generated_Source\PSoC4/BLE_1_eventHandler.c ****     #if (CYBLE_GATT_ROLE_CLIENT)
1953:.\Generated_Source\PSoC4/BLE_1_eventHandler.c ****         
1954:.\Generated_Source\PSoC4/BLE_1_eventHandler.c ****         case CYBLE_EVT_GATTC_READ_BY_GROUP_TYPE_RSP:
1955:.\Generated_Source\PSoC4/BLE_1_eventHandler.c ****             CyBle_ReadByGroupEventHandler((CYBLE_GATTC_READ_BY_GRP_RSP_PARAM_T *)eventParam);
1956:.\Generated_Source\PSoC4/BLE_1_eventHandler.c ****             break;
1957:.\Generated_Source\PSoC4/BLE_1_eventHandler.c **** 
1958:.\Generated_Source\PSoC4/BLE_1_eventHandler.c ****         case CYBLE_EVT_GATTC_READ_BY_TYPE_RSP:
1959:.\Generated_Source\PSoC4/BLE_1_eventHandler.c ****             CyBle_ReadByTypeEventHandler((CYBLE_GATTC_READ_BY_TYPE_RSP_PARAM_T *)eventParam);
1960:.\Generated_Source\PSoC4/BLE_1_eventHandler.c ****             break;
1961:.\Generated_Source\PSoC4/BLE_1_eventHandler.c **** 
1962:.\Generated_Source\PSoC4/BLE_1_eventHandler.c ****         case CYBLE_EVT_GATTC_READ_BLOB_RSP:
1963:.\Generated_Source\PSoC4/BLE_1_eventHandler.c ****         #ifdef CYBLE_ESS_CLIENT
1964:.\Generated_Source\PSoC4/BLE_1_eventHandler.c ****             CyBle_EsscReadLongRespEventHandler((CYBLE_GATTC_READ_RSP_PARAM_T *)eventParam);
1965:.\Generated_Source\PSoC4/BLE_1_eventHandler.c ****         #endif /* CYBLE_ESS_CLIENT */
1966:.\Generated_Source\PSoC4/BLE_1_eventHandler.c ****         #ifdef CYBLE_HPS_CLIENT
1967:.\Generated_Source\PSoC4/BLE_1_eventHandler.c ****             CyBle_HpscReadLongRespEventHandler((CYBLE_GATTC_READ_RSP_PARAM_T *)eventParam);
1968:.\Generated_Source\PSoC4/BLE_1_eventHandler.c ****         #endif /* CYBLE_HPS_CLIENT */
1969:.\Generated_Source\PSoC4/BLE_1_eventHandler.c **** 		#ifdef CYBLE_IPS_CLIENT
1970:.\Generated_Source\PSoC4/BLE_1_eventHandler.c ****             CyBle_IpscReadLongRespEventHandler((CYBLE_GATTC_READ_RSP_PARAM_T *)eventParam);
1971:.\Generated_Source\PSoC4/BLE_1_eventHandler.c ****         #endif /* CYBLE_IPS_CLIENT */
1972:.\Generated_Source\PSoC4/BLE_1_eventHandler.c ****         #ifdef CYBLE_UDS_CLIENT
1973:.\Generated_Source\PSoC4/BLE_1_eventHandler.c ****             if((cyBle_eventHandlerFlag & CYBLE_CALLBACK) != 0u)
1974:.\Generated_Source\PSoC4/BLE_1_eventHandler.c ****             {
1975:.\Generated_Source\PSoC4/BLE_1_eventHandler.c ****                 CyBle_UdscReadLongRespEventHandler((CYBLE_GATTC_READ_RSP_PARAM_T *)eventParam);
1976:.\Generated_Source\PSoC4/BLE_1_eventHandler.c ****             }
1977:.\Generated_Source\PSoC4/BLE_1_eventHandler.c ****         #endif /* CYBLE_UDS_CLIENT */
1978:.\Generated_Source\PSoC4/BLE_1_eventHandler.c ****             break;
1979:.\Generated_Source\PSoC4/BLE_1_eventHandler.c ****         
1980:.\Generated_Source\PSoC4/BLE_1_eventHandler.c ****         case CYBLE_EVT_GATTC_LONG_PROCEDURE_END:
1981:.\Generated_Source\PSoC4/BLE_1_eventHandler.c ****             CyBle_LongProcedureEndEventHandler();
1982:.\Generated_Source\PSoC4/BLE_1_eventHandler.c ****             break;
1983:.\Generated_Source\PSoC4/BLE_1_eventHandler.c ****         
1984:.\Generated_Source\PSoC4/BLE_1_eventHandler.c ****         case CYBLE_EVT_GATTC_FIND_INFO_RSP:
1985:.\Generated_Source\PSoC4/BLE_1_eventHandler.c ****             CyBle_FindInfoEventHandler((CYBLE_GATTC_FIND_INFO_RSP_PARAM_T *)eventParam);
ARM GAS  C:\Users\Ecapable\AppData\Local\Temp\ccmAuCaF.s 			page 53


1986:.\Generated_Source\PSoC4/BLE_1_eventHandler.c ****             break;
1987:.\Generated_Source\PSoC4/BLE_1_eventHandler.c **** 
1988:.\Generated_Source\PSoC4/BLE_1_eventHandler.c ****         case CYBLE_EVT_GATTC_ERROR_RSP:
1989:.\Generated_Source\PSoC4/BLE_1_eventHandler.c ****             CyBle_ErrorResponseEventHandler((CYBLE_GATTC_ERR_RSP_PARAM_T *)eventParam);
1990:.\Generated_Source\PSoC4/BLE_1_eventHandler.c ****             break;
1991:.\Generated_Source\PSoC4/BLE_1_eventHandler.c **** 
1992:.\Generated_Source\PSoC4/BLE_1_eventHandler.c ****         case CYBLE_EVT_GATTC_HANDLE_VALUE_NTF:
1993:.\Generated_Source\PSoC4/BLE_1_eventHandler.c ****             CyBle_NotificationEventHandler((CYBLE_GATTC_HANDLE_VALUE_NTF_PARAM_T *)eventParam);
1994:.\Generated_Source\PSoC4/BLE_1_eventHandler.c ****             break;
1995:.\Generated_Source\PSoC4/BLE_1_eventHandler.c **** 
1996:.\Generated_Source\PSoC4/BLE_1_eventHandler.c ****         case CYBLE_EVT_GATTC_HANDLE_VALUE_IND:
1997:.\Generated_Source\PSoC4/BLE_1_eventHandler.c ****             CyBle_GattcIndicationEventHandler((CYBLE_GATTC_HANDLE_VALUE_IND_PARAM_T *)eventParam);
1998:.\Generated_Source\PSoC4/BLE_1_eventHandler.c ****             CyBle_IndicationEventHandler((CYBLE_GATTC_HANDLE_VALUE_IND_PARAM_T *)eventParam);
1999:.\Generated_Source\PSoC4/BLE_1_eventHandler.c ****         
2000:.\Generated_Source\PSoC4/BLE_1_eventHandler.c ****             /* Respond with a Handle Value Confirmation when request handled */
2001:.\Generated_Source\PSoC4/BLE_1_eventHandler.c ****             if((cyBle_eventHandlerFlag & CYBLE_CALLBACK) == 0u)
2002:.\Generated_Source\PSoC4/BLE_1_eventHandler.c ****             {
2003:.\Generated_Source\PSoC4/BLE_1_eventHandler.c ****                 (void)CyBle_GattcConfirmation(((CYBLE_GATTC_HANDLE_VALUE_IND_PARAM_T *)eventParam)-
2004:.\Generated_Source\PSoC4/BLE_1_eventHandler.c ****             }
2005:.\Generated_Source\PSoC4/BLE_1_eventHandler.c ****             break;
2006:.\Generated_Source\PSoC4/BLE_1_eventHandler.c ****         
2007:.\Generated_Source\PSoC4/BLE_1_eventHandler.c ****         case CYBLE_EVT_GATTC_READ_RSP:
2008:.\Generated_Source\PSoC4/BLE_1_eventHandler.c ****             CyBle_ReadResponseEventHandler((CYBLE_GATTC_READ_RSP_PARAM_T *)eventParam);
2009:.\Generated_Source\PSoC4/BLE_1_eventHandler.c ****             break;
2010:.\Generated_Source\PSoC4/BLE_1_eventHandler.c ****         
2011:.\Generated_Source\PSoC4/BLE_1_eventHandler.c ****         case CYBLE_EVT_GATTC_READ_MULTI_RSP:
2012:.\Generated_Source\PSoC4/BLE_1_eventHandler.c ****             CyBle_ReadMultipleResponseEventHandler((CYBLE_GATTC_READ_RSP_PARAM_T *)eventParam);
2013:.\Generated_Source\PSoC4/BLE_1_eventHandler.c ****             break;
2014:.\Generated_Source\PSoC4/BLE_1_eventHandler.c ****             
2015:.\Generated_Source\PSoC4/BLE_1_eventHandler.c ****         case CYBLE_EVT_GATTC_WRITE_RSP:
2016:.\Generated_Source\PSoC4/BLE_1_eventHandler.c ****             CyBle_GattcWriteResponseEventHandler((CYBLE_CONN_HANDLE_T *)eventParam);
2017:.\Generated_Source\PSoC4/BLE_1_eventHandler.c ****             break;
2018:.\Generated_Source\PSoC4/BLE_1_eventHandler.c ****             
2019:.\Generated_Source\PSoC4/BLE_1_eventHandler.c ****         case CYBLE_EVT_GATTC_EXEC_WRITE_RSP:
2020:.\Generated_Source\PSoC4/BLE_1_eventHandler.c ****         #ifdef CYBLE_BMS_CLIENT
2021:.\Generated_Source\PSoC4/BLE_1_eventHandler.c ****             CyBle_BmscExecuteWriteResponseEventHandler((CYBLE_GATTC_EXEC_WRITE_RSP_T *)eventParam);
2022:.\Generated_Source\PSoC4/BLE_1_eventHandler.c ****         #endif /* CYBLE_BMS_CLIENT */
2023:.\Generated_Source\PSoC4/BLE_1_eventHandler.c ****         #ifdef CYBLE_ESS_CLIENT
2024:.\Generated_Source\PSoC4/BLE_1_eventHandler.c ****             if((cyBle_eventHandlerFlag & CYBLE_CALLBACK) != 0u)
2025:.\Generated_Source\PSoC4/BLE_1_eventHandler.c ****             {
2026:.\Generated_Source\PSoC4/BLE_1_eventHandler.c ****                 CyBle_EsscExecuteWriteResponseEventHandler((CYBLE_GATTC_EXEC_WRITE_RSP_T *)eventPar
2027:.\Generated_Source\PSoC4/BLE_1_eventHandler.c ****             }
2028:.\Generated_Source\PSoC4/BLE_1_eventHandler.c ****         #endif /* CYBLE_ESS_CLIENT */
2029:.\Generated_Source\PSoC4/BLE_1_eventHandler.c ****         #ifdef CYBLE_HPS_CLIENT
2030:.\Generated_Source\PSoC4/BLE_1_eventHandler.c ****             if((cyBle_eventHandlerFlag & CYBLE_CALLBACK) != 0u)
2031:.\Generated_Source\PSoC4/BLE_1_eventHandler.c ****             {
2032:.\Generated_Source\PSoC4/BLE_1_eventHandler.c ****                 CyBle_HpscExecuteWriteResponseEventHandler((CYBLE_GATTC_EXEC_WRITE_RSP_T *)eventPar
2033:.\Generated_Source\PSoC4/BLE_1_eventHandler.c ****             }
2034:.\Generated_Source\PSoC4/BLE_1_eventHandler.c ****         #endif /* CYBLE_HPS_CLIENT */
2035:.\Generated_Source\PSoC4/BLE_1_eventHandler.c ****         #ifdef CYBLE_IPS_CLIENT
2036:.\Generated_Source\PSoC4/BLE_1_eventHandler.c ****             if((cyBle_eventHandlerFlag & CYBLE_CALLBACK) != 0u)
2037:.\Generated_Source\PSoC4/BLE_1_eventHandler.c ****             {
2038:.\Generated_Source\PSoC4/BLE_1_eventHandler.c ****                 CyBle_IpscExecuteWriteResponseEventHandler((CYBLE_GATTC_EXEC_WRITE_RSP_T *)eventPar
2039:.\Generated_Source\PSoC4/BLE_1_eventHandler.c ****             }
2040:.\Generated_Source\PSoC4/BLE_1_eventHandler.c ****         #endif /* CYBLE_IPS_CLIENT */
2041:.\Generated_Source\PSoC4/BLE_1_eventHandler.c ****         #ifdef CYBLE_UDS_CLIENT
2042:.\Generated_Source\PSoC4/BLE_1_eventHandler.c ****             if((cyBle_eventHandlerFlag & CYBLE_CALLBACK) != 0u)
ARM GAS  C:\Users\Ecapable\AppData\Local\Temp\ccmAuCaF.s 			page 54


2043:.\Generated_Source\PSoC4/BLE_1_eventHandler.c ****             {
2044:.\Generated_Source\PSoC4/BLE_1_eventHandler.c ****                 CyBle_UdscExecuteWriteResponseEventHandler((CYBLE_GATTC_EXEC_WRITE_RSP_T *)eventPar
2045:.\Generated_Source\PSoC4/BLE_1_eventHandler.c ****             }
2046:.\Generated_Source\PSoC4/BLE_1_eventHandler.c ****         #endif /* CYBLE_UDS_CLIENT */
2047:.\Generated_Source\PSoC4/BLE_1_eventHandler.c ****             break;
2048:.\Generated_Source\PSoC4/BLE_1_eventHandler.c ****             
2049:.\Generated_Source\PSoC4/BLE_1_eventHandler.c ****     #endif /* CYBLE_GATT_ROLE_CLIENT */
2050:.\Generated_Source\PSoC4/BLE_1_eventHandler.c **** 
2051:.\Generated_Source\PSoC4/BLE_1_eventHandler.c ****     #if((CYBLE_GAP_ROLE_PERIPHERAL || CYBLE_GAP_ROLE_CENTRAL) && (CYBLE_BONDING_REQUIREMENT == CYBL
2052:.\Generated_Source\PSoC4/BLE_1_eventHandler.c **** 
2053:.\Generated_Source\PSoC4/BLE_1_eventHandler.c ****         case CYBLE_EVT_PENDING_FLASH_WRITE:
2054:.\Generated_Source\PSoC4/BLE_1_eventHandler.c ****             cyBle_pendingFlashWrite |= CYBLE_PENDING_STACK_FLASH_WRITE_BIT;
2055:.\Generated_Source\PSoC4/BLE_1_eventHandler.c ****             break;
2056:.\Generated_Source\PSoC4/BLE_1_eventHandler.c ****         
2057:.\Generated_Source\PSoC4/BLE_1_eventHandler.c ****     #endif  /* (CYBLE_BONDING_REQUIREMENT == CYBLE_BONDING_YES) */
2058:.\Generated_Source\PSoC4/BLE_1_eventHandler.c ****     
2059:.\Generated_Source\PSoC4/BLE_1_eventHandler.c ****         default:
2060:.\Generated_Source\PSoC4/BLE_1_eventHandler.c ****             break;
 975              		.loc 1 2060 0
 976 02ee C046     		mov	r8, r8
 977              	.L45:
2061:.\Generated_Source\PSoC4/BLE_1_eventHandler.c ****     }
2062:.\Generated_Source\PSoC4/BLE_1_eventHandler.c **** 
2063:.\Generated_Source\PSoC4/BLE_1_eventHandler.c ****     if(0u != (cyBle_eventHandlerFlag & (CYBLE_CALLBACK | CYBLE_ENABLE_ALL_EVENTS))) 
 978              		.loc 1 2063 0
 979 02f0 0C4B     		ldr	r3, .L57
 980 02f2 1B78     		ldrb	r3, [r3]
 981 02f4 DBB2     		uxtb	r3, r3
 982 02f6 1A1C     		mov	r2, r3
 983 02f8 1123     		mov	r3, #17
 984 02fa 1340     		and	r3, r2
 985 02fc 0FD0     		beq	.L20
2064:.\Generated_Source\PSoC4/BLE_1_eventHandler.c ****     {
2065:.\Generated_Source\PSoC4/BLE_1_eventHandler.c ****         cyBle_eventHandlerFlag &= (uint8)~CYBLE_CALLBACK;
 986              		.loc 1 2065 0
 987 02fe 094B     		ldr	r3, .L57
 988 0300 1B78     		ldrb	r3, [r3]
 989 0302 DBB2     		uxtb	r3, r3
 990 0304 0122     		mov	r2, #1
 991 0306 9343     		bic	r3, r2
 992 0308 DAB2     		uxtb	r2, r3
 993 030a 064B     		ldr	r3, .L57
 994 030c 1A70     		strb	r2, [r3]
2066:.\Generated_Source\PSoC4/BLE_1_eventHandler.c ****         CyBle_ApplCallback((uint32)eventCode, eventParam);
 995              		.loc 1 2066 0
 996 030e 144B     		ldr	r3, .L57+60
 997 0310 1B68     		ldr	r3, [r3]
 998 0312 FA1D     		add	r2, r7, #7
 999 0314 1178     		ldrb	r1, [r2]
 1000 0316 3A68     		ldr	r2, [r7]
 1001 0318 081C     		mov	r0, r1
 1002 031a 111C     		mov	r1, r2
 1003 031c 9847     		blx	r3
 1004              	.L20:
2067:.\Generated_Source\PSoC4/BLE_1_eventHandler.c ****     }
2068:.\Generated_Source\PSoC4/BLE_1_eventHandler.c **** }
 1005              		.loc 1 2068 0
ARM GAS  C:\Users\Ecapable\AppData\Local\Temp\ccmAuCaF.s 			page 55


 1006 031e BD46     		mov	sp, r7
 1007 0320 08B0     		add	sp, sp, #32
 1008              		@ sp needed
 1009 0322 80BD     		pop	{r7, pc}
 1010              	.L58:
 1011              		.align	2
 1012              	.L57:
 1013 0324 00000000 		.word	cyBle_eventHandlerFlag
 1014 0328 00000000 		.word	.L23
 1015 032c 00000000 		.word	cyBle_sflashDeviceAddress
 1016 0330 7CF1FF0F 		.word	268431740
 1017 0334 7DF1FF0F 		.word	268431741
 1018 0338 7BF1FF0F 		.word	268431739
 1019 033c 78F1FF0F 		.word	268431736
 1020 0340 00000000 		.word	cyBle_deviceAddress
 1021 0344 00000000 		.word	cyBle_state
 1022 0348 00000000 		.word	cyBle_busyStatus
 1023 034c 00000000 		.word	gPrepWriteReqMem.6332
 1024 0350 E00A0000 		.word	cyBle_stackMemoryRam+2784
 1025 0354 00000000 		.word	cyBle_authInfo
 1026 0358 00000000 		.word	cyBle_connHandle
 1027 035c 00000000 		.word	cyBle_advertisingIntervalType
 1028 0360 00000000 		.word	CyBle_ApplCallback
 1029              		.cfi_endproc
 1030              	.LFE10:
 1031              		.size	CyBle_EventHandler, .-CyBle_EventHandler
 1032              		.bss
 1033              		.align	2
 1034              	gPrepWriteReqMem.6332:
 1035 0000 00000000 		.space	8
 1035      00000000 
 1036              		.text
 1037              	.Letext0:
 1038              		.file 2 ".\\Generated_Source\\PSoC4\\cytypes.h"
 1039              		.file 3 ".\\Generated_Source\\PSoC4\\BLE_1_Stack.h"
 1040              		.file 4 ".\\Generated_Source\\PSoC4\\BLE_1_StackHostMain.h"
 1041              		.file 5 ".\\Generated_Source\\PSoC4\\BLE_1_StackGap.h"
 1042              		.file 6 ".\\Generated_Source\\PSoC4\\BLE_1_StackGatt.h"
 1043              		.file 7 ".\\Generated_Source\\PSoC4\\BLE_1_StackGattServer.h"
 1044              		.file 8 ".\\Generated_Source\\PSoC4\\BLE_1.h"
 1045              		.file 9 ".\\Generated_Source\\PSoC4\\BLE_1_eventHandler.h"
 1046              		.section	.debug_info,"",%progbits
 1047              	.Ldebug_info0:
 1048 0000 CF0C0000 		.4byte	0xccf
 1049 0004 0400     		.2byte	0x4
 1050 0006 00000000 		.4byte	.Ldebug_abbrev0
 1051 000a 04       		.byte	0x4
 1052 000b 01       		.uleb128 0x1
 1053 000c C0190000 		.4byte	.LASF310
 1054 0010 01       		.byte	0x1
 1055 0011 81040000 		.4byte	.LASF311
 1056 0015 13080000 		.4byte	.LASF312
 1057 0019 00000000 		.4byte	.Ldebug_ranges0+0
 1058 001d 00000000 		.4byte	0
 1059 0021 00000000 		.4byte	.Ldebug_line0
 1060 0025 02       		.uleb128 0x2
 1061 0026 01       		.byte	0x1
ARM GAS  C:\Users\Ecapable\AppData\Local\Temp\ccmAuCaF.s 			page 56


 1062 0027 06       		.byte	0x6
 1063 0028 ED060000 		.4byte	.LASF0
 1064 002c 02       		.uleb128 0x2
 1065 002d 01       		.byte	0x1
 1066 002e 08       		.byte	0x8
 1067 002f 5F080000 		.4byte	.LASF1
 1068 0033 02       		.uleb128 0x2
 1069 0034 02       		.byte	0x2
 1070 0035 05       		.byte	0x5
 1071 0036 161C0000 		.4byte	.LASF2
 1072 003a 02       		.uleb128 0x2
 1073 003b 02       		.byte	0x2
 1074 003c 07       		.byte	0x7
 1075 003d 33200000 		.4byte	.LASF3
 1076 0041 02       		.uleb128 0x2
 1077 0042 04       		.byte	0x4
 1078 0043 05       		.byte	0x5
 1079 0044 E6040000 		.4byte	.LASF4
 1080 0048 02       		.uleb128 0x2
 1081 0049 04       		.byte	0x4
 1082 004a 07       		.byte	0x7
 1083 004b 970E0000 		.4byte	.LASF5
 1084 004f 02       		.uleb128 0x2
 1085 0050 08       		.byte	0x8
 1086 0051 05       		.byte	0x5
 1087 0052 6E110000 		.4byte	.LASF6
 1088 0056 02       		.uleb128 0x2
 1089 0057 08       		.byte	0x8
 1090 0058 07       		.byte	0x7
 1091 0059 40180000 		.4byte	.LASF7
 1092 005d 03       		.uleb128 0x3
 1093 005e 04       		.byte	0x4
 1094 005f 05       		.byte	0x5
 1095 0060 696E7400 		.ascii	"int\000"
 1096 0064 02       		.uleb128 0x2
 1097 0065 04       		.byte	0x4
 1098 0066 07       		.byte	0x7
 1099 0067 0E140000 		.4byte	.LASF8
 1100 006b 04       		.uleb128 0x4
 1101 006c 9D1B0000 		.4byte	.LASF9
 1102 0070 02       		.byte	0x2
 1103 0071 9801     		.2byte	0x198
 1104 0073 2C000000 		.4byte	0x2c
 1105 0077 04       		.uleb128 0x4
 1106 0078 AB210000 		.4byte	.LASF10
 1107 007c 02       		.byte	0x2
 1108 007d 9901     		.2byte	0x199
 1109 007f 3A000000 		.4byte	0x3a
 1110 0083 04       		.uleb128 0x4
 1111 0084 0B010000 		.4byte	.LASF11
 1112 0088 02       		.byte	0x2
 1113 0089 9A01     		.2byte	0x19a
 1114 008b 48000000 		.4byte	0x48
 1115 008f 02       		.uleb128 0x2
 1116 0090 04       		.byte	0x4
 1117 0091 04       		.byte	0x4
 1118 0092 58130000 		.4byte	.LASF12
ARM GAS  C:\Users\Ecapable\AppData\Local\Temp\ccmAuCaF.s 			page 57


 1119 0096 02       		.uleb128 0x2
 1120 0097 08       		.byte	0x8
 1121 0098 04       		.byte	0x4
 1122 0099 28120000 		.4byte	.LASF13
 1123 009d 02       		.uleb128 0x2
 1124 009e 01       		.byte	0x1
 1125 009f 08       		.byte	0x8
 1126 00a0 99090000 		.4byte	.LASF14
 1127 00a4 05       		.uleb128 0x5
 1128 00a5 6B000000 		.4byte	0x6b
 1129 00a9 02       		.uleb128 0x2
 1130 00aa 04       		.byte	0x4
 1131 00ab 07       		.byte	0x7
 1132 00ac 1B000000 		.4byte	.LASF15
 1133 00b0 06       		.uleb128 0x6
 1134 00b1 04       		.byte	0x4
 1135 00b2 07       		.uleb128 0x7
 1136 00b3 01       		.byte	0x1
 1137 00b4 03       		.byte	0x3
 1138 00b5 4201     		.2byte	0x142
 1139 00b7 6F020000 		.4byte	0x26f
 1140 00bb 08       		.uleb128 0x8
 1141 00bc 210A0000 		.4byte	.LASF16
 1142 00c0 00       		.sleb128 0
 1143 00c1 08       		.uleb128 0x8
 1144 00c2 69050000 		.4byte	.LASF17
 1145 00c6 01       		.sleb128 1
 1146 00c7 08       		.uleb128 0x8
 1147 00c8 75180000 		.4byte	.LASF18
 1148 00cc 02       		.sleb128 2
 1149 00cd 08       		.uleb128 0x8
 1150 00ce 2E070000 		.4byte	.LASF19
 1151 00d2 03       		.sleb128 3
 1152 00d3 08       		.uleb128 0x8
 1153 00d4 CE200000 		.4byte	.LASF20
 1154 00d8 04       		.sleb128 4
 1155 00d9 08       		.uleb128 0x8
 1156 00da E11E0000 		.4byte	.LASF21
 1157 00de 05       		.sleb128 5
 1158 00df 08       		.uleb128 0x8
 1159 00e0 37170000 		.4byte	.LASF22
 1160 00e4 06       		.sleb128 6
 1161 00e5 08       		.uleb128 0x8
 1162 00e6 271D0000 		.4byte	.LASF23
 1163 00ea 20       		.sleb128 32
 1164 00eb 08       		.uleb128 0x8
 1165 00ec 33030000 		.4byte	.LASF24
 1166 00f0 21       		.sleb128 33
 1167 00f1 08       		.uleb128 0x8
 1168 00f2 BA100000 		.4byte	.LASF25
 1169 00f6 22       		.sleb128 34
 1170 00f7 08       		.uleb128 0x8
 1171 00f8 F8150000 		.4byte	.LASF26
 1172 00fc 23       		.sleb128 35
 1173 00fd 08       		.uleb128 0x8
 1174 00fe DB0D0000 		.4byte	.LASF27
 1175 0102 24       		.sleb128 36
ARM GAS  C:\Users\Ecapable\AppData\Local\Temp\ccmAuCaF.s 			page 58


 1176 0103 08       		.uleb128 0x8
 1177 0104 F70D0000 		.4byte	.LASF28
 1178 0108 25       		.sleb128 37
 1179 0109 08       		.uleb128 0x8
 1180 010a 751B0000 		.4byte	.LASF29
 1181 010e 26       		.sleb128 38
 1182 010f 08       		.uleb128 0x8
 1183 0110 9B000000 		.4byte	.LASF30
 1184 0114 27       		.sleb128 39
 1185 0115 08       		.uleb128 0x8
 1186 0116 68210000 		.4byte	.LASF31
 1187 011a 28       		.sleb128 40
 1188 011b 08       		.uleb128 0x8
 1189 011c 6A170000 		.4byte	.LASF32
 1190 0120 29       		.sleb128 41
 1191 0121 08       		.uleb128 0x8
 1192 0122 11100000 		.4byte	.LASF33
 1193 0126 2A       		.sleb128 42
 1194 0127 08       		.uleb128 0x8
 1195 0128 69150000 		.4byte	.LASF34
 1196 012c 2B       		.sleb128 43
 1197 012d 08       		.uleb128 0x8
 1198 012e 561F0000 		.4byte	.LASF35
 1199 0132 2C       		.sleb128 44
 1200 0133 08       		.uleb128 0x8
 1201 0134 49000000 		.4byte	.LASF36
 1202 0138 2D       		.sleb128 45
 1203 0139 08       		.uleb128 0x8
 1204 013a B21B0000 		.4byte	.LASF37
 1205 013e 2E       		.sleb128 46
 1206 013f 08       		.uleb128 0x8
 1207 0140 DB030000 		.4byte	.LASF38
 1208 0144 2F       		.sleb128 47
 1209 0145 08       		.uleb128 0x8
 1210 0146 78090000 		.4byte	.LASF39
 1211 014a 30       		.sleb128 48
 1212 014b 08       		.uleb128 0x8
 1213 014c DA120000 		.4byte	.LASF40
 1214 0150 31       		.sleb128 49
 1215 0151 08       		.uleb128 0x8
 1216 0152 710A0000 		.4byte	.LASF41
 1217 0156 32       		.sleb128 50
 1218 0157 08       		.uleb128 0x8
 1219 0158 A7080000 		.4byte	.LASF42
 1220 015c 33       		.sleb128 51
 1221 015d 08       		.uleb128 0x8
 1222 015e A11C0000 		.4byte	.LASF43
 1223 0162 C000     		.sleb128 64
 1224 0164 08       		.uleb128 0x8
 1225 0165 DB000000 		.4byte	.LASF44
 1226 0169 C100     		.sleb128 65
 1227 016b 08       		.uleb128 0x8
 1228 016c E3200000 		.4byte	.LASF45
 1229 0170 C200     		.sleb128 66
 1230 0172 08       		.uleb128 0x8
 1231 0173 93170000 		.4byte	.LASF46
 1232 0177 C300     		.sleb128 67
ARM GAS  C:\Users\Ecapable\AppData\Local\Temp\ccmAuCaF.s 			page 59


 1233 0179 08       		.uleb128 0x8
 1234 017a 6D080000 		.4byte	.LASF47
 1235 017e C400     		.sleb128 68
 1236 0180 08       		.uleb128 0x8
 1237 0181 AF070000 		.4byte	.LASF48
 1238 0185 C500     		.sleb128 69
 1239 0187 08       		.uleb128 0x8
 1240 0188 DB1A0000 		.4byte	.LASF49
 1241 018c C600     		.sleb128 70
 1242 018e 08       		.uleb128 0x8
 1243 018f BD1A0000 		.4byte	.LASF50
 1244 0193 C700     		.sleb128 71
 1245 0195 08       		.uleb128 0x8
 1246 0196 51090000 		.4byte	.LASF51
 1247 019a C800     		.sleb128 72
 1248 019c 08       		.uleb128 0x8
 1249 019d 6D160000 		.4byte	.LASF52
 1250 01a1 C900     		.sleb128 73
 1251 01a3 08       		.uleb128 0x8
 1252 01a4 C80A0000 		.4byte	.LASF53
 1253 01a8 CA00     		.sleb128 74
 1254 01aa 08       		.uleb128 0x8
 1255 01ab CE090000 		.4byte	.LASF54
 1256 01af CB00     		.sleb128 75
 1257 01b1 08       		.uleb128 0x8
 1258 01b2 C2150000 		.4byte	.LASF55
 1259 01b6 CC00     		.sleb128 76
 1260 01b8 08       		.uleb128 0x8
 1261 01b9 3B1B0000 		.4byte	.LASF56
 1262 01bd CD00     		.sleb128 77
 1263 01bf 08       		.uleb128 0x8
 1264 01c0 C8040000 		.4byte	.LASF57
 1265 01c4 CE00     		.sleb128 78
 1266 01c6 08       		.uleb128 0x8
 1267 01c7 1B140000 		.4byte	.LASF58
 1268 01cb CF00     		.sleb128 79
 1269 01cd 08       		.uleb128 0x8
 1270 01ce 081D0000 		.4byte	.LASF59
 1271 01d2 D000     		.sleb128 80
 1272 01d4 08       		.uleb128 0x8
 1273 01d5 0B0B0000 		.4byte	.LASF60
 1274 01d9 D100     		.sleb128 81
 1275 01db 08       		.uleb128 0x8
 1276 01dc 12030000 		.4byte	.LASF61
 1277 01e0 D200     		.sleb128 82
 1278 01e2 08       		.uleb128 0x8
 1279 01e3 9F1E0000 		.4byte	.LASF62
 1280 01e7 D300     		.sleb128 83
 1281 01e9 08       		.uleb128 0x8
 1282 01ea 8A210000 		.4byte	.LASF63
 1283 01ee D400     		.sleb128 84
 1284 01f0 08       		.uleb128 0x8
 1285 01f1 F7010000 		.4byte	.LASF64
 1286 01f5 D500     		.sleb128 85
 1287 01f7 08       		.uleb128 0x8
 1288 01f8 9B0B0000 		.4byte	.LASF65
 1289 01fc D600     		.sleb128 86
ARM GAS  C:\Users\Ecapable\AppData\Local\Temp\ccmAuCaF.s 			page 60


 1290 01fe 08       		.uleb128 0x8
 1291 01ff 83130000 		.4byte	.LASF66
 1292 0203 D700     		.sleb128 87
 1293 0205 08       		.uleb128 0x8
 1294 0206 45210000 		.4byte	.LASF67
 1295 020a D800     		.sleb128 88
 1296 020c 08       		.uleb128 0x8
 1297 020d C41F0000 		.4byte	.LASF68
 1298 0211 F000     		.sleb128 112
 1299 0213 08       		.uleb128 0x8
 1300 0214 600D0000 		.4byte	.LASF69
 1301 0218 F100     		.sleb128 113
 1302 021a 08       		.uleb128 0x8
 1303 021b 6B060000 		.4byte	.LASF70
 1304 021f F200     		.sleb128 114
 1305 0221 08       		.uleb128 0x8
 1306 0222 EA1C0000 		.4byte	.LASF71
 1307 0226 F300     		.sleb128 115
 1308 0228 08       		.uleb128 0x8
 1309 0229 C0160000 		.4byte	.LASF72
 1310 022d F400     		.sleb128 116
 1311 022f 08       		.uleb128 0x8
 1312 0230 99100000 		.4byte	.LASF73
 1313 0234 F500     		.sleb128 117
 1314 0236 08       		.uleb128 0x8
 1315 0237 30090000 		.4byte	.LASF74
 1316 023b F600     		.sleb128 118
 1317 023d 08       		.uleb128 0x8
 1318 023e E8180000 		.4byte	.LASF75
 1319 0242 F700     		.sleb128 119
 1320 0244 08       		.uleb128 0x8
 1321 0245 1B020000 		.4byte	.LASF76
 1322 0249 F800     		.sleb128 120
 1323 024b 08       		.uleb128 0x8
 1324 024c CE080000 		.4byte	.LASF77
 1325 0250 F900     		.sleb128 121
 1326 0252 08       		.uleb128 0x8
 1327 0253 21210000 		.4byte	.LASF78
 1328 0257 FA00     		.sleb128 122
 1329 0259 08       		.uleb128 0x8
 1330 025a 51120000 		.4byte	.LASF79
 1331 025e FA01     		.sleb128 250
 1332 0260 08       		.uleb128 0x8
 1333 0261 6C1E0000 		.4byte	.LASF80
 1334 0265 FB01     		.sleb128 251
 1335 0267 08       		.uleb128 0x8
 1336 0268 5B150000 		.4byte	.LASF81
 1337 026c FF01     		.sleb128 255
 1338 026e 00       		.byte	0
 1339 026f 07       		.uleb128 0x7
 1340 0270 02       		.byte	0x2
 1341 0271 03       		.byte	0x3
 1342 0272 FF02     		.2byte	0x2ff
 1343 0274 3F030000 		.4byte	0x33f
 1344 0278 08       		.uleb128 0x8
 1345 0279 5A070000 		.4byte	.LASF82
 1346 027d 00       		.sleb128 0
ARM GAS  C:\Users\Ecapable\AppData\Local\Temp\ccmAuCaF.s 			page 61


 1347 027e 08       		.uleb128 0x8
 1348 027f 210C0000 		.4byte	.LASF83
 1349 0283 01       		.sleb128 1
 1350 0284 08       		.uleb128 0x8
 1351 0285 B0200000 		.4byte	.LASF84
 1352 0289 02       		.sleb128 2
 1353 028a 08       		.uleb128 0x8
 1354 028b 970C0000 		.4byte	.LASF85
 1355 028f 03       		.sleb128 3
 1356 0290 08       		.uleb128 0x8
 1357 0291 380E0000 		.4byte	.LASF86
 1358 0295 04       		.sleb128 4
 1359 0296 08       		.uleb128 0x8
 1360 0297 0A120000 		.4byte	.LASF87
 1361 029b 05       		.sleb128 5
 1362 029c 08       		.uleb128 0x8
 1363 029d 261E0000 		.4byte	.LASF88
 1364 02a1 06       		.sleb128 6
 1365 02a2 08       		.uleb128 0x8
 1366 02a3 AB0A0000 		.4byte	.LASF89
 1367 02a7 07       		.sleb128 7
 1368 02a8 08       		.uleb128 0x8
 1369 02a9 22130000 		.4byte	.LASF90
 1370 02ad 08       		.sleb128 8
 1371 02ae 08       		.uleb128 0x8
 1372 02af 871D0000 		.4byte	.LASF91
 1373 02b3 09       		.sleb128 9
 1374 02b4 08       		.uleb128 0x8
 1375 02b5 B2210000 		.4byte	.LASF92
 1376 02b9 0A       		.sleb128 10
 1377 02ba 08       		.uleb128 0x8
 1378 02bb 5E030000 		.4byte	.LASF93
 1379 02bf 0B       		.sleb128 11
 1380 02c0 08       		.uleb128 0x8
 1381 02c1 CA1E0000 		.4byte	.LASF94
 1382 02c5 0C       		.sleb128 12
 1383 02c6 08       		.uleb128 0x8
 1384 02c7 E5140000 		.4byte	.LASF95
 1385 02cb 0D       		.sleb128 13
 1386 02cc 08       		.uleb128 0x8
 1387 02cd 9F0F0000 		.4byte	.LASF96
 1388 02d1 0E       		.sleb128 14
 1389 02d2 08       		.uleb128 0x8
 1390 02d3 E5110000 		.4byte	.LASF97
 1391 02d7 0F       		.sleb128 15
 1392 02d8 08       		.uleb128 0x8
 1393 02d9 AD010000 		.4byte	.LASF98
 1394 02dd 10       		.sleb128 16
 1395 02de 08       		.uleb128 0x8
 1396 02df FE120000 		.4byte	.LASF99
 1397 02e3 11       		.sleb128 17
 1398 02e4 08       		.uleb128 0x8
 1399 02e5 7C050000 		.4byte	.LASF100
 1400 02e9 12       		.sleb128 18
 1401 02ea 08       		.uleb128 0x8
 1402 02eb C5060000 		.4byte	.LASF101
 1403 02ef 13       		.sleb128 19
ARM GAS  C:\Users\Ecapable\AppData\Local\Temp\ccmAuCaF.s 			page 62


 1404 02f0 08       		.uleb128 0x8
 1405 02f1 2F120000 		.4byte	.LASF102
 1406 02f5 27       		.sleb128 39
 1407 02f6 08       		.uleb128 0x8
 1408 02f7 5E130000 		.4byte	.LASF103
 1409 02fb 28       		.sleb128 40
 1410 02fc 08       		.uleb128 0x8
 1411 02fd DB010000 		.4byte	.LASF104
 1412 0301 29       		.sleb128 41
 1413 0302 08       		.uleb128 0x8
 1414 0303 281C0000 		.4byte	.LASF105
 1415 0307 2A       		.sleb128 42
 1416 0308 08       		.uleb128 0x8
 1417 0309 DF0E0000 		.4byte	.LASF106
 1418 030d 2B       		.sleb128 43
 1419 030e 08       		.uleb128 0x8
 1420 030f 49190000 		.4byte	.LASF107
 1421 0313 2C       		.sleb128 44
 1422 0314 08       		.uleb128 0x8
 1423 0315 050C0000 		.4byte	.LASF108
 1424 0319 FE01     		.sleb128 254
 1425 031b 08       		.uleb128 0x8
 1426 031c 500D0000 		.4byte	.LASF109
 1427 0320 FF01     		.sleb128 255
 1428 0322 08       		.uleb128 0x8
 1429 0323 37160000 		.4byte	.LASF110
 1430 0327 8002     		.sleb128 256
 1431 0329 08       		.uleb128 0x8
 1432 032a 1E160000 		.4byte	.LASF111
 1433 032e 8102     		.sleb128 257
 1434 0330 08       		.uleb128 0x8
 1435 0331 1F060000 		.4byte	.LASF112
 1436 0335 8202     		.sleb128 258
 1437 0337 08       		.uleb128 0x8
 1438 0338 A2180000 		.4byte	.LASF113
 1439 033c 8302     		.sleb128 259
 1440 033e 00       		.byte	0
 1441 033f 07       		.uleb128 0x7
 1442 0340 01       		.byte	0x1
 1443 0341 03       		.byte	0x3
 1444 0342 9C03     		.2byte	0x39c
 1445 0344 7F030000 		.4byte	0x37f
 1446 0348 08       		.uleb128 0x8
 1447 0349 F9060000 		.4byte	.LASF114
 1448 034d 01       		.sleb128 1
 1449 034e 08       		.uleb128 0x8
 1450 034f DC150000 		.4byte	.LASF115
 1451 0353 02       		.sleb128 2
 1452 0354 08       		.uleb128 0x8
 1453 0355 1C170000 		.4byte	.LASF116
 1454 0359 03       		.sleb128 3
 1455 035a 08       		.uleb128 0x8
 1456 035b 9B030000 		.4byte	.LASF117
 1457 035f 04       		.sleb128 4
 1458 0360 08       		.uleb128 0x8
 1459 0361 9E090000 		.4byte	.LASF118
 1460 0365 05       		.sleb128 5
ARM GAS  C:\Users\Ecapable\AppData\Local\Temp\ccmAuCaF.s 			page 63


 1461 0366 08       		.uleb128 0x8
 1462 0367 C40E0000 		.4byte	.LASF119
 1463 036b 06       		.sleb128 6
 1464 036c 08       		.uleb128 0x8
 1465 036d 401E0000 		.4byte	.LASF120
 1466 0371 07       		.sleb128 7
 1467 0372 08       		.uleb128 0x8
 1468 0373 800E0000 		.4byte	.LASF121
 1469 0377 08       		.sleb128 8
 1470 0378 08       		.uleb128 0x8
 1471 0379 98120000 		.4byte	.LASF122
 1472 037d 09       		.sleb128 9
 1473 037e 00       		.byte	0
 1474 037f 04       		.uleb128 0x4
 1475 0380 06110000 		.4byte	.LASF123
 1476 0384 03       		.byte	0x3
 1477 0385 B303     		.2byte	0x3b3
 1478 0387 3F030000 		.4byte	0x33f
 1479 038b 07       		.uleb128 0x7
 1480 038c 01       		.byte	0x1
 1481 038d 03       		.byte	0x3
 1482 038e B703     		.2byte	0x3b7
 1483 0390 A7030000 		.4byte	0x3a7
 1484 0394 08       		.uleb128 0x8
 1485 0395 571E0000 		.4byte	.LASF124
 1486 0399 00       		.sleb128 0
 1487 039a 08       		.uleb128 0x8
 1488 039b 81140000 		.4byte	.LASF125
 1489 039f 01       		.sleb128 1
 1490 03a0 08       		.uleb128 0x8
 1491 03a1 AF1F0000 		.4byte	.LASF126
 1492 03a5 02       		.sleb128 2
 1493 03a6 00       		.byte	0
 1494 03a7 04       		.uleb128 0x4
 1495 03a8 69070000 		.4byte	.LASF127
 1496 03ac 03       		.byte	0x3
 1497 03ad BE03     		.2byte	0x3be
 1498 03af 8B030000 		.4byte	0x38b
 1499 03b3 09       		.uleb128 0x9
 1500 03b4 02       		.byte	0x2
 1501 03b5 03       		.byte	0x3
 1502 03b6 C103     		.2byte	0x3c1
 1503 03b8 D7030000 		.4byte	0x3d7
 1504 03bc 0A       		.uleb128 0xa
 1505 03bd 12010000 		.4byte	.LASF128
 1506 03c1 03       		.byte	0x3
 1507 03c2 C403     		.2byte	0x3c4
 1508 03c4 7F030000 		.4byte	0x37f
 1509 03c8 00       		.byte	0
 1510 03c9 0A       		.uleb128 0xa
 1511 03ca 61060000 		.4byte	.LASF129
 1512 03ce 03       		.byte	0x3
 1513 03cf C603     		.2byte	0x3c6
 1514 03d1 A7030000 		.4byte	0x3a7
 1515 03d5 01       		.byte	0x1
 1516 03d6 00       		.byte	0
 1517 03d7 04       		.uleb128 0x4
ARM GAS  C:\Users\Ecapable\AppData\Local\Temp\ccmAuCaF.s 			page 64


 1518 03d8 971F0000 		.4byte	.LASF130
 1519 03dc 03       		.byte	0x3
 1520 03dd C703     		.2byte	0x3c7
 1521 03df B3030000 		.4byte	0x3b3
 1522 03e3 07       		.uleb128 0x7
 1523 03e4 01       		.byte	0x1
 1524 03e5 03       		.byte	0x3
 1525 03e6 E803     		.2byte	0x3e8
 1526 03e8 F9030000 		.4byte	0x3f9
 1527 03ec 08       		.uleb128 0x8
 1528 03ed F6170000 		.4byte	.LASF131
 1529 03f1 00       		.sleb128 0
 1530 03f2 08       		.uleb128 0x8
 1531 03f3 120F0000 		.4byte	.LASF132
 1532 03f7 01       		.sleb128 1
 1533 03f8 00       		.byte	0
 1534 03f9 04       		.uleb128 0x4
 1535 03fa EA1F0000 		.4byte	.LASF133
 1536 03fe 03       		.byte	0x3
 1537 03ff EF03     		.2byte	0x3ef
 1538 0401 E3030000 		.4byte	0x3e3
 1539 0405 09       		.uleb128 0x9
 1540 0406 08       		.byte	0x8
 1541 0407 03       		.byte	0x3
 1542 0408 F203     		.2byte	0x3f2
 1543 040a 36040000 		.4byte	0x436
 1544 040e 0A       		.uleb128 0xa
 1545 040f 88000000 		.4byte	.LASF134
 1546 0413 03       		.byte	0x3
 1547 0414 F503     		.2byte	0x3f5
 1548 0416 F9030000 		.4byte	0x3f9
 1549 041a 00       		.byte	0
 1550 041b 0A       		.uleb128 0xa
 1551 041c 110E0000 		.4byte	.LASF135
 1552 0420 03       		.byte	0x3
 1553 0421 FA03     		.2byte	0x3fa
 1554 0423 6B000000 		.4byte	0x6b
 1555 0427 01       		.byte	0x1
 1556 0428 0A       		.uleb128 0xa
 1557 0429 23090000 		.4byte	.LASF136
 1558 042d 03       		.byte	0x3
 1559 042e 0204     		.2byte	0x402
 1560 0430 B0000000 		.4byte	0xb0
 1561 0434 04       		.byte	0x4
 1562 0435 00       		.byte	0
 1563 0436 04       		.uleb128 0x4
 1564 0437 9D110000 		.4byte	.LASF137
 1565 043b 03       		.byte	0x3
 1566 043c 0404     		.2byte	0x404
 1567 043e 05040000 		.4byte	0x405
 1568 0442 09       		.uleb128 0x9
 1569 0443 07       		.byte	0x7
 1570 0444 03       		.byte	0x3
 1571 0445 2804     		.2byte	0x428
 1572 0447 66040000 		.4byte	0x466
 1573 044b 0A       		.uleb128 0xa
 1574 044c CF1D0000 		.4byte	.LASF138
ARM GAS  C:\Users\Ecapable\AppData\Local\Temp\ccmAuCaF.s 			page 65


 1575 0450 03       		.byte	0x3
 1576 0451 2B04     		.2byte	0x42b
 1577 0453 66040000 		.4byte	0x466
 1578 0457 00       		.byte	0
 1579 0458 0A       		.uleb128 0xa
 1580 0459 75020000 		.4byte	.LASF139
 1581 045d 03       		.byte	0x3
 1582 045e 2D04     		.2byte	0x42d
 1583 0460 6B000000 		.4byte	0x6b
 1584 0464 06       		.byte	0x6
 1585 0465 00       		.byte	0
 1586 0466 0B       		.uleb128 0xb
 1587 0467 6B000000 		.4byte	0x6b
 1588 046b 76040000 		.4byte	0x476
 1589 046f 0C       		.uleb128 0xc
 1590 0470 A9000000 		.4byte	0xa9
 1591 0474 05       		.byte	0x5
 1592 0475 00       		.byte	0
 1593 0476 04       		.uleb128 0x4
 1594 0477 93190000 		.4byte	.LASF140
 1595 047b 03       		.byte	0x3
 1596 047c 2E04     		.2byte	0x42e
 1597 047e 42040000 		.4byte	0x442
 1598 0482 0D       		.uleb128 0xd
 1599 0483 01       		.byte	0x1
 1600 0484 04       		.byte	0x4
 1601 0485 2C       		.byte	0x2c
 1602 0486 A3040000 		.4byte	0x4a3
 1603 048a 08       		.uleb128 0x8
 1604 048b C5140000 		.4byte	.LASF141
 1605 048f 01       		.sleb128 1
 1606 0490 08       		.uleb128 0x8
 1607 0491 61190000 		.4byte	.LASF142
 1608 0495 02       		.sleb128 2
 1609 0496 08       		.uleb128 0x8
 1610 0497 0F210000 		.4byte	.LASF143
 1611 049b 03       		.sleb128 3
 1612 049c 08       		.uleb128 0x8
 1613 049d AC1A0000 		.4byte	.LASF144
 1614 04a1 04       		.sleb128 4
 1615 04a2 00       		.byte	0
 1616 04a3 0E       		.uleb128 0xe
 1617 04a4 7A020000 		.4byte	.LASF145
 1618 04a8 04       		.byte	0x4
 1619 04a9 39       		.byte	0x39
 1620 04aa 82040000 		.4byte	0x482
 1621 04ae 0D       		.uleb128 0xd
 1622 04af 01       		.byte	0x1
 1623 04b0 05       		.byte	0x5
 1624 04b1 F8       		.byte	0xf8
 1625 04b2 D5040000 		.4byte	0x4d5
 1626 04b6 08       		.uleb128 0x8
 1627 04b7 EF040000 		.4byte	.LASF146
 1628 04bb 00       		.sleb128 0
 1629 04bc 08       		.uleb128 0x8
 1630 04bd 05050000 		.4byte	.LASF147
 1631 04c1 01       		.sleb128 1
ARM GAS  C:\Users\Ecapable\AppData\Local\Temp\ccmAuCaF.s 			page 66


 1632 04c2 08       		.uleb128 0x8
 1633 04c3 1B050000 		.4byte	.LASF148
 1634 04c7 02       		.sleb128 2
 1635 04c8 08       		.uleb128 0x8
 1636 04c9 31050000 		.4byte	.LASF149
 1637 04cd 03       		.sleb128 3
 1638 04ce 08       		.uleb128 0x8
 1639 04cf 820B0000 		.4byte	.LASF150
 1640 04d3 0F       		.sleb128 15
 1641 04d4 00       		.byte	0
 1642 04d5 07       		.uleb128 0x7
 1643 04d6 01       		.byte	0x1
 1644 04d7 05       		.byte	0x5
 1645 04d8 1701     		.2byte	0x117
 1646 04da FD040000 		.4byte	0x4fd
 1647 04de 08       		.uleb128 0x8
 1648 04df 7E030000 		.4byte	.LASF151
 1649 04e3 00       		.sleb128 0
 1650 04e4 08       		.uleb128 0x8
 1651 04e5 381F0000 		.4byte	.LASF152
 1652 04e9 01       		.sleb128 1
 1653 04ea 08       		.uleb128 0x8
 1654 04eb 030A0000 		.4byte	.LASF153
 1655 04ef 02       		.sleb128 2
 1656 04f0 08       		.uleb128 0x8
 1657 04f1 BA000000 		.4byte	.LASF154
 1658 04f5 03       		.sleb128 3
 1659 04f6 08       		.uleb128 0x8
 1660 04f7 BB1C0000 		.4byte	.LASF155
 1661 04fb 04       		.sleb128 4
 1662 04fc 00       		.byte	0
 1663 04fd 07       		.uleb128 0x7
 1664 04fe 01       		.byte	0x1
 1665 04ff 05       		.byte	0x5
 1666 0500 2D01     		.2byte	0x12d
 1667 0502 6D050000 		.4byte	0x56d
 1668 0506 08       		.uleb128 0x8
 1669 0507 50170000 		.4byte	.LASF156
 1670 050b 00       		.sleb128 0
 1671 050c 08       		.uleb128 0x8
 1672 050d 33040000 		.4byte	.LASF157
 1673 0511 01       		.sleb128 1
 1674 0512 08       		.uleb128 0x8
 1675 0513 CA170000 		.4byte	.LASF158
 1676 0517 02       		.sleb128 2
 1677 0518 08       		.uleb128 0x8
 1678 0519 530F0000 		.4byte	.LASF159
 1679 051d 03       		.sleb128 3
 1680 051e 08       		.uleb128 0x8
 1681 051f F2050000 		.4byte	.LASF160
 1682 0523 04       		.sleb128 4
 1683 0524 08       		.uleb128 0x8
 1684 0525 811A0000 		.4byte	.LASF161
 1685 0529 05       		.sleb128 5
 1686 052a 08       		.uleb128 0x8
 1687 052b 38110000 		.4byte	.LASF162
 1688 052f 06       		.sleb128 6
ARM GAS  C:\Users\Ecapable\AppData\Local\Temp\ccmAuCaF.s 			page 67


 1689 0530 08       		.uleb128 0x8
 1690 0531 280F0000 		.4byte	.LASF163
 1691 0535 07       		.sleb128 7
 1692 0536 08       		.uleb128 0x8
 1693 0537 BD020000 		.4byte	.LASF164
 1694 053b 08       		.sleb128 8
 1695 053c 08       		.uleb128 0x8
 1696 053d 72100000 		.4byte	.LASF165
 1697 0541 09       		.sleb128 9
 1698 0542 08       		.uleb128 0x8
 1699 0543 FB080000 		.4byte	.LASF166
 1700 0547 0A       		.sleb128 10
 1701 0548 08       		.uleb128 0x8
 1702 0549 DE100000 		.4byte	.LASF167
 1703 054d 0B       		.sleb128 11
 1704 054e 08       		.uleb128 0x8
 1705 054f 091F0000 		.4byte	.LASF168
 1706 0553 0C       		.sleb128 12
 1707 0554 08       		.uleb128 0x8
 1708 0555 670C0000 		.4byte	.LASF169
 1709 0559 0D       		.sleb128 13
 1710 055a 08       		.uleb128 0x8
 1711 055b D6070000 		.4byte	.LASF170
 1712 055f 0E       		.sleb128 14
 1713 0560 08       		.uleb128 0x8
 1714 0561 91020000 		.4byte	.LASF171
 1715 0565 15       		.sleb128 21
 1716 0566 08       		.uleb128 0x8
 1717 0567 860D0000 		.4byte	.LASF172
 1718 056b 18       		.sleb128 24
 1719 056c 00       		.byte	0
 1720 056d 04       		.uleb128 0x4
 1721 056e A3150000 		.4byte	.LASF173
 1722 0572 05       		.byte	0x5
 1723 0573 6C01     		.2byte	0x16c
 1724 0575 FD040000 		.4byte	0x4fd
 1725 0579 09       		.uleb128 0x9
 1726 057a 05       		.byte	0x5
 1727 057b 05       		.byte	0x5
 1728 057c B901     		.2byte	0x1b9
 1729 057e C4050000 		.4byte	0x5c4
 1730 0582 0A       		.uleb128 0xa
 1731 0583 B4110000 		.4byte	.LASF174
 1732 0587 05       		.byte	0x5
 1733 0588 C301     		.2byte	0x1c3
 1734 058a 6B000000 		.4byte	0x6b
 1735 058e 00       		.byte	0
 1736 058f 0A       		.uleb128 0xa
 1737 0590 E8130000 		.4byte	.LASF175
 1738 0594 05       		.byte	0x5
 1739 0595 C901     		.2byte	0x1c9
 1740 0597 6B000000 		.4byte	0x6b
 1741 059b 01       		.byte	0x1
 1742 059c 0A       		.uleb128 0xa
 1743 059d 24000000 		.4byte	.LASF176
 1744 05a1 05       		.byte	0x5
 1745 05a2 D001     		.2byte	0x1d0
ARM GAS  C:\Users\Ecapable\AppData\Local\Temp\ccmAuCaF.s 			page 68


 1746 05a4 6B000000 		.4byte	0x6b
 1747 05a8 02       		.byte	0x2
 1748 05a9 0A       		.uleb128 0xa
 1749 05aa 201C0000 		.4byte	.LASF177
 1750 05ae 05       		.byte	0x5
 1751 05af D401     		.2byte	0x1d4
 1752 05b1 6D050000 		.4byte	0x56d
 1753 05b5 03       		.byte	0x3
 1754 05b6 0A       		.uleb128 0xa
 1755 05b7 291B0000 		.4byte	.LASF178
 1756 05bb 05       		.byte	0x5
 1757 05bc DE01     		.2byte	0x1de
 1758 05be 6B000000 		.4byte	0x6b
 1759 05c2 04       		.byte	0x4
 1760 05c3 00       		.byte	0
 1761 05c4 04       		.uleb128 0x4
 1762 05c5 ED090000 		.4byte	.LASF179
 1763 05c9 05       		.byte	0x5
 1764 05ca E001     		.2byte	0x1e0
 1765 05cc 79050000 		.4byte	0x579
 1766 05d0 0F       		.uleb128 0xf
 1767 05d1 04       		.byte	0x4
 1768 05d2 6B000000 		.4byte	0x6b
 1769 05d6 09       		.uleb128 0x9
 1770 05d7 08       		.byte	0x8
 1771 05d8 05       		.byte	0x5
 1772 05d9 5A03     		.2byte	0x35a
 1773 05db 14060000 		.4byte	0x614
 1774 05df 0A       		.uleb128 0xa
 1775 05e0 BD0E0000 		.4byte	.LASF180
 1776 05e4 05       		.byte	0x5
 1777 05e5 5E03     		.2byte	0x35e
 1778 05e7 6B000000 		.4byte	0x6b
 1779 05eb 00       		.byte	0
 1780 05ec 0A       		.uleb128 0xa
 1781 05ed 2A200000 		.4byte	.LASF181
 1782 05f1 05       		.byte	0x5
 1783 05f2 6403     		.2byte	0x364
 1784 05f4 77000000 		.4byte	0x77
 1785 05f8 02       		.byte	0x2
 1786 05f9 0A       		.uleb128 0xa
 1787 05fa FD1E0000 		.4byte	.LASF182
 1788 05fe 05       		.byte	0x5
 1789 05ff 6903     		.2byte	0x369
 1790 0601 77000000 		.4byte	0x77
 1791 0605 04       		.byte	0x4
 1792 0606 0A       		.uleb128 0xa
 1793 0607 01210000 		.4byte	.LASF183
 1794 060b 05       		.byte	0x5
 1795 060c 6F03     		.2byte	0x36f
 1796 060e 77000000 		.4byte	0x77
 1797 0612 06       		.byte	0x6
 1798 0613 00       		.byte	0
 1799 0614 04       		.uleb128 0x4
 1800 0615 13180000 		.4byte	.LASF184
 1801 0619 05       		.byte	0x5
 1802 061a 7103     		.2byte	0x371
ARM GAS  C:\Users\Ecapable\AppData\Local\Temp\ccmAuCaF.s 			page 69


 1803 061c D6050000 		.4byte	0x5d6
 1804 0620 0D       		.uleb128 0xd
 1805 0621 01       		.byte	0x1
 1806 0622 06       		.byte	0x6
 1807 0623 4F       		.byte	0x4f
 1808 0624 DA060000 		.4byte	0x6da
 1809 0628 08       		.uleb128 0x8
 1810 0629 F00B0000 		.4byte	.LASF185
 1811 062d 01       		.sleb128 1
 1812 062e 08       		.uleb128 0x8
 1813 062f 920A0000 		.4byte	.LASF186
 1814 0633 02       		.sleb128 2
 1815 0634 08       		.uleb128 0x8
 1816 0635 AF040000 		.4byte	.LASF187
 1817 0639 03       		.sleb128 3
 1818 063a 08       		.uleb128 0x8
 1819 063b 15070000 		.4byte	.LASF188
 1820 063f 04       		.sleb128 4
 1821 0640 08       		.uleb128 0x8
 1822 0641 B1170000 		.4byte	.LASF189
 1823 0645 05       		.sleb128 5
 1824 0646 08       		.uleb128 0x8
 1825 0647 FA160000 		.4byte	.LASF190
 1826 064b 06       		.sleb128 6
 1827 064c 08       		.uleb128 0x8
 1828 064d 47050000 		.4byte	.LASF191
 1829 0651 07       		.sleb128 7
 1830 0652 08       		.uleb128 0x8
 1831 0653 A4160000 		.4byte	.LASF192
 1832 0657 08       		.sleb128 8
 1833 0658 08       		.uleb128 0x8
 1834 0659 E5020000 		.4byte	.LASF193
 1835 065d 09       		.sleb128 9
 1836 065e 08       		.uleb128 0x8
 1837 065f A90E0000 		.4byte	.LASF194
 1838 0663 0A       		.sleb128 10
 1839 0664 08       		.uleb128 0x8
 1840 0665 081E0000 		.4byte	.LASF195
 1841 0669 0B       		.sleb128 11
 1842 066a 08       		.uleb128 0x8
 1843 066b A7190000 		.4byte	.LASF196
 1844 066f 0C       		.sleb128 12
 1845 0670 08       		.uleb128 0x8
 1846 0671 87060000 		.4byte	.LASF197
 1847 0675 0D       		.sleb128 13
 1848 0676 08       		.uleb128 0x8
 1849 0677 50160000 		.4byte	.LASF198
 1850 067b 0E       		.sleb128 14
 1851 067c 08       		.uleb128 0x8
 1852 067d 58020000 		.4byte	.LASF199
 1853 0681 0F       		.sleb128 15
 1854 0682 08       		.uleb128 0x8
 1855 0683 8D200000 		.4byte	.LASF200
 1856 0687 10       		.sleb128 16
 1857 0688 08       		.uleb128 0x8
 1858 0689 1B0E0000 		.4byte	.LASF201
 1859 068d 11       		.sleb128 17
ARM GAS  C:\Users\Ecapable\AppData\Local\Temp\ccmAuCaF.s 			page 70


 1860 068e 08       		.uleb128 0x8
 1861 068f 011C0000 		.4byte	.LASF202
 1862 0693 12       		.sleb128 18
 1863 0694 08       		.uleb128 0x8
 1864 0695 B9090000 		.4byte	.LASF203
 1865 0699 13       		.sleb128 19
 1866 069a 08       		.uleb128 0x8
 1867 069b F6000000 		.4byte	.LASF204
 1868 069f D200     		.sleb128 82
 1869 06a1 08       		.uleb128 0x8
 1870 06a2 6A010000 		.4byte	.LASF205
 1871 06a6 16       		.sleb128 22
 1872 06a7 08       		.uleb128 0x8
 1873 06a8 0A150000 		.4byte	.LASF206
 1874 06ac 17       		.sleb128 23
 1875 06ad 08       		.uleb128 0x8
 1876 06ae 7A1F0000 		.4byte	.LASF207
 1877 06b2 18       		.sleb128 24
 1878 06b3 08       		.uleb128 0x8
 1879 06b4 330D0000 		.4byte	.LASF208
 1880 06b8 19       		.sleb128 25
 1881 06b9 08       		.uleb128 0x8
 1882 06ba 830F0000 		.4byte	.LASF209
 1883 06be 1B       		.sleb128 27
 1884 06bf 08       		.uleb128 0x8
 1885 06c0 8B080000 		.4byte	.LASF210
 1886 06c4 1D       		.sleb128 29
 1887 06c5 08       		.uleb128 0x8
 1888 06c6 2D000000 		.4byte	.LASF211
 1889 06ca 1E       		.sleb128 30
 1890 06cb 08       		.uleb128 0x8
 1891 06cc EC0C0000 		.4byte	.LASF212
 1892 06d0 D201     		.sleb128 210
 1893 06d2 08       		.uleb128 0x8
 1894 06d3 87180000 		.4byte	.LASF213
 1895 06d7 FF01     		.sleb128 255
 1896 06d9 00       		.byte	0
 1897 06da 0D       		.uleb128 0xd
 1898 06db 01       		.byte	0x1
 1899 06dc 06       		.byte	0x6
 1900 06dd AB       		.byte	0xab
 1901 06de DB070000 		.4byte	0x7db
 1902 06e2 08       		.uleb128 0x8
 1903 06e3 07190000 		.4byte	.LASF214
 1904 06e7 00       		.sleb128 0
 1905 06e8 08       		.uleb128 0x8
 1906 06e9 57180000 		.4byte	.LASF215
 1907 06ed 01       		.sleb128 1
 1908 06ee 08       		.uleb128 0x8
 1909 06ef 23010000 		.4byte	.LASF216
 1910 06f3 02       		.sleb128 2
 1911 06f4 08       		.uleb128 0x8
 1912 06f5 07200000 		.4byte	.LASF217
 1913 06f9 03       		.sleb128 3
 1914 06fa 08       		.uleb128 0x8
 1915 06fb D7050000 		.4byte	.LASF218
 1916 06ff 04       		.sleb128 4
ARM GAS  C:\Users\Ecapable\AppData\Local\Temp\ccmAuCaF.s 			page 71


 1917 0700 08       		.uleb128 0x8
 1918 0701 3A140000 		.4byte	.LASF219
 1919 0705 05       		.sleb128 5
 1920 0706 08       		.uleb128 0x8
 1921 0707 7C1C0000 		.4byte	.LASF220
 1922 070b 06       		.sleb128 6
 1923 070c 08       		.uleb128 0x8
 1924 070d 86160000 		.4byte	.LASF221
 1925 0711 07       		.sleb128 7
 1926 0712 08       		.uleb128 0x8
 1927 0713 B3130000 		.4byte	.LASF222
 1928 0717 08       		.sleb128 8
 1929 0718 08       		.uleb128 0x8
 1930 0719 BD110000 		.4byte	.LASF223
 1931 071d 09       		.sleb128 9
 1932 071e 08       		.uleb128 0x8
 1933 071f 38150000 		.4byte	.LASF224
 1934 0723 0A       		.sleb128 10
 1935 0724 08       		.uleb128 0x8
 1936 0725 600B0000 		.4byte	.LASF225
 1937 0729 0B       		.sleb128 11
 1938 072a 08       		.uleb128 0x8
 1939 072b 6F120000 		.4byte	.LASF226
 1940 072f 0C       		.sleb128 12
 1941 0730 08       		.uleb128 0x8
 1942 0731 A0060000 		.4byte	.LASF227
 1943 0735 0D       		.sleb128 13
 1944 0736 08       		.uleb128 0x8
 1945 0737 530A0000 		.4byte	.LASF228
 1946 073b 0E       		.sleb128 14
 1947 073c 08       		.uleb128 0x8
 1948 073d 46200000 		.4byte	.LASF229
 1949 0741 0F       		.sleb128 15
 1950 0742 08       		.uleb128 0x8
 1951 0743 87010000 		.4byte	.LASF230
 1952 0747 10       		.sleb128 16
 1953 0748 08       		.uleb128 0x8
 1954 0749 45010000 		.4byte	.LASF231
 1955 074d 11       		.sleb128 17
 1956 074e 08       		.uleb128 0x8
 1957 074f 2A0B0000 		.4byte	.LASF232
 1958 0753 8001     		.sleb128 128
 1959 0755 08       		.uleb128 0x8
 1960 0756 AD0D0000 		.4byte	.LASF233
 1961 075a 8001     		.sleb128 128
 1962 075c 08       		.uleb128 0x8
 1963 075d 451C0000 		.4byte	.LASF234
 1964 0761 8001     		.sleb128 128
 1965 0763 08       		.uleb128 0x8
 1966 0764 73190000 		.4byte	.LASF235
 1967 0768 8001     		.sleb128 128
 1968 076a 08       		.uleb128 0x8
 1969 076b 97140000 		.4byte	.LASF236
 1970 076f 8001     		.sleb128 128
 1971 0771 08       		.uleb128 0x8
 1972 0772 5B0E0000 		.4byte	.LASF237
 1973 0776 8001     		.sleb128 128
ARM GAS  C:\Users\Ecapable\AppData\Local\Temp\ccmAuCaF.s 			page 72


 1974 0778 08       		.uleb128 0x8
 1975 0779 380A0000 		.4byte	.LASF238
 1976 077d 8001     		.sleb128 128
 1977 077f 08       		.uleb128 0x8
 1978 0780 080D0000 		.4byte	.LASF239
 1979 0784 8101     		.sleb128 129
 1980 0786 08       		.uleb128 0x8
 1981 0787 FC1A0000 		.4byte	.LASF240
 1982 078b 8101     		.sleb128 129
 1983 078d 08       		.uleb128 0x8
 1984 078e 00000000 		.4byte	.LASF241
 1985 0792 8101     		.sleb128 129
 1986 0794 08       		.uleb128 0x8
 1987 0795 B3050000 		.4byte	.LASF242
 1988 0799 8101     		.sleb128 129
 1989 079b 08       		.uleb128 0x8
 1990 079c 0D040000 		.4byte	.LASF243
 1991 07a0 8201     		.sleb128 130
 1992 07a2 08       		.uleb128 0x8
 1993 07a3 D61D0000 		.4byte	.LASF244
 1994 07a7 A001     		.sleb128 160
 1995 07a9 08       		.uleb128 0x8
 1996 07aa C80F0000 		.4byte	.LASF245
 1997 07ae A001     		.sleb128 160
 1998 07b0 08       		.uleb128 0x8
 1999 07b1 5D040000 		.4byte	.LASF246
 2000 07b5 A101     		.sleb128 161
 2001 07b7 08       		.uleb128 0x8
 2002 07b8 611D0000 		.4byte	.LASF247
 2003 07bc A201     		.sleb128 162
 2004 07be 08       		.uleb128 0x8
 2005 07bf BD0B0000 		.4byte	.LASF248
 2006 07c3 A301     		.sleb128 163
 2007 07c5 08       		.uleb128 0x8
 2008 07c6 85070000 		.4byte	.LASF249
 2009 07ca FD01     		.sleb128 253
 2010 07cc 08       		.uleb128 0x8
 2011 07cd AD120000 		.4byte	.LASF250
 2012 07d1 FE01     		.sleb128 254
 2013 07d3 08       		.uleb128 0x8
 2014 07d4 DE160000 		.4byte	.LASF251
 2015 07d8 FF01     		.sleb128 255
 2016 07da 00       		.byte	0
 2017 07db 04       		.uleb128 0x4
 2018 07dc 4B1D0000 		.4byte	.LASF252
 2019 07e0 06       		.byte	0x6
 2020 07e1 6201     		.2byte	0x162
 2021 07e3 DA060000 		.4byte	0x6da
 2022 07e7 04       		.uleb128 0x4
 2023 07e8 BC180000 		.4byte	.LASF253
 2024 07ec 06       		.byte	0x6
 2025 07ed 9201     		.2byte	0x192
 2026 07ef 77000000 		.4byte	0x77
 2027 07f3 09       		.uleb128 0x9
 2028 07f4 02       		.byte	0x2
 2029 07f5 06       		.byte	0x6
 2030 07f6 9C01     		.2byte	0x19c
ARM GAS  C:\Users\Ecapable\AppData\Local\Temp\ccmAuCaF.s 			page 73


 2031 07f8 17080000 		.4byte	0x817
 2032 07fc 0A       		.uleb128 0xa
 2033 07fd 04040000 		.4byte	.LASF254
 2034 0801 06       		.byte	0x6
 2035 0802 A301     		.2byte	0x1a3
 2036 0804 6B000000 		.4byte	0x6b
 2037 0808 00       		.byte	0
 2038 0809 0A       		.uleb128 0xa
 2039 080a AA200000 		.4byte	.LASF255
 2040 080e 06       		.byte	0x6
 2041 080f A901     		.2byte	0x1a9
 2042 0811 6B000000 		.4byte	0x6b
 2043 0815 01       		.byte	0x1
 2044 0816 00       		.byte	0
 2045 0817 04       		.uleb128 0x4
 2046 0818 4A030000 		.4byte	.LASF256
 2047 081c 06       		.byte	0x6
 2048 081d AB01     		.2byte	0x1ab
 2049 081f F3070000 		.4byte	0x7f3
 2050 0823 09       		.uleb128 0x9
 2051 0824 08       		.byte	0x8
 2052 0825 06       		.byte	0x6
 2053 0826 C701     		.2byte	0x1c7
 2054 0828 54080000 		.4byte	0x854
 2055 082c 10       		.uleb128 0x10
 2056 082d 76616C00 		.ascii	"val\000"
 2057 0831 06       		.byte	0x6
 2058 0832 CA01     		.2byte	0x1ca
 2059 0834 D0050000 		.4byte	0x5d0
 2060 0838 00       		.byte	0
 2061 0839 10       		.uleb128 0x10
 2062 083a 6C656E00 		.ascii	"len\000"
 2063 083e 06       		.byte	0x6
 2064 083f CD01     		.2byte	0x1cd
 2065 0841 77000000 		.4byte	0x77
 2066 0845 04       		.byte	0x4
 2067 0846 0A       		.uleb128 0xa
 2068 0847 83200000 		.4byte	.LASF257
 2069 084b 06       		.byte	0x6
 2070 084c D401     		.2byte	0x1d4
 2071 084e 77000000 		.4byte	0x77
 2072 0852 06       		.byte	0x6
 2073 0853 00       		.byte	0
 2074 0854 04       		.uleb128 0x4
 2075 0855 3E020000 		.4byte	.LASF258
 2076 0859 06       		.byte	0x6
 2077 085a D601     		.2byte	0x1d6
 2078 085c 23080000 		.4byte	0x823
 2079 0860 09       		.uleb128 0x9
 2080 0861 0C       		.byte	0xc
 2081 0862 06       		.byte	0x6
 2082 0863 D901     		.2byte	0x1d9
 2083 0865 84080000 		.4byte	0x884
 2084 0869 0A       		.uleb128 0xa
 2085 086a 1B190000 		.4byte	.LASF259
 2086 086e 06       		.byte	0x6
 2087 086f DC01     		.2byte	0x1dc
ARM GAS  C:\Users\Ecapable\AppData\Local\Temp\ccmAuCaF.s 			page 74


 2088 0871 54080000 		.4byte	0x854
 2089 0875 00       		.byte	0
 2090 0876 0A       		.uleb128 0xa
 2091 0877 DD130000 		.4byte	.LASF260
 2092 087b 06       		.byte	0x6
 2093 087c DF01     		.2byte	0x1df
 2094 087e E7070000 		.4byte	0x7e7
 2095 0882 08       		.byte	0x8
 2096 0883 00       		.byte	0
 2097 0884 04       		.uleb128 0x4
 2098 0885 42060000 		.4byte	.LASF261
 2099 0889 06       		.byte	0x6
 2100 088a E101     		.2byte	0x1e1
 2101 088c 60080000 		.4byte	0x860
 2102 0890 09       		.uleb128 0x9
 2103 0891 04       		.byte	0x4
 2104 0892 06       		.byte	0x6
 2105 0893 EF01     		.2byte	0x1ef
 2106 0895 B4080000 		.4byte	0x8b4
 2107 0899 0A       		.uleb128 0xa
 2108 089a 5C1A0000 		.4byte	.LASF262
 2109 089e 06       		.byte	0x6
 2110 089f F201     		.2byte	0x1f2
 2111 08a1 17080000 		.4byte	0x817
 2112 08a5 00       		.byte	0
 2113 08a6 10       		.uleb128 0x10
 2114 08a7 6D747500 		.ascii	"mtu\000"
 2115 08ab 06       		.byte	0x6
 2116 08ac F501     		.2byte	0x1f5
 2117 08ae 77000000 		.4byte	0x77
 2118 08b2 02       		.byte	0x2
 2119 08b3 00       		.byte	0
 2120 08b4 04       		.uleb128 0x4
 2121 08b5 65140000 		.4byte	.LASF263
 2122 08b9 06       		.byte	0x6
 2123 08ba F701     		.2byte	0x1f7
 2124 08bc 90080000 		.4byte	0x890
 2125 08c0 09       		.uleb128 0x9
 2126 08c1 08       		.byte	0x8
 2127 08c2 06       		.byte	0x6
 2128 08c3 0502     		.2byte	0x205
 2129 08c5 F1080000 		.4byte	0x8f1
 2130 08c9 0A       		.uleb128 0xa
 2131 08ca 87170000 		.4byte	.LASF264
 2132 08ce 06       		.byte	0x6
 2133 08cf 0A02     		.2byte	0x20a
 2134 08d1 D0050000 		.4byte	0x5d0
 2135 08d5 00       		.byte	0
 2136 08d6 0A       		.uleb128 0xa
 2137 08d7 21190000 		.4byte	.LASF265
 2138 08db 06       		.byte	0x6
 2139 08dc 0F02     		.2byte	0x20f
 2140 08de 77000000 		.4byte	0x77
 2141 08e2 04       		.byte	0x4
 2142 08e3 0A       		.uleb128 0xa
 2143 08e4 BC0C0000 		.4byte	.LASF266
 2144 08e8 06       		.byte	0x6
ARM GAS  C:\Users\Ecapable\AppData\Local\Temp\ccmAuCaF.s 			page 75


 2145 08e9 1602     		.2byte	0x216
 2146 08eb 77000000 		.4byte	0x77
 2147 08ef 06       		.byte	0x6
 2148 08f0 00       		.byte	0
 2149 08f1 04       		.uleb128 0x4
 2150 08f2 EC0F0000 		.4byte	.LASF267
 2151 08f6 06       		.byte	0x6
 2152 08f7 1802     		.2byte	0x218
 2153 08f9 C0080000 		.4byte	0x8c0
 2154 08fd 11       		.uleb128 0x11
 2155 08fe 04       		.byte	0x4
 2156 08ff 07       		.byte	0x7
 2157 0900 3A       		.byte	0x3a
 2158 0901 2A090000 		.4byte	0x92a
 2159 0905 12       		.uleb128 0x12
 2160 0906 DD130000 		.4byte	.LASF260
 2161 090a 07       		.byte	0x7
 2162 090b 3D       		.byte	0x3d
 2163 090c E7070000 		.4byte	0x7e7
 2164 0910 00       		.byte	0
 2165 0911 12       		.uleb128 0x12
 2166 0912 AC130000 		.4byte	.LASF268
 2167 0916 07       		.byte	0x7
 2168 0917 43       		.byte	0x43
 2169 0918 6B000000 		.4byte	0x6b
 2170 091c 02       		.byte	0x2
 2171 091d 12       		.uleb128 0x12
 2172 091e F1080000 		.4byte	.LASF269
 2173 0922 07       		.byte	0x7
 2174 0923 46       		.byte	0x46
 2175 0924 DB070000 		.4byte	0x7db
 2176 0928 03       		.byte	0x3
 2177 0929 00       		.byte	0
 2178 092a 0E       		.uleb128 0xe
 2179 092b 47080000 		.4byte	.LASF270
 2180 092f 07       		.byte	0x7
 2181 0930 48       		.byte	0x48
 2182 0931 FD080000 		.4byte	0x8fd
 2183 0935 11       		.uleb128 0x11
 2184 0936 10       		.byte	0x10
 2185 0937 07       		.byte	0x7
 2186 0938 8A       		.byte	0x8a
 2187 0939 56090000 		.4byte	0x956
 2188 093d 12       		.uleb128 0x12
 2189 093e 5C1A0000 		.4byte	.LASF262
 2190 0942 07       		.byte	0x7
 2191 0943 8D       		.byte	0x8d
 2192 0944 17080000 		.4byte	0x817
 2193 0948 00       		.byte	0
 2194 0949 12       		.uleb128 0x12
 2195 094a 4E1A0000 		.4byte	.LASF271
 2196 094e 07       		.byte	0x7
 2197 094f 90       		.byte	0x90
 2198 0950 84080000 		.4byte	0x884
 2199 0954 04       		.byte	0x4
 2200 0955 00       		.byte	0
 2201 0956 0E       		.uleb128 0xe
ARM GAS  C:\Users\Ecapable\AppData\Local\Temp\ccmAuCaF.s 			page 76


 2202 0957 F0130000 		.4byte	.LASF272
 2203 095b 07       		.byte	0x7
 2204 095c 92       		.byte	0x92
 2205 095d 35090000 		.4byte	0x935
 2206 0961 04       		.uleb128 0x4
 2207 0962 01030000 		.4byte	.LASF273
 2208 0966 08       		.byte	0x8
 2209 0967 E501     		.2byte	0x1e5
 2210 0969 6D090000 		.4byte	0x96d
 2211 096d 0F       		.uleb128 0xf
 2212 096e 04       		.byte	0x4
 2213 096f 73090000 		.4byte	0x973
 2214 0973 13       		.uleb128 0x13
 2215 0974 83090000 		.4byte	0x983
 2216 0978 14       		.uleb128 0x14
 2217 0979 83000000 		.4byte	0x83
 2218 097d 14       		.uleb128 0x14
 2219 097e B0000000 		.4byte	0xb0
 2220 0982 00       		.byte	0
 2221 0983 07       		.uleb128 0x7
 2222 0984 01       		.byte	0x1
 2223 0985 09       		.byte	0x9
 2224 0986 BF07     		.2byte	0x7bf
 2225 0988 AB090000 		.4byte	0x9ab
 2226 098c 08       		.uleb128 0x8
 2227 098d 8B1E0000 		.4byte	.LASF274
 2228 0991 00       		.sleb128 0
 2229 0992 08       		.uleb128 0x8
 2230 0993 4B100000 		.4byte	.LASF275
 2231 0997 01       		.sleb128 1
 2232 0998 08       		.uleb128 0x8
 2233 0999 6D200000 		.4byte	.LASF276
 2234 099d 02       		.sleb128 2
 2235 099e 08       		.uleb128 0x8
 2236 099f C3030000 		.4byte	.LASF277
 2237 09a3 03       		.sleb128 3
 2238 09a4 08       		.uleb128 0x8
 2239 09a5 551B0000 		.4byte	.LASF278
 2240 09a9 04       		.sleb128 4
 2241 09aa 00       		.byte	0
 2242 09ab 04       		.uleb128 0x4
 2243 09ac DC1C0000 		.4byte	.LASF279
 2244 09b0 09       		.byte	0x9
 2245 09b1 CD07     		.2byte	0x7cd
 2246 09b3 83090000 		.4byte	0x983
 2247 09b7 15       		.uleb128 0x15
 2248 09b8 72000000 		.4byte	.LASF282
 2249 09bc 01       		.byte	0x1
 2250 09bd E8       		.byte	0xe8
 2251 09be 00000000 		.4byte	.LFB2
 2252 09c2 70000000 		.4byte	.LFE2-.LFB2
 2253 09c6 01       		.uleb128 0x1
 2254 09c7 9C       		.byte	0x9c
 2255 09c8 020A0000 		.4byte	0xa02
 2256 09cc 16       		.uleb128 0x16
 2257 09cd 90000000 		.4byte	.LASF284
 2258 09d1 01       		.byte	0x1
ARM GAS  C:\Users\Ecapable\AppData\Local\Temp\ccmAuCaF.s 			page 77


 2259 09d2 E8       		.byte	0xe8
 2260 09d3 020A0000 		.4byte	0xa02
 2261 09d7 02       		.uleb128 0x2
 2262 09d8 91       		.byte	0x91
 2263 09d9 64       		.sleb128 -28
 2264 09da 17       		.uleb128 0x17
 2265 09db FF1F0000 		.4byte	.LASF280
 2266 09df 01       		.byte	0x1
 2267 09e0 EA       		.byte	0xea
 2268 09e1 DB070000 		.4byte	0x7db
 2269 09e5 02       		.uleb128 0x2
 2270 09e6 91       		.byte	0x91
 2271 09e7 6F       		.sleb128 -17
 2272 09e8 18       		.uleb128 0x18
 2273 09e9 30000000 		.4byte	.LBB2
 2274 09ed 2C000000 		.4byte	.LBE2-.LBB2
 2275 09f1 19       		.uleb128 0x19
 2276 09f2 DB140000 		.4byte	.LASF281
 2277 09f6 01       		.byte	0x1
 2278 09f7 9801     		.2byte	0x198
 2279 09f9 2A090000 		.4byte	0x92a
 2280 09fd 02       		.uleb128 0x2
 2281 09fe 91       		.byte	0x91
 2282 09ff 68       		.sleb128 -24
 2283 0a00 00       		.byte	0
 2284 0a01 00       		.byte	0
 2285 0a02 0F       		.uleb128 0xf
 2286 0a03 04       		.byte	0x4
 2287 0a04 56090000 		.4byte	0x956
 2288 0a08 1A       		.uleb128 0x1a
 2289 0a09 40130000 		.4byte	.LASF283
 2290 0a0d 01       		.byte	0x1
 2291 0a0e B501     		.2byte	0x1b5
 2292 0a10 00000000 		.4byte	.LFB3
 2293 0a14 0E000000 		.4byte	.LFE3-.LFB3
 2294 0a18 01       		.uleb128 0x1
 2295 0a19 9C       		.byte	0x9c
 2296 0a1a 2E0A0000 		.4byte	0xa2e
 2297 0a1e 1B       		.uleb128 0x1b
 2298 0a1f 90000000 		.4byte	.LASF284
 2299 0a23 01       		.byte	0x1
 2300 0a24 B501     		.2byte	0x1b5
 2301 0a26 2E0A0000 		.4byte	0xa2e
 2302 0a2a 02       		.uleb128 0x2
 2303 0a2b 91       		.byte	0x91
 2304 0a2c 74       		.sleb128 -12
 2305 0a2d 00       		.byte	0
 2306 0a2e 0F       		.uleb128 0xf
 2307 0a2f 04       		.byte	0x4
 2308 0a30 340A0000 		.4byte	0xa34
 2309 0a34 1C       		.uleb128 0x1c
 2310 0a35 17080000 		.4byte	0x817
 2311 0a39 1D       		.uleb128 0x1d
 2312 0a3a 7C110000 		.4byte	.LASF286
 2313 0a3e 01       		.byte	0x1
 2314 0a3f F004     		.2byte	0x4f0
 2315 0a41 00000000 		.4byte	.LFB4
ARM GAS  C:\Users\Ecapable\AppData\Local\Temp\ccmAuCaF.s 			page 78


 2316 0a45 18000000 		.4byte	.LFE4-.LFB4
 2317 0a49 01       		.uleb128 0x1
 2318 0a4a 9C       		.byte	0x9c
 2319 0a4b 1A       		.uleb128 0x1a
 2320 0a4c 671A0000 		.4byte	.LASF285
 2321 0a50 01       		.byte	0x1
 2322 0a51 2805     		.2byte	0x528
 2323 0a53 00000000 		.4byte	.LFB5
 2324 0a57 0E000000 		.4byte	.LFE5-.LFB5
 2325 0a5b 01       		.uleb128 0x1
 2326 0a5c 9C       		.byte	0x9c
 2327 0a5d 710A0000 		.4byte	0xa71
 2328 0a61 1B       		.uleb128 0x1b
 2329 0a62 90000000 		.4byte	.LASF284
 2330 0a66 01       		.byte	0x1
 2331 0a67 2805     		.2byte	0x528
 2332 0a69 710A0000 		.4byte	0xa71
 2333 0a6d 02       		.uleb128 0x2
 2334 0a6e 91       		.byte	0x91
 2335 0a6f 74       		.sleb128 -12
 2336 0a70 00       		.byte	0
 2337 0a71 0F       		.uleb128 0xf
 2338 0a72 04       		.byte	0x4
 2339 0a73 770A0000 		.4byte	0xa77
 2340 0a77 1C       		.uleb128 0x1c
 2341 0a78 A3040000 		.4byte	0x4a3
 2342 0a7c 1D       		.uleb128 0x1d
 2343 0a7d 1C110000 		.4byte	.LASF287
 2344 0a81 01       		.byte	0x1
 2345 0a82 6005     		.2byte	0x560
 2346 0a84 00000000 		.4byte	.LFB6
 2347 0a88 08000000 		.4byte	.LFE6-.LFB6
 2348 0a8c 01       		.uleb128 0x1
 2349 0a8d 9C       		.byte	0x9c
 2350 0a8e 1E       		.uleb128 0x1e
 2351 0a8f 88150000 		.4byte	.LASF313
 2352 0a93 01       		.byte	0x1
 2353 0a94 8C05     		.2byte	0x58c
 2354 0a96 6B000000 		.4byte	0x6b
 2355 0a9a 00000000 		.4byte	.LFB7
 2356 0a9e 60000000 		.4byte	.LFE7-.LFB7
 2357 0aa2 01       		.uleb128 0x1
 2358 0aa3 9C       		.byte	0x9c
 2359 0aa4 D40A0000 		.4byte	0xad4
 2360 0aa8 1B       		.uleb128 0x1b
 2361 0aa9 E60A0000 		.4byte	.LASF288
 2362 0aad 01       		.byte	0x1
 2363 0aae 8C05     		.2byte	0x58c
 2364 0ab0 D40A0000 		.4byte	0xad4
 2365 0ab4 02       		.uleb128 0x2
 2366 0ab5 91       		.byte	0x91
 2367 0ab6 6C       		.sleb128 -20
 2368 0ab7 1F       		.uleb128 0x1f
 2369 0ab8 6900     		.ascii	"i\000"
 2370 0aba 01       		.byte	0x1
 2371 0abb 8E05     		.2byte	0x58e
 2372 0abd 6B000000 		.4byte	0x6b
ARM GAS  C:\Users\Ecapable\AppData\Local\Temp\ccmAuCaF.s 			page 79


 2373 0ac1 02       		.uleb128 0x2
 2374 0ac2 91       		.byte	0x91
 2375 0ac3 77       		.sleb128 -9
 2376 0ac4 19       		.uleb128 0x19
 2377 0ac5 B6030000 		.4byte	.LASF289
 2378 0ac9 01       		.byte	0x1
 2379 0aca 8F05     		.2byte	0x58f
 2380 0acc 6B000000 		.4byte	0x6b
 2381 0ad0 02       		.uleb128 0x2
 2382 0ad1 91       		.byte	0x91
 2383 0ad2 76       		.sleb128 -10
 2384 0ad3 00       		.byte	0
 2385 0ad4 0F       		.uleb128 0xf
 2386 0ad5 04       		.byte	0x4
 2387 0ad6 DA0A0000 		.4byte	0xada
 2388 0ada 1C       		.uleb128 0x1c
 2389 0adb 76040000 		.4byte	0x476
 2390 0adf 1A       		.uleb128 0x1a
 2391 0ae0 D61B0000 		.4byte	.LASF290
 2392 0ae4 01       		.byte	0x1
 2393 0ae5 B005     		.2byte	0x5b0
 2394 0ae7 00000000 		.4byte	.LFB8
 2395 0aeb 12000000 		.4byte	.LFE8-.LFB8
 2396 0aef 01       		.uleb128 0x1
 2397 0af0 9C       		.byte	0x9c
 2398 0af1 050B0000 		.4byte	0xb05
 2399 0af5 1B       		.uleb128 0x1b
 2400 0af6 FF1D0000 		.4byte	.LASF291
 2401 0afa 01       		.byte	0x1
 2402 0afb B005     		.2byte	0x5b0
 2403 0afd 77000000 		.4byte	0x77
 2404 0b01 02       		.uleb128 0x2
 2405 0b02 91       		.byte	0x91
 2406 0b03 76       		.sleb128 -10
 2407 0b04 00       		.byte	0
 2408 0b05 1A       		.uleb128 0x1a
 2409 0b06 3F0C0000 		.4byte	.LASF292
 2410 0b0a 01       		.byte	0x1
 2411 0b0b CA05     		.2byte	0x5ca
 2412 0b0d 00000000 		.4byte	.LFB9
 2413 0b11 0E000000 		.4byte	.LFE9-.LFB9
 2414 0b15 01       		.uleb128 0x1
 2415 0b16 9C       		.byte	0x9c
 2416 0b17 2B0B0000 		.4byte	0xb2b
 2417 0b1b 1B       		.uleb128 0x1b
 2418 0b1c 90000000 		.4byte	.LASF284
 2419 0b20 01       		.byte	0x1
 2420 0b21 CA05     		.2byte	0x5ca
 2421 0b23 2B0B0000 		.4byte	0xb2b
 2422 0b27 02       		.uleb128 0x2
 2423 0b28 91       		.byte	0x91
 2424 0b29 74       		.sleb128 -12
 2425 0b2a 00       		.byte	0
 2426 0b2b 0F       		.uleb128 0xf
 2427 0b2c 04       		.byte	0x4
 2428 0b2d 310B0000 		.4byte	0xb31
 2429 0b31 1C       		.uleb128 0x1c
ARM GAS  C:\Users\Ecapable\AppData\Local\Temp\ccmAuCaF.s 			page 80


 2430 0b32 14060000 		.4byte	0x614
 2431 0b36 20       		.uleb128 0x20
 2432 0b37 47070000 		.4byte	.LASF314
 2433 0b3b 01       		.byte	0x1
 2434 0b3c E405     		.2byte	0x5e4
 2435 0b3e 00000000 		.4byte	.LFB10
 2436 0b42 64030000 		.4byte	.LFE10-.LFB10
 2437 0b46 01       		.uleb128 0x1
 2438 0b47 9C       		.byte	0x9c
 2439 0b48 140C0000 		.4byte	0xc14
 2440 0b4c 1B       		.uleb128 0x1b
 2441 0b4d C01E0000 		.4byte	.LASF293
 2442 0b51 01       		.byte	0x1
 2443 0b52 E405     		.2byte	0x5e4
 2444 0b54 6B000000 		.4byte	0x6b
 2445 0b58 02       		.uleb128 0x2
 2446 0b59 91       		.byte	0x91
 2447 0b5a 5F       		.sleb128 -33
 2448 0b5b 1B       		.uleb128 0x1b
 2449 0b5c 90000000 		.4byte	.LASF284
 2450 0b60 01       		.byte	0x1
 2451 0b61 E405     		.2byte	0x5e4
 2452 0b63 B0000000 		.4byte	0xb0
 2453 0b67 02       		.uleb128 0x2
 2454 0b68 91       		.byte	0x91
 2455 0b69 58       		.sleb128 -40
 2456 0b6a 21       		.uleb128 0x21
 2457 0b6b 32000000 		.4byte	.LBB3
 2458 0b6f 34000000 		.4byte	.LBE3-.LBB3
 2459 0b73 870B0000 		.4byte	0xb87
 2460 0b77 19       		.uleb128 0x19
 2461 0b78 D8180000 		.4byte	.LASF294
 2462 0b7c 01       		.byte	0x1
 2463 0b7d F105     		.2byte	0x5f1
 2464 0b7f D7030000 		.4byte	0x3d7
 2465 0b83 02       		.uleb128 0x2
 2466 0b84 91       		.byte	0x91
 2467 0b85 68       		.sleb128 -24
 2468 0b86 00       		.byte	0
 2469 0b87 21       		.uleb128 0x21
 2470 0b88 98000000 		.4byte	.LBB4
 2471 0b8c 52000000 		.4byte	.LBE4-.LBB4
 2472 0b90 A40B0000 		.4byte	0xba4
 2473 0b94 19       		.uleb128 0x19
 2474 0b95 1C1E0000 		.4byte	.LASF295
 2475 0b99 01       		.byte	0x1
 2476 0b9a 0B06     		.2byte	0x60b
 2477 0b9c 83000000 		.4byte	0x83
 2478 0ba0 02       		.uleb128 0x2
 2479 0ba1 91       		.byte	0x91
 2480 0ba2 70       		.sleb128 -16
 2481 0ba3 00       		.byte	0
 2482 0ba4 21       		.uleb128 0x21
 2483 0ba5 0C010000 		.4byte	.LBB5
 2484 0ba9 1A000000 		.4byte	.LBE5-.LBB5
 2485 0bad C10B0000 		.4byte	0xbc1
 2486 0bb1 19       		.uleb128 0x19
ARM GAS  C:\Users\Ecapable\AppData\Local\Temp\ccmAuCaF.s 			page 81


 2487 0bb2 6E1B0000 		.4byte	.LASF296
 2488 0bb6 01       		.byte	0x1
 2489 0bb7 2306     		.2byte	0x623
 2490 0bb9 140C0000 		.4byte	0xc14
 2491 0bbd 02       		.uleb128 0x2
 2492 0bbe 91       		.byte	0x91
 2493 0bbf 64       		.sleb128 -28
 2494 0bc0 00       		.byte	0
 2495 0bc1 21       		.uleb128 0x21
 2496 0bc2 42010000 		.4byte	.LBB6
 2497 0bc6 3C000000 		.4byte	.LBE6-.LBB6
 2498 0bca FA0B0000 		.4byte	0xbfa
 2499 0bce 19       		.uleb128 0x19
 2500 0bcf 51020000 		.4byte	.LASF297
 2501 0bd3 01       		.byte	0x1
 2502 0bd4 3B06     		.2byte	0x63b
 2503 0bd6 240C0000 		.4byte	0xc24
 2504 0bda 02       		.uleb128 0x2
 2505 0bdb 91       		.byte	0x91
 2506 0bdc 6C       		.sleb128 -20
 2507 0bdd 18       		.uleb128 0x18
 2508 0bde 56010000 		.4byte	.LBB7
 2509 0be2 18000000 		.4byte	.LBE7-.LBB7
 2510 0be6 19       		.uleb128 0x19
 2511 0be7 27150000 		.4byte	.LASF298
 2512 0beb 01       		.byte	0x1
 2513 0bec 4206     		.2byte	0x642
 2514 0bee F1080000 		.4byte	0x8f1
 2515 0bf2 05       		.uleb128 0x5
 2516 0bf3 03       		.byte	0x3
 2517 0bf4 00000000 		.4byte	gPrepWriteReqMem.6332
 2518 0bf8 00       		.byte	0
 2519 0bf9 00       		.byte	0
 2520 0bfa 18       		.uleb128 0x18
 2521 0bfb A0020000 		.4byte	.LBB8
 2522 0bff 38000000 		.4byte	.LBE8-.LBB8
 2523 0c03 19       		.uleb128 0x19
 2524 0c04 64100000 		.4byte	.LASF299
 2525 0c08 01       		.byte	0x1
 2526 0c09 1907     		.2byte	0x719
 2527 0c0b 77000000 		.4byte	0x77
 2528 0c0f 02       		.uleb128 0x2
 2529 0c10 91       		.byte	0x91
 2530 0c11 76       		.sleb128 -10
 2531 0c12 00       		.byte	0
 2532 0c13 00       		.byte	0
 2533 0c14 0B       		.uleb128 0xb
 2534 0c15 6B000000 		.4byte	0x6b
 2535 0c19 240C0000 		.4byte	0xc24
 2536 0c1d 0C       		.uleb128 0xc
 2537 0c1e A9000000 		.4byte	0xa9
 2538 0c22 01       		.byte	0x1
 2539 0c23 00       		.byte	0
 2540 0c24 0F       		.uleb128 0xf
 2541 0c25 04       		.byte	0x4
 2542 0c26 36040000 		.4byte	0x436
 2543 0c2a 22       		.uleb128 0x22
ARM GAS  C:\Users\Ecapable\AppData\Local\Temp\ccmAuCaF.s 			page 82


 2544 0c2b 36190000 		.4byte	.LASF300
 2545 0c2f 08       		.byte	0x8
 2546 0c30 7E02     		.2byte	0x27e
 2547 0c32 61090000 		.4byte	0x961
 2548 0c36 0B       		.uleb128 0xb
 2549 0c37 6B000000 		.4byte	0x6b
 2550 0c3b 470C0000 		.4byte	0xc47
 2551 0c3f 23       		.uleb128 0x23
 2552 0c40 A9000000 		.4byte	0xa9
 2553 0c44 DF0A     		.2byte	0xadf
 2554 0c46 00       		.byte	0
 2555 0c47 22       		.uleb128 0x22
 2556 0c48 9C1D0000 		.4byte	.LASF301
 2557 0c4c 08       		.byte	0x8
 2558 0c4d 8302     		.2byte	0x283
 2559 0c4f 360C0000 		.4byte	0xc36
 2560 0c53 24       		.uleb128 0x24
 2561 0c54 F40A0000 		.4byte	.LASF302
 2562 0c58 01       		.byte	0x1
 2563 0c59 3D       		.byte	0x3d
 2564 0c5a A4000000 		.4byte	0xa4
 2565 0c5e 05       		.uleb128 0x5
 2566 0c5f 03       		.byte	0x3
 2567 0c60 00000000 		.4byte	cyBle_eventHandlerFlag
 2568 0c64 22       		.uleb128 0x22
 2569 0c65 9F050000 		.4byte	.LASF303
 2570 0c69 08       		.byte	0x8
 2571 0c6a 8602     		.2byte	0x286
 2572 0c6c 76040000 		.4byte	0x476
 2573 0c70 22       		.uleb128 0x22
 2574 0c71 D20C0000 		.4byte	.LASF304
 2575 0c75 08       		.byte	0x8
 2576 0c76 8702     		.2byte	0x287
 2577 0c78 7C0C0000 		.4byte	0xc7c
 2578 0c7c 0F       		.uleb128 0xf
 2579 0c7d 04       		.byte	0x4
 2580 0c7e 76040000 		.4byte	0x476
 2581 0c82 24       		.uleb128 0x24
 2582 0c83 A31B0000 		.4byte	.LASF305
 2583 0c87 01       		.byte	0x1
 2584 0c88 D0       		.byte	0xd0
 2585 0c89 C4050000 		.4byte	0x5c4
 2586 0c8d 05       		.uleb128 0x5
 2587 0c8e 03       		.byte	0x3
 2588 0c8f 00000000 		.4byte	cyBle_authInfo
 2589 0c93 22       		.uleb128 0x22
 2590 0c94 1D1B0000 		.4byte	.LASF306
 2591 0c98 09       		.byte	0x9
 2592 0c99 DA09     		.2byte	0x9da
 2593 0c9b AB090000 		.4byte	0x9ab
 2594 0c9f 24       		.uleb128 0x24
 2595 0ca0 DF0B0000 		.4byte	.LASF307
 2596 0ca4 01       		.byte	0x1
 2597 0ca5 3B       		.byte	0x3b
 2598 0ca6 17080000 		.4byte	0x817
 2599 0caa 05       		.uleb128 0x5
 2600 0cab 03       		.byte	0x3
ARM GAS  C:\Users\Ecapable\AppData\Local\Temp\ccmAuCaF.s 			page 83


 2601 0cac 00000000 		.4byte	cyBle_connHandle
 2602 0cb0 24       		.uleb128 0x24
 2603 0cb1 3A100000 		.4byte	.LASF308
 2604 0cb5 01       		.byte	0x1
 2605 0cb6 3E       		.byte	0x3e
 2606 0cb7 A4000000 		.4byte	0xa4
 2607 0cbb 05       		.uleb128 0x5
 2608 0cbc 03       		.byte	0x3
 2609 0cbd 00000000 		.4byte	cyBle_busyStatus
 2610 0cc1 24       		.uleb128 0x24
 2611 0cc2 B11D0000 		.4byte	.LASF309
 2612 0cc6 01       		.byte	0x1
 2613 0cc7 41       		.byte	0x41
 2614 0cc8 6B000000 		.4byte	0x6b
 2615 0ccc 05       		.uleb128 0x5
 2616 0ccd 03       		.byte	0x3
 2617 0cce 00000000 		.4byte	cyBle_advertisingIntervalType
 2618 0cd2 00       		.byte	0
 2619              		.section	.debug_abbrev,"",%progbits
 2620              	.Ldebug_abbrev0:
 2621 0000 01       		.uleb128 0x1
 2622 0001 11       		.uleb128 0x11
 2623 0002 01       		.byte	0x1
 2624 0003 25       		.uleb128 0x25
 2625 0004 0E       		.uleb128 0xe
 2626 0005 13       		.uleb128 0x13
 2627 0006 0B       		.uleb128 0xb
 2628 0007 03       		.uleb128 0x3
 2629 0008 0E       		.uleb128 0xe
 2630 0009 1B       		.uleb128 0x1b
 2631 000a 0E       		.uleb128 0xe
 2632 000b 55       		.uleb128 0x55
 2633 000c 17       		.uleb128 0x17
 2634 000d 11       		.uleb128 0x11
 2635 000e 01       		.uleb128 0x1
 2636 000f 10       		.uleb128 0x10
 2637 0010 17       		.uleb128 0x17
 2638 0011 00       		.byte	0
 2639 0012 00       		.byte	0
 2640 0013 02       		.uleb128 0x2
 2641 0014 24       		.uleb128 0x24
 2642 0015 00       		.byte	0
 2643 0016 0B       		.uleb128 0xb
 2644 0017 0B       		.uleb128 0xb
 2645 0018 3E       		.uleb128 0x3e
 2646 0019 0B       		.uleb128 0xb
 2647 001a 03       		.uleb128 0x3
 2648 001b 0E       		.uleb128 0xe
 2649 001c 00       		.byte	0
 2650 001d 00       		.byte	0
 2651 001e 03       		.uleb128 0x3
 2652 001f 24       		.uleb128 0x24
 2653 0020 00       		.byte	0
 2654 0021 0B       		.uleb128 0xb
 2655 0022 0B       		.uleb128 0xb
 2656 0023 3E       		.uleb128 0x3e
 2657 0024 0B       		.uleb128 0xb
ARM GAS  C:\Users\Ecapable\AppData\Local\Temp\ccmAuCaF.s 			page 84


 2658 0025 03       		.uleb128 0x3
 2659 0026 08       		.uleb128 0x8
 2660 0027 00       		.byte	0
 2661 0028 00       		.byte	0
 2662 0029 04       		.uleb128 0x4
 2663 002a 16       		.uleb128 0x16
 2664 002b 00       		.byte	0
 2665 002c 03       		.uleb128 0x3
 2666 002d 0E       		.uleb128 0xe
 2667 002e 3A       		.uleb128 0x3a
 2668 002f 0B       		.uleb128 0xb
 2669 0030 3B       		.uleb128 0x3b
 2670 0031 05       		.uleb128 0x5
 2671 0032 49       		.uleb128 0x49
 2672 0033 13       		.uleb128 0x13
 2673 0034 00       		.byte	0
 2674 0035 00       		.byte	0
 2675 0036 05       		.uleb128 0x5
 2676 0037 35       		.uleb128 0x35
 2677 0038 00       		.byte	0
 2678 0039 49       		.uleb128 0x49
 2679 003a 13       		.uleb128 0x13
 2680 003b 00       		.byte	0
 2681 003c 00       		.byte	0
 2682 003d 06       		.uleb128 0x6
 2683 003e 0F       		.uleb128 0xf
 2684 003f 00       		.byte	0
 2685 0040 0B       		.uleb128 0xb
 2686 0041 0B       		.uleb128 0xb
 2687 0042 00       		.byte	0
 2688 0043 00       		.byte	0
 2689 0044 07       		.uleb128 0x7
 2690 0045 04       		.uleb128 0x4
 2691 0046 01       		.byte	0x1
 2692 0047 0B       		.uleb128 0xb
 2693 0048 0B       		.uleb128 0xb
 2694 0049 3A       		.uleb128 0x3a
 2695 004a 0B       		.uleb128 0xb
 2696 004b 3B       		.uleb128 0x3b
 2697 004c 05       		.uleb128 0x5
 2698 004d 01       		.uleb128 0x1
 2699 004e 13       		.uleb128 0x13
 2700 004f 00       		.byte	0
 2701 0050 00       		.byte	0
 2702 0051 08       		.uleb128 0x8
 2703 0052 28       		.uleb128 0x28
 2704 0053 00       		.byte	0
 2705 0054 03       		.uleb128 0x3
 2706 0055 0E       		.uleb128 0xe
 2707 0056 1C       		.uleb128 0x1c
 2708 0057 0D       		.uleb128 0xd
 2709 0058 00       		.byte	0
 2710 0059 00       		.byte	0
 2711 005a 09       		.uleb128 0x9
 2712 005b 13       		.uleb128 0x13
 2713 005c 01       		.byte	0x1
 2714 005d 0B       		.uleb128 0xb
ARM GAS  C:\Users\Ecapable\AppData\Local\Temp\ccmAuCaF.s 			page 85


 2715 005e 0B       		.uleb128 0xb
 2716 005f 3A       		.uleb128 0x3a
 2717 0060 0B       		.uleb128 0xb
 2718 0061 3B       		.uleb128 0x3b
 2719 0062 05       		.uleb128 0x5
 2720 0063 01       		.uleb128 0x1
 2721 0064 13       		.uleb128 0x13
 2722 0065 00       		.byte	0
 2723 0066 00       		.byte	0
 2724 0067 0A       		.uleb128 0xa
 2725 0068 0D       		.uleb128 0xd
 2726 0069 00       		.byte	0
 2727 006a 03       		.uleb128 0x3
 2728 006b 0E       		.uleb128 0xe
 2729 006c 3A       		.uleb128 0x3a
 2730 006d 0B       		.uleb128 0xb
 2731 006e 3B       		.uleb128 0x3b
 2732 006f 05       		.uleb128 0x5
 2733 0070 49       		.uleb128 0x49
 2734 0071 13       		.uleb128 0x13
 2735 0072 38       		.uleb128 0x38
 2736 0073 0B       		.uleb128 0xb
 2737 0074 00       		.byte	0
 2738 0075 00       		.byte	0
 2739 0076 0B       		.uleb128 0xb
 2740 0077 01       		.uleb128 0x1
 2741 0078 01       		.byte	0x1
 2742 0079 49       		.uleb128 0x49
 2743 007a 13       		.uleb128 0x13
 2744 007b 01       		.uleb128 0x1
 2745 007c 13       		.uleb128 0x13
 2746 007d 00       		.byte	0
 2747 007e 00       		.byte	0
 2748 007f 0C       		.uleb128 0xc
 2749 0080 21       		.uleb128 0x21
 2750 0081 00       		.byte	0
 2751 0082 49       		.uleb128 0x49
 2752 0083 13       		.uleb128 0x13
 2753 0084 2F       		.uleb128 0x2f
 2754 0085 0B       		.uleb128 0xb
 2755 0086 00       		.byte	0
 2756 0087 00       		.byte	0
 2757 0088 0D       		.uleb128 0xd
 2758 0089 04       		.uleb128 0x4
 2759 008a 01       		.byte	0x1
 2760 008b 0B       		.uleb128 0xb
 2761 008c 0B       		.uleb128 0xb
 2762 008d 3A       		.uleb128 0x3a
 2763 008e 0B       		.uleb128 0xb
 2764 008f 3B       		.uleb128 0x3b
 2765 0090 0B       		.uleb128 0xb
 2766 0091 01       		.uleb128 0x1
 2767 0092 13       		.uleb128 0x13
 2768 0093 00       		.byte	0
 2769 0094 00       		.byte	0
 2770 0095 0E       		.uleb128 0xe
 2771 0096 16       		.uleb128 0x16
ARM GAS  C:\Users\Ecapable\AppData\Local\Temp\ccmAuCaF.s 			page 86


 2772 0097 00       		.byte	0
 2773 0098 03       		.uleb128 0x3
 2774 0099 0E       		.uleb128 0xe
 2775 009a 3A       		.uleb128 0x3a
 2776 009b 0B       		.uleb128 0xb
 2777 009c 3B       		.uleb128 0x3b
 2778 009d 0B       		.uleb128 0xb
 2779 009e 49       		.uleb128 0x49
 2780 009f 13       		.uleb128 0x13
 2781 00a0 00       		.byte	0
 2782 00a1 00       		.byte	0
 2783 00a2 0F       		.uleb128 0xf
 2784 00a3 0F       		.uleb128 0xf
 2785 00a4 00       		.byte	0
 2786 00a5 0B       		.uleb128 0xb
 2787 00a6 0B       		.uleb128 0xb
 2788 00a7 49       		.uleb128 0x49
 2789 00a8 13       		.uleb128 0x13
 2790 00a9 00       		.byte	0
 2791 00aa 00       		.byte	0
 2792 00ab 10       		.uleb128 0x10
 2793 00ac 0D       		.uleb128 0xd
 2794 00ad 00       		.byte	0
 2795 00ae 03       		.uleb128 0x3
 2796 00af 08       		.uleb128 0x8
 2797 00b0 3A       		.uleb128 0x3a
 2798 00b1 0B       		.uleb128 0xb
 2799 00b2 3B       		.uleb128 0x3b
 2800 00b3 05       		.uleb128 0x5
 2801 00b4 49       		.uleb128 0x49
 2802 00b5 13       		.uleb128 0x13
 2803 00b6 38       		.uleb128 0x38
 2804 00b7 0B       		.uleb128 0xb
 2805 00b8 00       		.byte	0
 2806 00b9 00       		.byte	0
 2807 00ba 11       		.uleb128 0x11
 2808 00bb 13       		.uleb128 0x13
 2809 00bc 01       		.byte	0x1
 2810 00bd 0B       		.uleb128 0xb
 2811 00be 0B       		.uleb128 0xb
 2812 00bf 3A       		.uleb128 0x3a
 2813 00c0 0B       		.uleb128 0xb
 2814 00c1 3B       		.uleb128 0x3b
 2815 00c2 0B       		.uleb128 0xb
 2816 00c3 01       		.uleb128 0x1
 2817 00c4 13       		.uleb128 0x13
 2818 00c5 00       		.byte	0
 2819 00c6 00       		.byte	0
 2820 00c7 12       		.uleb128 0x12
 2821 00c8 0D       		.uleb128 0xd
 2822 00c9 00       		.byte	0
 2823 00ca 03       		.uleb128 0x3
 2824 00cb 0E       		.uleb128 0xe
 2825 00cc 3A       		.uleb128 0x3a
 2826 00cd 0B       		.uleb128 0xb
 2827 00ce 3B       		.uleb128 0x3b
 2828 00cf 0B       		.uleb128 0xb
ARM GAS  C:\Users\Ecapable\AppData\Local\Temp\ccmAuCaF.s 			page 87


 2829 00d0 49       		.uleb128 0x49
 2830 00d1 13       		.uleb128 0x13
 2831 00d2 38       		.uleb128 0x38
 2832 00d3 0B       		.uleb128 0xb
 2833 00d4 00       		.byte	0
 2834 00d5 00       		.byte	0
 2835 00d6 13       		.uleb128 0x13
 2836 00d7 15       		.uleb128 0x15
 2837 00d8 01       		.byte	0x1
 2838 00d9 27       		.uleb128 0x27
 2839 00da 19       		.uleb128 0x19
 2840 00db 01       		.uleb128 0x1
 2841 00dc 13       		.uleb128 0x13
 2842 00dd 00       		.byte	0
 2843 00de 00       		.byte	0
 2844 00df 14       		.uleb128 0x14
 2845 00e0 05       		.uleb128 0x5
 2846 00e1 00       		.byte	0
 2847 00e2 49       		.uleb128 0x49
 2848 00e3 13       		.uleb128 0x13
 2849 00e4 00       		.byte	0
 2850 00e5 00       		.byte	0
 2851 00e6 15       		.uleb128 0x15
 2852 00e7 2E       		.uleb128 0x2e
 2853 00e8 01       		.byte	0x1
 2854 00e9 03       		.uleb128 0x3
 2855 00ea 0E       		.uleb128 0xe
 2856 00eb 3A       		.uleb128 0x3a
 2857 00ec 0B       		.uleb128 0xb
 2858 00ed 3B       		.uleb128 0x3b
 2859 00ee 0B       		.uleb128 0xb
 2860 00ef 27       		.uleb128 0x27
 2861 00f0 19       		.uleb128 0x19
 2862 00f1 11       		.uleb128 0x11
 2863 00f2 01       		.uleb128 0x1
 2864 00f3 12       		.uleb128 0x12
 2865 00f4 06       		.uleb128 0x6
 2866 00f5 40       		.uleb128 0x40
 2867 00f6 18       		.uleb128 0x18
 2868 00f7 9642     		.uleb128 0x2116
 2869 00f9 19       		.uleb128 0x19
 2870 00fa 01       		.uleb128 0x1
 2871 00fb 13       		.uleb128 0x13
 2872 00fc 00       		.byte	0
 2873 00fd 00       		.byte	0
 2874 00fe 16       		.uleb128 0x16
 2875 00ff 05       		.uleb128 0x5
 2876 0100 00       		.byte	0
 2877 0101 03       		.uleb128 0x3
 2878 0102 0E       		.uleb128 0xe
 2879 0103 3A       		.uleb128 0x3a
 2880 0104 0B       		.uleb128 0xb
 2881 0105 3B       		.uleb128 0x3b
 2882 0106 0B       		.uleb128 0xb
 2883 0107 49       		.uleb128 0x49
 2884 0108 13       		.uleb128 0x13
 2885 0109 02       		.uleb128 0x2
ARM GAS  C:\Users\Ecapable\AppData\Local\Temp\ccmAuCaF.s 			page 88


 2886 010a 18       		.uleb128 0x18
 2887 010b 00       		.byte	0
 2888 010c 00       		.byte	0
 2889 010d 17       		.uleb128 0x17
 2890 010e 34       		.uleb128 0x34
 2891 010f 00       		.byte	0
 2892 0110 03       		.uleb128 0x3
 2893 0111 0E       		.uleb128 0xe
 2894 0112 3A       		.uleb128 0x3a
 2895 0113 0B       		.uleb128 0xb
 2896 0114 3B       		.uleb128 0x3b
 2897 0115 0B       		.uleb128 0xb
 2898 0116 49       		.uleb128 0x49
 2899 0117 13       		.uleb128 0x13
 2900 0118 02       		.uleb128 0x2
 2901 0119 18       		.uleb128 0x18
 2902 011a 00       		.byte	0
 2903 011b 00       		.byte	0
 2904 011c 18       		.uleb128 0x18
 2905 011d 0B       		.uleb128 0xb
 2906 011e 01       		.byte	0x1
 2907 011f 11       		.uleb128 0x11
 2908 0120 01       		.uleb128 0x1
 2909 0121 12       		.uleb128 0x12
 2910 0122 06       		.uleb128 0x6
 2911 0123 00       		.byte	0
 2912 0124 00       		.byte	0
 2913 0125 19       		.uleb128 0x19
 2914 0126 34       		.uleb128 0x34
 2915 0127 00       		.byte	0
 2916 0128 03       		.uleb128 0x3
 2917 0129 0E       		.uleb128 0xe
 2918 012a 3A       		.uleb128 0x3a
 2919 012b 0B       		.uleb128 0xb
 2920 012c 3B       		.uleb128 0x3b
 2921 012d 05       		.uleb128 0x5
 2922 012e 49       		.uleb128 0x49
 2923 012f 13       		.uleb128 0x13
 2924 0130 02       		.uleb128 0x2
 2925 0131 18       		.uleb128 0x18
 2926 0132 00       		.byte	0
 2927 0133 00       		.byte	0
 2928 0134 1A       		.uleb128 0x1a
 2929 0135 2E       		.uleb128 0x2e
 2930 0136 01       		.byte	0x1
 2931 0137 03       		.uleb128 0x3
 2932 0138 0E       		.uleb128 0xe
 2933 0139 3A       		.uleb128 0x3a
 2934 013a 0B       		.uleb128 0xb
 2935 013b 3B       		.uleb128 0x3b
 2936 013c 05       		.uleb128 0x5
 2937 013d 27       		.uleb128 0x27
 2938 013e 19       		.uleb128 0x19
 2939 013f 11       		.uleb128 0x11
 2940 0140 01       		.uleb128 0x1
 2941 0141 12       		.uleb128 0x12
 2942 0142 06       		.uleb128 0x6
ARM GAS  C:\Users\Ecapable\AppData\Local\Temp\ccmAuCaF.s 			page 89


 2943 0143 40       		.uleb128 0x40
 2944 0144 18       		.uleb128 0x18
 2945 0145 9742     		.uleb128 0x2117
 2946 0147 19       		.uleb128 0x19
 2947 0148 01       		.uleb128 0x1
 2948 0149 13       		.uleb128 0x13
 2949 014a 00       		.byte	0
 2950 014b 00       		.byte	0
 2951 014c 1B       		.uleb128 0x1b
 2952 014d 05       		.uleb128 0x5
 2953 014e 00       		.byte	0
 2954 014f 03       		.uleb128 0x3
 2955 0150 0E       		.uleb128 0xe
 2956 0151 3A       		.uleb128 0x3a
 2957 0152 0B       		.uleb128 0xb
 2958 0153 3B       		.uleb128 0x3b
 2959 0154 05       		.uleb128 0x5
 2960 0155 49       		.uleb128 0x49
 2961 0156 13       		.uleb128 0x13
 2962 0157 02       		.uleb128 0x2
 2963 0158 18       		.uleb128 0x18
 2964 0159 00       		.byte	0
 2965 015a 00       		.byte	0
 2966 015b 1C       		.uleb128 0x1c
 2967 015c 26       		.uleb128 0x26
 2968 015d 00       		.byte	0
 2969 015e 49       		.uleb128 0x49
 2970 015f 13       		.uleb128 0x13
 2971 0160 00       		.byte	0
 2972 0161 00       		.byte	0
 2973 0162 1D       		.uleb128 0x1d
 2974 0163 2E       		.uleb128 0x2e
 2975 0164 00       		.byte	0
 2976 0165 03       		.uleb128 0x3
 2977 0166 0E       		.uleb128 0xe
 2978 0167 3A       		.uleb128 0x3a
 2979 0168 0B       		.uleb128 0xb
 2980 0169 3B       		.uleb128 0x3b
 2981 016a 05       		.uleb128 0x5
 2982 016b 27       		.uleb128 0x27
 2983 016c 19       		.uleb128 0x19
 2984 016d 11       		.uleb128 0x11
 2985 016e 01       		.uleb128 0x1
 2986 016f 12       		.uleb128 0x12
 2987 0170 06       		.uleb128 0x6
 2988 0171 40       		.uleb128 0x40
 2989 0172 18       		.uleb128 0x18
 2990 0173 9742     		.uleb128 0x2117
 2991 0175 19       		.uleb128 0x19
 2992 0176 00       		.byte	0
 2993 0177 00       		.byte	0
 2994 0178 1E       		.uleb128 0x1e
 2995 0179 2E       		.uleb128 0x2e
 2996 017a 01       		.byte	0x1
 2997 017b 3F       		.uleb128 0x3f
 2998 017c 19       		.uleb128 0x19
 2999 017d 03       		.uleb128 0x3
ARM GAS  C:\Users\Ecapable\AppData\Local\Temp\ccmAuCaF.s 			page 90


 3000 017e 0E       		.uleb128 0xe
 3001 017f 3A       		.uleb128 0x3a
 3002 0180 0B       		.uleb128 0xb
 3003 0181 3B       		.uleb128 0x3b
 3004 0182 05       		.uleb128 0x5
 3005 0183 27       		.uleb128 0x27
 3006 0184 19       		.uleb128 0x19
 3007 0185 49       		.uleb128 0x49
 3008 0186 13       		.uleb128 0x13
 3009 0187 11       		.uleb128 0x11
 3010 0188 01       		.uleb128 0x1
 3011 0189 12       		.uleb128 0x12
 3012 018a 06       		.uleb128 0x6
 3013 018b 40       		.uleb128 0x40
 3014 018c 18       		.uleb128 0x18
 3015 018d 9742     		.uleb128 0x2117
 3016 018f 19       		.uleb128 0x19
 3017 0190 01       		.uleb128 0x1
 3018 0191 13       		.uleb128 0x13
 3019 0192 00       		.byte	0
 3020 0193 00       		.byte	0
 3021 0194 1F       		.uleb128 0x1f
 3022 0195 34       		.uleb128 0x34
 3023 0196 00       		.byte	0
 3024 0197 03       		.uleb128 0x3
 3025 0198 08       		.uleb128 0x8
 3026 0199 3A       		.uleb128 0x3a
 3027 019a 0B       		.uleb128 0xb
 3028 019b 3B       		.uleb128 0x3b
 3029 019c 05       		.uleb128 0x5
 3030 019d 49       		.uleb128 0x49
 3031 019e 13       		.uleb128 0x13
 3032 019f 02       		.uleb128 0x2
 3033 01a0 18       		.uleb128 0x18
 3034 01a1 00       		.byte	0
 3035 01a2 00       		.byte	0
 3036 01a3 20       		.uleb128 0x20
 3037 01a4 2E       		.uleb128 0x2e
 3038 01a5 01       		.byte	0x1
 3039 01a6 3F       		.uleb128 0x3f
 3040 01a7 19       		.uleb128 0x19
 3041 01a8 03       		.uleb128 0x3
 3042 01a9 0E       		.uleb128 0xe
 3043 01aa 3A       		.uleb128 0x3a
 3044 01ab 0B       		.uleb128 0xb
 3045 01ac 3B       		.uleb128 0x3b
 3046 01ad 05       		.uleb128 0x5
 3047 01ae 27       		.uleb128 0x27
 3048 01af 19       		.uleb128 0x19
 3049 01b0 11       		.uleb128 0x11
 3050 01b1 01       		.uleb128 0x1
 3051 01b2 12       		.uleb128 0x12
 3052 01b3 06       		.uleb128 0x6
 3053 01b4 40       		.uleb128 0x40
 3054 01b5 18       		.uleb128 0x18
 3055 01b6 9642     		.uleb128 0x2116
 3056 01b8 19       		.uleb128 0x19
ARM GAS  C:\Users\Ecapable\AppData\Local\Temp\ccmAuCaF.s 			page 91


 3057 01b9 01       		.uleb128 0x1
 3058 01ba 13       		.uleb128 0x13
 3059 01bb 00       		.byte	0
 3060 01bc 00       		.byte	0
 3061 01bd 21       		.uleb128 0x21
 3062 01be 0B       		.uleb128 0xb
 3063 01bf 01       		.byte	0x1
 3064 01c0 11       		.uleb128 0x11
 3065 01c1 01       		.uleb128 0x1
 3066 01c2 12       		.uleb128 0x12
 3067 01c3 06       		.uleb128 0x6
 3068 01c4 01       		.uleb128 0x1
 3069 01c5 13       		.uleb128 0x13
 3070 01c6 00       		.byte	0
 3071 01c7 00       		.byte	0
 3072 01c8 22       		.uleb128 0x22
 3073 01c9 34       		.uleb128 0x34
 3074 01ca 00       		.byte	0
 3075 01cb 03       		.uleb128 0x3
 3076 01cc 0E       		.uleb128 0xe
 3077 01cd 3A       		.uleb128 0x3a
 3078 01ce 0B       		.uleb128 0xb
 3079 01cf 3B       		.uleb128 0x3b
 3080 01d0 05       		.uleb128 0x5
 3081 01d1 49       		.uleb128 0x49
 3082 01d2 13       		.uleb128 0x13
 3083 01d3 3F       		.uleb128 0x3f
 3084 01d4 19       		.uleb128 0x19
 3085 01d5 3C       		.uleb128 0x3c
 3086 01d6 19       		.uleb128 0x19
 3087 01d7 00       		.byte	0
 3088 01d8 00       		.byte	0
 3089 01d9 23       		.uleb128 0x23
 3090 01da 21       		.uleb128 0x21
 3091 01db 00       		.byte	0
 3092 01dc 49       		.uleb128 0x49
 3093 01dd 13       		.uleb128 0x13
 3094 01de 2F       		.uleb128 0x2f
 3095 01df 05       		.uleb128 0x5
 3096 01e0 00       		.byte	0
 3097 01e1 00       		.byte	0
 3098 01e2 24       		.uleb128 0x24
 3099 01e3 34       		.uleb128 0x34
 3100 01e4 00       		.byte	0
 3101 01e5 03       		.uleb128 0x3
 3102 01e6 0E       		.uleb128 0xe
 3103 01e7 3A       		.uleb128 0x3a
 3104 01e8 0B       		.uleb128 0xb
 3105 01e9 3B       		.uleb128 0x3b
 3106 01ea 0B       		.uleb128 0xb
 3107 01eb 49       		.uleb128 0x49
 3108 01ec 13       		.uleb128 0x13
 3109 01ed 3F       		.uleb128 0x3f
 3110 01ee 19       		.uleb128 0x19
 3111 01ef 02       		.uleb128 0x2
 3112 01f0 18       		.uleb128 0x18
 3113 01f1 00       		.byte	0
ARM GAS  C:\Users\Ecapable\AppData\Local\Temp\ccmAuCaF.s 			page 92


 3114 01f2 00       		.byte	0
 3115 01f3 00       		.byte	0
 3116              		.section	.debug_aranges,"",%progbits
 3117 0000 5C000000 		.4byte	0x5c
 3118 0004 0200     		.2byte	0x2
 3119 0006 00000000 		.4byte	.Ldebug_info0
 3120 000a 04       		.byte	0x4
 3121 000b 00       		.byte	0
 3122 000c 0000     		.2byte	0
 3123 000e 0000     		.2byte	0
 3124 0010 00000000 		.4byte	.LFB2
 3125 0014 70000000 		.4byte	.LFE2-.LFB2
 3126 0018 00000000 		.4byte	.LFB3
 3127 001c 0E000000 		.4byte	.LFE3-.LFB3
 3128 0020 00000000 		.4byte	.LFB4
 3129 0024 18000000 		.4byte	.LFE4-.LFB4
 3130 0028 00000000 		.4byte	.LFB5
 3131 002c 0E000000 		.4byte	.LFE5-.LFB5
 3132 0030 00000000 		.4byte	.LFB6
 3133 0034 08000000 		.4byte	.LFE6-.LFB6
 3134 0038 00000000 		.4byte	.LFB7
 3135 003c 60000000 		.4byte	.LFE7-.LFB7
 3136 0040 00000000 		.4byte	.LFB8
 3137 0044 12000000 		.4byte	.LFE8-.LFB8
 3138 0048 00000000 		.4byte	.LFB9
 3139 004c 0E000000 		.4byte	.LFE9-.LFB9
 3140 0050 00000000 		.4byte	.LFB10
 3141 0054 64030000 		.4byte	.LFE10-.LFB10
 3142 0058 00000000 		.4byte	0
 3143 005c 00000000 		.4byte	0
 3144              		.section	.debug_ranges,"",%progbits
 3145              	.Ldebug_ranges0:
 3146 0000 00000000 		.4byte	.LFB2
 3147 0004 70000000 		.4byte	.LFE2
 3148 0008 00000000 		.4byte	.LFB3
 3149 000c 0E000000 		.4byte	.LFE3
 3150 0010 00000000 		.4byte	.LFB4
 3151 0014 18000000 		.4byte	.LFE4
 3152 0018 00000000 		.4byte	.LFB5
 3153 001c 0E000000 		.4byte	.LFE5
 3154 0020 00000000 		.4byte	.LFB6
 3155 0024 08000000 		.4byte	.LFE6
 3156 0028 00000000 		.4byte	.LFB7
 3157 002c 60000000 		.4byte	.LFE7
 3158 0030 00000000 		.4byte	.LFB8
 3159 0034 12000000 		.4byte	.LFE8
 3160 0038 00000000 		.4byte	.LFB9
 3161 003c 0E000000 		.4byte	.LFE9
 3162 0040 00000000 		.4byte	.LFB10
 3163 0044 64030000 		.4byte	.LFE10
 3164 0048 00000000 		.4byte	0
 3165 004c 00000000 		.4byte	0
 3166              		.section	.debug_line,"",%progbits
 3167              	.Ldebug_line0:
 3168 0000 27020000 		.section	.debug_str,"MS",%progbits,1
 3168      0200E200 
 3168      00000201 
ARM GAS  C:\Users\Ecapable\AppData\Local\Temp\ccmAuCaF.s 			page 93


 3168      FB0E0D00 
 3168      01010101 
 3169              	.LASF241:
 3170 0000 4359424C 		.ascii	"CYBLE_GATT_ERR_INVALID_CRC\000"
 3170      455F4741 
 3170      54545F45 
 3170      52525F49 
 3170      4E56414C 
 3171              	.LASF15:
 3172 001b 73697A65 		.ascii	"sizetype\000"
 3172      74797065 
 3172      00
 3173              	.LASF176:
 3174 0024 656B6579 		.ascii	"ekeySize\000"
 3174      53697A65 
 3174      00
 3175              	.LASF211:
 3176 002d 4359424C 		.ascii	"CYBLE_GATT_HANDLE_VALUE_CNF\000"
 3176      455F4741 
 3176      54545F48 
 3176      414E444C 
 3176      455F5641 
 3177              	.LASF36:
 3178 0049 4359424C 		.ascii	"CYBLE_EVT_GAP_NUMERIC_COMPARISON_REQUEST\000"
 3178      455F4556 
 3178      545F4741 
 3178      505F4E55 
 3178      4D455249 
 3179              	.LASF282:
 3180 0072 4379426C 		.ascii	"CyBle_WriteReqHandler\000"
 3180      655F5772 
 3180      69746552 
 3180      65714861 
 3180      6E646C65 
 3181              	.LASF134:
 3182 0088 72657175 		.ascii	"request\000"
 3182      65737400 
 3183              	.LASF284:
 3184 0090 6576656E 		.ascii	"eventParam\000"
 3184      74506172 
 3184      616D00
 3185              	.LASF30:
 3186 009b 4359424C 		.ascii	"CYBLE_EVT_GAP_DEVICE_CONNECTED\000"
 3186      455F4556 
 3186      545F4741 
 3186      505F4445 
 3186      56494345 
 3187              	.LASF154:
 3188 00ba 4359424C 		.ascii	"CYBLE_GAP_IOCAP_NOINPUT_NOOUTPUT\000"
 3188      455F4741 
 3188      505F494F 
 3188      4341505F 
 3188      4E4F494E 
 3189              	.LASF44:
 3190 00db 4359424C 		.ascii	"CYBLE_EVT_GATT_CONNECT_IND\000"
 3190      455F4556 
 3190      545F4741 
ARM GAS  C:\Users\Ecapable\AppData\Local\Temp\ccmAuCaF.s 			page 94


 3190      54545F43 
 3190      4F4E4E45 
 3191              	.LASF204:
 3192 00f6 4359424C 		.ascii	"CYBLE_GATT_WRITE_CMD\000"
 3192      455F4741 
 3192      54545F57 
 3192      52495445 
 3192      5F434D44 
 3193              	.LASF11:
 3194 010b 75696E74 		.ascii	"uint32\000"
 3194      333200
 3195              	.LASF128:
 3196 0112 626C6550 		.ascii	"blePwrLevelInDbm\000"
 3196      77724C65 
 3196      76656C49 
 3196      6E44626D 
 3196      00
 3197              	.LASF216:
 3198 0123 4359424C 		.ascii	"CYBLE_GATT_ERR_READ_NOT_PERMITTED\000"
 3198      455F4741 
 3198      54545F45 
 3198      52525F52 
 3198      4541445F 
 3199              	.LASF231:
 3200 0145 4359424C 		.ascii	"CYBLE_GATT_ERR_INSUFFICIENT_RESOURCE\000"
 3200      455F4741 
 3200      54545F45 
 3200      52525F49 
 3200      4E535546 
 3201              	.LASF205:
 3202 016a 4359424C 		.ascii	"CYBLE_GATT_PREPARE_WRITE_REQ\000"
 3202      455F4741 
 3202      54545F50 
 3202      52455041 
 3202      52455F57 
 3203              	.LASF230:
 3204 0187 4359424C 		.ascii	"CYBLE_GATT_ERR_UNSUPPORTED_GROUP_TYPE\000"
 3204      455F4741 
 3204      54545F45 
 3204      52525F55 
 3204      4E535550 
 3205              	.LASF98:
 3206 01ad 4359424C 		.ascii	"CYBLE_ERROR_L2CAP_CONNECTION_ENTITY_NOT_FOUND\000"
 3206      455F4552 
 3206      524F525F 
 3206      4C324341 
 3206      505F434F 
 3207              	.LASF104:
 3208 01db 4359424C 		.ascii	"CYBLE_ERROR_MIC_AUTH_FAILED\000"
 3208      455F4552 
 3208      524F525F 
 3208      4D49435F 
 3208      41555448 
 3209              	.LASF64:
 3210 01f7 4359424C 		.ascii	"CYBLE_EVT_GATTS_DATA_SIGNED_CMD_REQ\000"
 3210      455F4556 
 3210      545F4741 
ARM GAS  C:\Users\Ecapable\AppData\Local\Temp\ccmAuCaF.s 			page 95


 3210      5454535F 
 3210      44415441 
 3211              	.LASF76:
 3212 021b 4359424C 		.ascii	"CYBLE_EVT_L2CAP_CBFC_RX_CREDIT_IND\000"
 3212      455F4556 
 3212      545F4C32 
 3212      4341505F 
 3212      43424643 
 3213              	.LASF258:
 3214 023e 4359424C 		.ascii	"CYBLE_GATT_VALUE_T\000"
 3214      455F4741 
 3214      54545F56 
 3214      414C5545 
 3214      5F5400
 3215              	.LASF297:
 3216 0251 6D656D52 		.ascii	"memReq\000"
 3216      657100
 3217              	.LASF199:
 3218 0258 4359424C 		.ascii	"CYBLE_GATT_READ_MULTIPLE_RSP\000"
 3218      455F4741 
 3218      54545F52 
 3218      4541445F 
 3218      4D554C54 
 3219              	.LASF139:
 3220 0275 74797065 		.ascii	"type\000"
 3220      00
 3221              	.LASF145:
 3222 027a 4359424C 		.ascii	"CYBLE_TO_REASON_CODE_T\000"
 3222      455F544F 
 3222      5F524541 
 3222      534F4E5F 
 3222      434F4445 
 3223              	.LASF171:
 3224 0291 4359424C 		.ascii	"CYBLE_GAP_AUTH_ERROR_AUTHENTICATION_TIMEOUT\000"
 3224      455F4741 
 3224      505F4155 
 3224      54485F45 
 3224      52524F52 
 3225              	.LASF164:
 3226 02bd 4359424C 		.ascii	"CYBLE_GAP_AUTH_ERROR_UNSPECIFIED_REASON\000"
 3226      455F4741 
 3226      505F4155 
 3226      54485F45 
 3226      52524F52 
 3227              	.LASF193:
 3228 02e5 4359424C 		.ascii	"CYBLE_GATT_READ_BY_TYPE_RSP\000"
 3228      455F4741 
 3228      54545F52 
 3228      4541445F 
 3228      42595F54 
 3229              	.LASF273:
 3230 0301 4359424C 		.ascii	"CYBLE_CALLBACK_T\000"
 3230      455F4341 
 3230      4C4C4241 
 3230      434B5F54 
 3230      00
 3231              	.LASF61:
ARM GAS  C:\Users\Ecapable\AppData\Local\Temp\ccmAuCaF.s 			page 96


 3232 0312 4359424C 		.ascii	"CYBLE_EVT_GATTC_HANDLE_VALUE_NTF\000"
 3232      455F4556 
 3232      545F4741 
 3232      5454435F 
 3232      48414E44 
 3233              	.LASF24:
 3234 0333 4359424C 		.ascii	"CYBLE_EVT_GAP_AUTH_REQ\000"
 3234      455F4556 
 3234      545F4741 
 3234      505F4155 
 3234      54485F52 
 3235              	.LASF256:
 3236 034a 4359424C 		.ascii	"CYBLE_CONN_HANDLE_T\000"
 3236      455F434F 
 3236      4E4E5F48 
 3236      414E444C 
 3236      455F5400 
 3237              	.LASF93:
 3238 035e 4359424C 		.ascii	"CYBLE_ERROR_BT_ON_NOT_COMPLETED\000"
 3238      455F4552 
 3238      524F525F 
 3238      42545F4F 
 3238      4E5F4E4F 
 3239              	.LASF151:
 3240 037e 4359424C 		.ascii	"CYBLE_GAP_IOCAP_DISPLAY_ONLY\000"
 3240      455F4741 
 3240      505F494F 
 3240      4341505F 
 3240      44495350 
 3241              	.LASF117:
 3242 039b 4359424C 		.ascii	"CYBLE_LL_PWR_LVL_NEG_3_DBM\000"
 3242      455F4C4C 
 3242      5F505752 
 3242      5F4C564C 
 3242      5F4E4547 
 3243              	.LASF289:
 3244 03b6 61646472 		.ascii	"addressValid\000"
 3244      65737356 
 3244      616C6964 
 3244      00
 3245              	.LASF277:
 3246 03c3 4359424C 		.ascii	"CYBLE_STATE_ADVERTISING\000"
 3246      455F5354 
 3246      4154455F 
 3246      41445645 
 3246      52544953 
 3247              	.LASF38:
 3248 03db 4359424C 		.ascii	"CYBLE_EVT_GAP_OOB_GENERATED_NOTIFICATION\000"
 3248      455F4556 
 3248      545F4741 
 3248      505F4F4F 
 3248      425F4745 
 3249              	.LASF254:
 3250 0404 62644861 		.ascii	"bdHandle\000"
 3250      6E646C65 
 3250      00
 3251              	.LASF243:
ARM GAS  C:\Users\Ecapable\AppData\Local\Temp\ccmAuCaF.s 			page 97


 3252 040d 4359424C 		.ascii	"CYBLE_GATTS_ERR_NETWORK_NOT_AVAILABLE\000"
 3252      455F4741 
 3252      5454535F 
 3252      4552525F 
 3252      4E455457 
 3253              	.LASF157:
 3254 0433 4359424C 		.ascii	"CYBLE_GAP_AUTH_ERROR_PASSKEY_ENTRY_FAILED\000"
 3254      455F4741 
 3254      505F4155 
 3254      54485F45 
 3254      52524F52 
 3255              	.LASF246:
 3256 045d 4359424C 		.ascii	"CYBLE_GATT_ERR_ANCS_INVALID_COMMAND\000"
 3256      455F4741 
 3256      54545F45 
 3256      52525F41 
 3256      4E43535F 
 3257              	.LASF311:
 3258 0481 2E5C4765 		.ascii	".\\Generated_Source\\PSoC4\\BLE_1_eventHandler.c\000"
 3258      6E657261 
 3258      7465645F 
 3258      536F7572 
 3258      63655C50 
 3259              	.LASF187:
 3260 04af 4359424C 		.ascii	"CYBLE_GATT_XCHNG_MTU_RSP\000"
 3260      455F4741 
 3260      54545F58 
 3260      43484E47 
 3260      5F4D5455 
 3261              	.LASF57:
 3262 04c8 4359424C 		.ascii	"CYBLE_EVT_GATTS_WRITE_CMD_REQ\000"
 3262      455F4556 
 3262      545F4741 
 3262      5454535F 
 3262      57524954 
 3263              	.LASF4:
 3264 04e6 6C6F6E67 		.ascii	"long int\000"
 3264      20696E74 
 3264      00
 3265              	.LASF146:
 3266 04ef 4359424C 		.ascii	"CYBLE_GAP_SEC_LEVEL_1\000"
 3266      455F4741 
 3266      505F5345 
 3266      435F4C45 
 3266      56454C5F 
 3267              	.LASF147:
 3268 0505 4359424C 		.ascii	"CYBLE_GAP_SEC_LEVEL_2\000"
 3268      455F4741 
 3268      505F5345 
 3268      435F4C45 
 3268      56454C5F 
 3269              	.LASF148:
 3270 051b 4359424C 		.ascii	"CYBLE_GAP_SEC_LEVEL_3\000"
 3270      455F4741 
 3270      505F5345 
 3270      435F4C45 
 3270      56454C5F 
ARM GAS  C:\Users\Ecapable\AppData\Local\Temp\ccmAuCaF.s 			page 98


 3271              	.LASF149:
 3272 0531 4359424C 		.ascii	"CYBLE_GAP_SEC_LEVEL_4\000"
 3272      455F4741 
 3272      505F5345 
 3272      435F4C45 
 3272      56454C5F 
 3273              	.LASF191:
 3274 0547 4359424C 		.ascii	"CYBLE_GATT_FIND_BY_TYPE_VALUE_RSP\000"
 3274      455F4741 
 3274      54545F46 
 3274      494E445F 
 3274      42595F54 
 3275              	.LASF17:
 3276 0569 4359424C 		.ascii	"CYBLE_EVT_STACK_ON\000"
 3276      455F4556 
 3276      545F5354 
 3276      41434B5F 
 3276      4F4E00
 3277              	.LASF100:
 3278 057c 4359424C 		.ascii	"CYBLE_ERROR_L2CAP_PSM_NOT_IN_RANGE\000"
 3278      455F4552 
 3278      524F525F 
 3278      4C324341 
 3278      505F5053 
 3279              	.LASF303:
 3280 059f 6379426C 		.ascii	"cyBle_deviceAddress\000"
 3280      655F6465 
 3280      76696365 
 3280      41646472 
 3280      65737300 
 3281              	.LASF242:
 3282 05b3 4359424C 		.ascii	"CYBLE_GATTS_ERR_HPS_INVALID_REQUEST\000"
 3282      455F4741 
 3282      5454535F 
 3282      4552525F 
 3282      4850535F 
 3283              	.LASF218:
 3284 05d7 4359424C 		.ascii	"CYBLE_GATT_ERR_INVALID_PDU\000"
 3284      455F4741 
 3284      54545F45 
 3284      52525F49 
 3284      4E56414C 
 3285              	.LASF160:
 3286 05f2 4359424C 		.ascii	"CYBLE_GAP_AUTH_ERROR_CONFIRM_VALUE_NOT_MATCH\000"
 3286      455F4741 
 3286      505F4155 
 3286      54485F45 
 3286      52524F52 
 3287              	.LASF112:
 3288 061f 4359424C 		.ascii	"CYBLE_ERROR_CHAR_IS_NOT_DISCOVERED\000"
 3288      455F4552 
 3288      524F525F 
 3288      43484152 
 3288      5F49535F 
 3289              	.LASF261:
 3290 0642 4359424C 		.ascii	"CYBLE_GATT_HANDLE_VALUE_PAIR_T\000"
 3290      455F4741 
ARM GAS  C:\Users\Ecapable\AppData\Local\Temp\ccmAuCaF.s 			page 99


 3290      54545F48 
 3290      414E444C 
 3290      455F5641 
 3291              	.LASF129:
 3292 0661 626C6553 		.ascii	"bleSsChId\000"
 3292      73436849 
 3292      6400
 3293              	.LASF70:
 3294 066b 4359424C 		.ascii	"CYBLE_EVT_L2CAP_COMMAND_REJ\000"
 3294      455F4556 
 3294      545F4C32 
 3294      4341505F 
 3294      434F4D4D 
 3295              	.LASF197:
 3296 0687 4359424C 		.ascii	"CYBLE_GATT_READ_BLOB_RSP\000"
 3296      455F4741 
 3296      54545F52 
 3296      4541445F 
 3296      424C4F42 
 3297              	.LASF227:
 3298 06a0 4359424C 		.ascii	"CYBLE_GATT_ERR_INVALID_ATTRIBUTE_LEN\000"
 3298      455F4741 
 3298      54545F45 
 3298      52525F49 
 3298      4E56414C 
 3299              	.LASF101:
 3300 06c5 4359424C 		.ascii	"CYBLE_ERROR_GATT_DB_INVALID_ATTR_HANDLE\000"
 3300      455F4552 
 3300      524F525F 
 3300      47415454 
 3300      5F44425F 
 3301              	.LASF0:
 3302 06ed 7369676E 		.ascii	"signed char\000"
 3302      65642063 
 3302      68617200 
 3303              	.LASF114:
 3304 06f9 4359424C 		.ascii	"CYBLE_LL_PWR_LVL_NEG_18_DBM\000"
 3304      455F4C4C 
 3304      5F505752 
 3304      5F4C564C 
 3304      5F4E4547 
 3305              	.LASF188:
 3306 0715 4359424C 		.ascii	"CYBLE_GATT_FIND_INFO_REQ\000"
 3306      455F4741 
 3306      54545F46 
 3306      494E445F 
 3306      494E464F 
 3307              	.LASF19:
 3308 072e 4359424C 		.ascii	"CYBLE_EVT_HARDWARE_ERROR\000"
 3308      455F4556 
 3308      545F4841 
 3308      52445741 
 3308      52455F45 
 3309              	.LASF314:
 3310 0747 4379426C 		.ascii	"CyBle_EventHandler\000"
 3310      655F4576 
 3310      656E7448 
ARM GAS  C:\Users\Ecapable\AppData\Local\Temp\ccmAuCaF.s 			page 100


 3310      616E646C 
 3310      657200
 3311              	.LASF82:
 3312 075a 4359424C 		.ascii	"CYBLE_ERROR_OK\000"
 3312      455F4552 
 3312      524F525F 
 3312      4F4B00
 3313              	.LASF127:
 3314 0769 4359424C 		.ascii	"CYBLE_BLESS_PHY_CH_GRP_ID_T\000"
 3314      455F424C 
 3314      4553535F 
 3314      5048595F 
 3314      43485F47 
 3315              	.LASF249:
 3316 0785 4359424C 		.ascii	"CYBLE_GATT_ERR_CCCD_IMPROPERLY_CONFIGURED\000"
 3316      455F4741 
 3316      54545F45 
 3316      52525F43 
 3316      4343445F 
 3317              	.LASF48:
 3318 07af 4359424C 		.ascii	"CYBLE_EVT_GATTC_READ_BY_GROUP_TYPE_RSP\000"
 3318      455F4556 
 3318      545F4741 
 3318      5454435F 
 3318      52454144 
 3319              	.LASF170:
 3320 07d6 4359424C 		.ascii	"CYBLE_GAP_AUTH_ERROR_CROSS_TRANSPORT_KEY_GEN_DER_NO"
 3320      455F4741 
 3320      505F4155 
 3320      54485F45 
 3320      52524F52 
 3321 0809 545F414C 		.ascii	"T_ALLOWED\000"
 3321      4C4F5745 
 3321      4400
 3322              	.LASF312:
 3323 0813 433A5C55 		.ascii	"C:\\Users\\Ecapable\\Desktop\\BLE Lab 4\\BLE Lab 4."
 3323      73657273 
 3323      5C456361 
 3323      7061626C 
 3323      655C4465 
 3324 0841 63796473 		.ascii	"cydsn\000"
 3324      6E00
 3325              	.LASF270:
 3326 0847 4359424C 		.ascii	"CYBLE_GATTS_ERR_PARAM_T\000"
 3326      455F4741 
 3326      5454535F 
 3326      4552525F 
 3326      50415241 
 3327              	.LASF1:
 3328 085f 756E7369 		.ascii	"unsigned char\000"
 3328      676E6564 
 3328      20636861 
 3328      7200
 3329              	.LASF47:
 3330 086d 4359424C 		.ascii	"CYBLE_EVT_GATTC_XCHNG_MTU_RSP\000"
 3330      455F4556 
 3330      545F4741 
ARM GAS  C:\Users\Ecapable\AppData\Local\Temp\ccmAuCaF.s 			page 101


 3330      5454435F 
 3330      5843484E 
 3331              	.LASF210:
 3332 088b 4359424C 		.ascii	"CYBLE_GATT_HANDLE_VALUE_IND\000"
 3332      455F4741 
 3332      54545F48 
 3332      414E444C 
 3332      455F5641 
 3333              	.LASF42:
 3334 08a7 4359424C 		.ascii	"CYBLE_EVT_GAP_SMP_NEGOTIATED_AUTH_INFO\000"
 3334      455F4556 
 3334      545F4741 
 3334      505F534D 
 3334      505F4E45 
 3335              	.LASF77:
 3336 08ce 4359424C 		.ascii	"CYBLE_EVT_L2CAP_CBFC_TX_CREDIT_IND\000"
 3336      455F4556 
 3336      545F4C32 
 3336      4341505F 
 3336      43424643 
 3337              	.LASF269:
 3338 08f1 6572726F 		.ascii	"errorCode\000"
 3338      72436F64 
 3338      6500
 3339              	.LASF166:
 3340 08fb 4359424C 		.ascii	"CYBLE_GAP_AUTH_ERROR_INVALID_PARAMETERS\000"
 3340      455F4741 
 3340      505F4155 
 3340      54485F45 
 3340      52524F52 
 3341              	.LASF136:
 3342 0923 636F6E66 		.ascii	"configMemory\000"
 3342      69674D65 
 3342      6D6F7279 
 3342      00
 3343              	.LASF74:
 3344 0930 4359424C 		.ascii	"CYBLE_EVT_L2CAP_CBFC_DISCONN_CNF\000"
 3344      455F4556 
 3344      545F4C32 
 3344      4341505F 
 3344      43424643 
 3345              	.LASF51:
 3346 0951 4359424C 		.ascii	"CYBLE_EVT_GATTC_FIND_BY_TYPE_VALUE_RSP\000"
 3346      455F4556 
 3346      545F4741 
 3346      5454435F 
 3346      46494E44 
 3347              	.LASF39:
 3348 0978 4359424C 		.ascii	"CYBLE_EVT_GAP_DATA_LENGTH_CHANGE\000"
 3348      455F4556 
 3348      545F4741 
 3348      505F4441 
 3348      54415F4C 
 3349              	.LASF14:
 3350 0999 63686172 		.ascii	"char\000"
 3350      00
 3351              	.LASF118:
ARM GAS  C:\Users\Ecapable\AppData\Local\Temp\ccmAuCaF.s 			page 102


 3352 099e 4359424C 		.ascii	"CYBLE_LL_PWR_LVL_NEG_2_DBM\000"
 3352      455F4C4C 
 3352      5F505752 
 3352      5F4C564C 
 3352      5F4E4547 
 3353              	.LASF203:
 3354 09b9 4359424C 		.ascii	"CYBLE_GATT_WRITE_RSP\000"
 3354      455F4741 
 3354      54545F57 
 3354      52495445 
 3354      5F525350 
 3355              	.LASF54:
 3356 09ce 4359424C 		.ascii	"CYBLE_EVT_GATTC_READ_MULTI_RSP\000"
 3356      455F4556 
 3356      545F4741 
 3356      5454435F 
 3356      52454144 
 3357              	.LASF179:
 3358 09ed 4359424C 		.ascii	"CYBLE_GAP_AUTH_INFO_T\000"
 3358      455F4741 
 3358      505F4155 
 3358      54485F49 
 3358      4E464F5F 
 3359              	.LASF153:
 3360 0a03 4359424C 		.ascii	"CYBLE_GAP_IOCAP_KEYBOARD_ONLY\000"
 3360      455F4741 
 3360      505F494F 
 3360      4341505F 
 3360      4B455942 
 3361              	.LASF16:
 3362 0a21 4359424C 		.ascii	"CYBLE_EVT_HOST_INVALID\000"
 3362      455F4556 
 3362      545F484F 
 3362      53545F49 
 3362      4E56414C 
 3363              	.LASF238:
 3364 0a38 4359424C 		.ascii	"CYBLE_GATT_ERR_MISSING_CRC\000"
 3364      455F4741 
 3364      54545F45 
 3364      52525F4D 
 3364      49535349 
 3365              	.LASF228:
 3366 0a53 4359424C 		.ascii	"CYBLE_GATT_ERR_UNLIKELY_ERROR\000"
 3366      455F4741 
 3366      54545F45 
 3366      52525F55 
 3366      4E4C494B 
 3367              	.LASF41:
 3368 0a71 4359424C 		.ascii	"CYBLE_EVT_GAPC_DIRECT_ADV_REPORT\000"
 3368      455F4556 
 3368      545F4741 
 3368      50435F44 
 3368      49524543 
 3369              	.LASF186:
 3370 0a92 4359424C 		.ascii	"CYBLE_GATT_XCNHG_MTU_REQ\000"
 3370      455F4741 
 3370      54545F58 
ARM GAS  C:\Users\Ecapable\AppData\Local\Temp\ccmAuCaF.s 			page 103


 3370      434E4847 
 3370      5F4D5455 
 3371              	.LASF89:
 3372 0aab 4359424C 		.ascii	"CYBLE_ERROR_NO_DEVICE_ENTITY\000"
 3372      455F4552 
 3372      524F525F 
 3372      4E4F5F44 
 3372      45564943 
 3373              	.LASF53:
 3374 0ac8 4359424C 		.ascii	"CYBLE_EVT_GATTC_READ_BLOB_RSP\000"
 3374      455F4556 
 3374      545F4741 
 3374      5454435F 
 3374      52454144 
 3375              	.LASF288:
 3376 0ae6 64657669 		.ascii	"deviceAddress\000"
 3376      63654164 
 3376      64726573 
 3376      7300
 3377              	.LASF302:
 3378 0af4 6379426C 		.ascii	"cyBle_eventHandlerFlag\000"
 3378      655F6576 
 3378      656E7448 
 3378      616E646C 
 3378      6572466C 
 3379              	.LASF60:
 3380 0b0b 4359424C 		.ascii	"CYBLE_EVT_GATTC_EXEC_WRITE_RSP\000"
 3380      455F4556 
 3380      545F4741 
 3380      5454435F 
 3380      45584543 
 3381              	.LASF232:
 3382 0b2a 4359424C 		.ascii	"CYBLE_GATT_ERR_HEART_RATE_CONTROL_POINT_NOT_SUPPORT"
 3382      455F4741 
 3382      54545F45 
 3382      52525F48 
 3382      45415254 
 3383 0b5d 454400   		.ascii	"ED\000"
 3384              	.LASF225:
 3385 0b60 4359424C 		.ascii	"CYBLE_GATT_ERR_ATTRIBUTE_NOT_LONG\000"
 3385      455F4741 
 3385      54545F45 
 3385      52525F41 
 3385      54545249 
 3386              	.LASF150:
 3387 0b82 4359424C 		.ascii	"CYBLE_GAP_SEC_LEVEL_MASK\000"
 3387      455F4741 
 3387      505F5345 
 3387      435F4C45 
 3387      56454C5F 
 3388              	.LASF65:
 3389 0b9b 4359424C 		.ascii	"CYBLE_EVT_GATTC_STOP_CMD_COMPLETE\000"
 3389      455F4556 
 3389      545F4741 
 3389      5454435F 
 3389      53544F50 
 3390              	.LASF248:
ARM GAS  C:\Users\Ecapable\AppData\Local\Temp\ccmAuCaF.s 			page 104


 3391 0bbd 4359424C 		.ascii	"CYBLE_GATT_ERR_ANCS_ACTION_FAILED\000"
 3391      455F4741 
 3391      54545F45 
 3391      52525F41 
 3391      4E43535F 
 3392              	.LASF307:
 3393 0bdf 6379426C 		.ascii	"cyBle_connHandle\000"
 3393      655F636F 
 3393      6E6E4861 
 3393      6E646C65 
 3393      00
 3394              	.LASF185:
 3395 0bf0 4359424C 		.ascii	"CYBLE_GATT_ERROR_RSP\000"
 3395      455F4741 
 3395      54545F45 
 3395      52524F52 
 3395      5F525350 
 3396              	.LASF108:
 3397 0c05 4359424C 		.ascii	"CYBLE_ERROR_CONTROLLER_BUSY\000"
 3397      455F4552 
 3397      524F525F 
 3397      434F4E54 
 3397      524F4C4C 
 3398              	.LASF83:
 3399 0c21 4359424C 		.ascii	"CYBLE_ERROR_INVALID_PARAMETER\000"
 3399      455F4552 
 3399      524F525F 
 3399      494E5641 
 3399      4C49445F 
 3400              	.LASF292:
 3401 0c3f 4379426C 		.ascii	"CyBle_GapConnUpdateCompleteEventHandler\000"
 3401      655F4761 
 3401      70436F6E 
 3401      6E557064 
 3401      61746543 
 3402              	.LASF169:
 3403 0c67 4359424C 		.ascii	"CYBLE_GAP_AUTH_ERROR_BR_EDR_PAIRING_IN_PROGRESS\000"
 3403      455F4741 
 3403      505F4155 
 3403      54485F45 
 3403      52524F52 
 3404              	.LASF85:
 3405 0c97 4359424C 		.ascii	"CYBLE_ERROR_MEMORY_ALLOCATION_FAILED\000"
 3405      455F4552 
 3405      524F525F 
 3405      4D454D4F 
 3405      52595F41 
 3406              	.LASF266:
 3407 0cbc 70726570 		.ascii	"prepareWriteQueueSize\000"
 3407      61726557 
 3407      72697465 
 3407      51756575 
 3407      6553697A 
 3408              	.LASF304:
 3409 0cd2 6379426C 		.ascii	"cyBle_sflashDeviceAddress\000"
 3409      655F7366 
 3409      6C617368 
ARM GAS  C:\Users\Ecapable\AppData\Local\Temp\ccmAuCaF.s 			page 105


 3409      44657669 
 3409      63654164 
 3410              	.LASF212:
 3411 0cec 4359424C 		.ascii	"CYBLE_GATT_SIGNED_WRITE_CMD\000"
 3411      455F4741 
 3411      54545F53 
 3411      49474E45 
 3411      445F5752 
 3412              	.LASF239:
 3413 0d08 4359424C 		.ascii	"CYBLE_GATTS_ERR_CCCD_IMPROPERLY_CONFIGURED\000"
 3413      455F4741 
 3413      5454535F 
 3413      4552525F 
 3413      43434344 
 3414              	.LASF208:
 3415 0d33 4359424C 		.ascii	"CYBLE_GATT_EXECUTE_WRITE_RSP\000"
 3415      455F4741 
 3415      54545F45 
 3415      58454355 
 3415      54455F57 
 3416              	.LASF109:
 3417 0d50 4359424C 		.ascii	"CYBLE_ERROR_MAX\000"
 3417      455F4552 
 3417      524F525F 
 3417      4D415800 
 3418              	.LASF69:
 3419 0d60 4359424C 		.ascii	"CYBLE_EVT_L2CAP_CONN_PARAM_UPDATE_RSP\000"
 3419      455F4556 
 3419      545F4C32 
 3419      4341505F 
 3419      434F4E4E 
 3420              	.LASF172:
 3421 0d86 4359424C 		.ascii	"CYBLE_GAP_AUTH_ERROR_LINK_DISCONNECTED\000"
 3421      455F4741 
 3421      505F4155 
 3421      54485F45 
 3421      52524F52 
 3422              	.LASF233:
 3423 0dad 4359424C 		.ascii	"CYBLE_GATT_ERR_USER_DATA_ACCESS_NOT_PERMITTED\000"
 3423      455F4741 
 3423      54545F45 
 3423      52525F55 
 3423      5345525F 
 3424              	.LASF27:
 3425 0ddb 4359424C 		.ascii	"CYBLE_EVT_GAP_AUTH_COMPLETE\000"
 3425      455F4556 
 3425      545F4741 
 3425      505F4155 
 3425      54485F43 
 3426              	.LASF28:
 3427 0df7 4359424C 		.ascii	"CYBLE_EVT_GAP_AUTH_FAILED\000"
 3427      455F4556 
 3427      545F4741 
 3427      505F4155 
 3427      54485F46 
 3428              	.LASF135:
 3429 0e11 616C6C6F 		.ascii	"allocFree\000"
ARM GAS  C:\Users\Ecapable\AppData\Local\Temp\ccmAuCaF.s 			page 106


 3429      63467265 
 3429      6500
 3430              	.LASF201:
 3431 0e1b 4359424C 		.ascii	"CYBLE_GATT_READ_BY_GROUP_RSP\000"
 3431      455F4741 
 3431      54545F52 
 3431      4541445F 
 3431      42595F47 
 3432              	.LASF86:
 3433 0e38 4359424C 		.ascii	"CYBLE_ERROR_INSUFFICIENT_RESOURCES\000"
 3433      455F4552 
 3433      524F525F 
 3433      494E5355 
 3433      46464943 
 3434              	.LASF237:
 3435 0e5b 4359424C 		.ascii	"CYBLE_GATT_ERR_OP_CODE_NOT_SUPPORTED\000"
 3435      455F4741 
 3435      54545F45 
 3435      52525F4F 
 3435      505F434F 
 3436              	.LASF121:
 3437 0e80 4359424C 		.ascii	"CYBLE_LL_PWR_LVL_3_DBM\000"
 3437      455F4C4C 
 3437      5F505752 
 3437      5F4C564C 
 3437      5F335F44 
 3438              	.LASF5:
 3439 0e97 6C6F6E67 		.ascii	"long unsigned int\000"
 3439      20756E73 
 3439      69676E65 
 3439      6420696E 
 3439      7400
 3440              	.LASF194:
 3441 0ea9 4359424C 		.ascii	"CYBLE_GATT_READ_REQ\000"
 3441      455F4741 
 3441      54545F52 
 3441      4541445F 
 3441      52455100 
 3442              	.LASF180:
 3443 0ebd 73746174 		.ascii	"status\000"
 3443      757300
 3444              	.LASF119:
 3445 0ec4 4359424C 		.ascii	"CYBLE_LL_PWR_LVL_NEG_1_DBM\000"
 3445      455F4C4C 
 3445      5F505752 
 3445      5F4C564C 
 3445      5F4E4547 
 3446              	.LASF106:
 3447 0edf 4359424C 		.ascii	"CYBLE_ERROR_UNSUPPORTED_FEATURE_OR_PARAMETER_VALUE\000"
 3447      455F4552 
 3447      524F525F 
 3447      554E5355 
 3447      50504F52 
 3448              	.LASF132:
 3449 0f12 4359424C 		.ascii	"CYBLE_INVALID_REQUEST\000"
 3449      455F494E 
 3449      56414C49 
ARM GAS  C:\Users\Ecapable\AppData\Local\Temp\ccmAuCaF.s 			page 107


 3449      445F5245 
 3449      51554553 
 3450              	.LASF163:
 3451 0f28 4359424C 		.ascii	"CYBLE_GAP_AUTH_ERROR_COMMAND_NOT_SUPPORTED\000"
 3451      455F4741 
 3451      505F4155 
 3451      54485F45 
 3451      52524F52 
 3452              	.LASF159:
 3453 0f53 4359424C 		.ascii	"CYBLE_GAP_AUTH_ERROR_AUTHENTICATION_REQ_NOT_MET\000"
 3453      455F4741 
 3453      505F4155 
 3453      54485F45 
 3453      52524F52 
 3454              	.LASF209:
 3455 0f83 4359424C 		.ascii	"CYBLE_GATT_HANDLE_VALUE_NTF\000"
 3455      455F4741 
 3455      54545F48 
 3455      414E444C 
 3455      455F5641 
 3456              	.LASF96:
 3457 0f9f 4359424C 		.ascii	"CYBLE_ERROR_L2CAP_PSM_ALREADY_REGISTERED\000"
 3457      455F4552 
 3457      524F525F 
 3457      4C324341 
 3457      505F5053 
 3458              	.LASF245:
 3459 0fc8 4359424C 		.ascii	"CYBLE_GATT_ERR_ANCS_UNKNOWN_COMMAND\000"
 3459      455F4741 
 3459      54545F45 
 3459      52525F41 
 3459      4E43535F 
 3460              	.LASF267:
 3461 0fec 4359424C 		.ascii	"CYBLE_PREPARE_WRITE_REQUEST_MEMORY_T\000"
 3461      455F5052 
 3461      45504152 
 3461      455F5752 
 3461      4954455F 
 3462              	.LASF33:
 3463 1011 4359424C 		.ascii	"CYBLE_EVT_GAP_CONNECTION_UPDATE_COMPLETE\000"
 3463      455F4556 
 3463      545F4741 
 3463      505F434F 
 3463      4E4E4543 
 3464              	.LASF308:
 3465 103a 6379426C 		.ascii	"cyBle_busyStatus\000"
 3465      655F6275 
 3465      73795374 
 3465      61747573 
 3465      00
 3466              	.LASF275:
 3467 104b 4359424C 		.ascii	"CYBLE_STATE_INITIALIZING\000"
 3467      455F5354 
 3467      4154455F 
 3467      494E4954 
 3467      49414C49 
 3468              	.LASF299:
ARM GAS  C:\Users\Ecapable\AppData\Local\Temp\ccmAuCaF.s 			page 108


 3469 1064 6379426C 		.ascii	"cyBle_mtuSize\000"
 3469      655F6D74 
 3469      7553697A 
 3469      6500
 3470              	.LASF165:
 3471 1072 4359424C 		.ascii	"CYBLE_GAP_AUTH_ERROR_REPEATED_ATTEMPTS\000"
 3471      455F4741 
 3471      505F4155 
 3471      54485F45 
 3471      52524F52 
 3472              	.LASF73:
 3473 1099 4359424C 		.ascii	"CYBLE_EVT_L2CAP_CBFC_DISCONN_IND\000"
 3473      455F4556 
 3473      545F4C32 
 3473      4341505F 
 3473      43424643 
 3474              	.LASF25:
 3475 10ba 4359424C 		.ascii	"CYBLE_EVT_GAP_PASSKEY_ENTRY_REQUEST\000"
 3475      455F4556 
 3475      545F4741 
 3475      505F5041 
 3475      53534B45 
 3476              	.LASF167:
 3477 10de 4359424C 		.ascii	"CYBLE_GAP_AUTH_ERROR_DHKEY_CHECK_FAILED\000"
 3477      455F4741 
 3477      505F4155 
 3477      54485F45 
 3477      52524F52 
 3478              	.LASF123:
 3479 1106 4359424C 		.ascii	"CYBLE_BLESS_PWR_LVL_T\000"
 3479      455F424C 
 3479      4553535F 
 3479      5057525F 
 3479      4C564C5F 
 3480              	.LASF287:
 3481 111c 4379426C 		.ascii	"CyBle_GattConnectReqHandler\000"
 3481      655F4761 
 3481      7474436F 
 3481      6E6E6563 
 3481      74526571 
 3482              	.LASF162:
 3483 1138 4359424C 		.ascii	"CYBLE_GAP_AUTH_ERROR_INSUFFICIENT_ENCRYPTION_KEY_SI"
 3483      455F4741 
 3483      505F4155 
 3483      54485F45 
 3483      52524F52 
 3484 116b 5A4500   		.ascii	"ZE\000"
 3485              	.LASF6:
 3486 116e 6C6F6E67 		.ascii	"long long int\000"
 3486      206C6F6E 
 3486      6720696E 
 3486      7400
 3487              	.LASF286:
 3488 117c 4379426C 		.ascii	"CyBle_GattDisconnectEventHandler\000"
 3488      655F4761 
 3488      74744469 
 3488      73636F6E 
ARM GAS  C:\Users\Ecapable\AppData\Local\Temp\ccmAuCaF.s 			page 109


 3488      6E656374 
 3489              	.LASF137:
 3490 119d 4359424C 		.ascii	"CYBLE_MEMORY_REQUEST_T\000"
 3490      455F4D45 
 3490      4D4F5259 
 3490      5F524551 
 3490      55455354 
 3491              	.LASF174:
 3492 11b4 73656375 		.ascii	"security\000"
 3492      72697479 
 3492      00
 3493              	.LASF223:
 3494 11bd 4359424C 		.ascii	"CYBLE_GATT_ERR_PREPARE_WRITE_QUEUE_FULL\000"
 3494      455F4741 
 3494      54545F45 
 3494      52525F50 
 3494      52455041 
 3495              	.LASF97:
 3496 11e5 4359424C 		.ascii	"CYBLE_ERROR_L2CAP_PSM_NOT_REGISTERED\000"
 3496      455F4552 
 3496      524F525F 
 3496      4C324341 
 3496      505F5053 
 3497              	.LASF87:
 3498 120a 4359424C 		.ascii	"CYBLE_ERROR_OOB_NOT_AVAILABLE\000"
 3498      455F4552 
 3498      524F525F 
 3498      4F4F425F 
 3498      4E4F545F 
 3499              	.LASF13:
 3500 1228 646F7562 		.ascii	"double\000"
 3500      6C6500
 3501              	.LASF102:
 3502 122f 4359424C 		.ascii	"CYBLE_ERROR_DEVICE_ALREADY_EXISTS\000"
 3502      455F4552 
 3502      524F525F 
 3502      44455649 
 3502      43455F41 
 3503              	.LASF79:
 3504 1251 4359424C 		.ascii	"CYBLE_EVT_PENDING_FLASH_WRITE\000"
 3504      455F4556 
 3504      545F5045 
 3504      4E44494E 
 3504      475F464C 
 3505              	.LASF226:
 3506 126f 4359424C 		.ascii	"CYBLE_GATT_ERR_INSUFFICIENT_ENC_KEY_SIZE\000"
 3506      455F4741 
 3506      54545F45 
 3506      52525F49 
 3506      4E535546 
 3507              	.LASF122:
 3508 1298 4359424C 		.ascii	"CYBLE_LL_PWR_LVL_MAX\000"
 3508      455F4C4C 
 3508      5F505752 
 3508      5F4C564C 
 3508      5F4D4158 
 3509              	.LASF250:
ARM GAS  C:\Users\Ecapable\AppData\Local\Temp\ccmAuCaF.s 			page 110


 3510 12ad 4359424C 		.ascii	"CYBLE_GATT_ERR_PROCEDURE_ALREADY_IN_PROGRESS\000"
 3510      455F4741 
 3510      54545F45 
 3510      52525F50 
 3510      524F4345 
 3511              	.LASF40:
 3512 12da 4359424C 		.ascii	"CYBLE_EVT_GAP_ENHANCE_CONN_COMPLETE\000"
 3512      455F4556 
 3512      545F4741 
 3512      505F454E 
 3512      48414E43 
 3513              	.LASF99:
 3514 12fe 4359424C 		.ascii	"CYBLE_ERROR_L2CAP_CHANNEL_NOT_FOUND\000"
 3514      455F4552 
 3514      524F525F 
 3514      4C324341 
 3514      505F4348 
 3515              	.LASF90:
 3516 1322 4359424C 		.ascii	"CYBLE_ERROR_REPEATED_ATTEMPTS\000"
 3516      455F4552 
 3516      524F525F 
 3516      52455045 
 3516      41544544 
 3517              	.LASF283:
 3518 1340 4379426C 		.ascii	"CyBle_ValueConfirmation\000"
 3518      655F5661 
 3518      6C756543 
 3518      6F6E6669 
 3518      726D6174 
 3519              	.LASF12:
 3520 1358 666C6F61 		.ascii	"float\000"
 3520      7400
 3521              	.LASF103:
 3522 135e 4359424C 		.ascii	"CYBLE_ERROR_FLASH_WRITE_NOT_PERMITED\000"
 3522      455F4552 
 3522      524F525F 
 3522      464C4153 
 3522      485F5752 
 3523              	.LASF66:
 3524 1383 4359424C 		.ascii	"CYBLE_EVT_GATTS_READ_CHAR_VAL_ACCESS_REQ\000"
 3524      455F4556 
 3524      545F4741 
 3524      5454535F 
 3524      52454144 
 3525              	.LASF268:
 3526 13ac 6F70636F 		.ascii	"opcode\000"
 3526      646500
 3527              	.LASF222:
 3528 13b3 4359424C 		.ascii	"CYBLE_GATT_ERR_INSUFFICIENT_AUTHORIZATION\000"
 3528      455F4741 
 3528      54545F45 
 3528      52525F49 
 3528      4E535546 
 3529              	.LASF260:
 3530 13dd 61747472 		.ascii	"attrHandle\000"
 3530      48616E64 
 3530      6C6500
ARM GAS  C:\Users\Ecapable\AppData\Local\Temp\ccmAuCaF.s 			page 111


 3531              	.LASF175:
 3532 13e8 626F6E64 		.ascii	"bonding\000"
 3532      696E6700 
 3533              	.LASF272:
 3534 13f0 4359424C 		.ascii	"CYBLE_GATTS_WRITE_REQ_PARAM_T\000"
 3534      455F4741 
 3534      5454535F 
 3534      57524954 
 3534      455F5245 
 3535              	.LASF8:
 3536 140e 756E7369 		.ascii	"unsigned int\000"
 3536      676E6564 
 3536      20696E74 
 3536      00
 3537              	.LASF58:
 3538 141b 4359424C 		.ascii	"CYBLE_EVT_GATTS_PREP_WRITE_REQ\000"
 3538      455F4556 
 3538      545F4741 
 3538      5454535F 
 3538      50524550 
 3539              	.LASF219:
 3540 143a 4359424C 		.ascii	"CYBLE_GATT_ERR_INSUFFICIENT_AUTHENTICATION\000"
 3540      455F4741 
 3540      54545F45 
 3540      52525F49 
 3540      4E535546 
 3541              	.LASF263:
 3542 1465 4359424C 		.ascii	"CYBLE_GATT_XCHG_MTU_PARAM_T\000"
 3542      455F4741 
 3542      54545F58 
 3542      4348475F 
 3542      4D54555F 
 3543              	.LASF125:
 3544 1481 4359424C 		.ascii	"CYBLE_LL_CONN_CH_TYPE\000"
 3544      455F4C4C 
 3544      5F434F4E 
 3544      4E5F4348 
 3544      5F545950 
 3545              	.LASF236:
 3546 1497 4359424C 		.ascii	"CYBLE_GATTS_ERR_PROCEDURE_ALREADY_IN_PROGRESS\000"
 3546      455F4741 
 3546      5454535F 
 3546      4552525F 
 3546      50524F43 
 3547              	.LASF141:
 3548 14c5 4359424C 		.ascii	"CYBLE_GAP_ADV_MODE_TO\000"
 3548      455F4741 
 3548      505F4144 
 3548      565F4D4F 
 3548      44455F54 
 3549              	.LASF281:
 3550 14db 6572725F 		.ascii	"err_param\000"
 3550      70617261 
 3550      6D00
 3551              	.LASF95:
 3552 14e5 4359424C 		.ascii	"CYBLE_ERROR_L2CAP_PSM_WRONG_ENCODING\000"
 3552      455F4552 
ARM GAS  C:\Users\Ecapable\AppData\Local\Temp\ccmAuCaF.s 			page 112


 3552      524F525F 
 3552      4C324341 
 3552      505F5053 
 3553              	.LASF206:
 3554 150a 4359424C 		.ascii	"CYBLE_GATT_PREPARE_WRITE_RSP\000"
 3554      455F4741 
 3554      54545F50 
 3554      52455041 
 3554      52455F57 
 3555              	.LASF298:
 3556 1527 67507265 		.ascii	"gPrepWriteReqMem\000"
 3556      70577269 
 3556      74655265 
 3556      714D656D 
 3556      00
 3557              	.LASF224:
 3558 1538 4359424C 		.ascii	"CYBLE_GATT_ERR_ATTRIBUTE_NOT_FOUND\000"
 3558      455F4741 
 3558      54545F45 
 3558      52525F41 
 3558      54545249 
 3559              	.LASF81:
 3560 155b 4359424C 		.ascii	"CYBLE_EVT_MAX\000"
 3560      455F4556 
 3560      545F4D41 
 3560      5800
 3561              	.LASF34:
 3562 1569 4359424C 		.ascii	"CYBLE_EVT_GAPC_SCAN_START_STOP\000"
 3562      455F4556 
 3562      545F4741 
 3562      50435F53 
 3562      43414E5F 
 3563              	.LASF313:
 3564 1588 4379426C 		.ascii	"CyBle_IsDeviceAddressValid\000"
 3564      655F4973 
 3564      44657669 
 3564      63654164 
 3564      64726573 
 3565              	.LASF173:
 3566 15a3 4359424C 		.ascii	"CYBLE_GAP_AUTH_FAILED_REASON_T\000"
 3566      455F4741 
 3566      505F4155 
 3566      54485F46 
 3566      41494C45 
 3567              	.LASF55:
 3568 15c2 4359424C 		.ascii	"CYBLE_EVT_GATTS_WRITE_REQ\000"
 3568      455F4556 
 3568      545F4741 
 3568      5454535F 
 3568      57524954 
 3569              	.LASF115:
 3570 15dc 4359424C 		.ascii	"CYBLE_LL_PWR_LVL_NEG_12_DBM\000"
 3570      455F4C4C 
 3570      5F505752 
 3570      5F4C564C 
 3570      5F4E4547 
 3571              	.LASF26:
ARM GAS  C:\Users\Ecapable\AppData\Local\Temp\ccmAuCaF.s 			page 113


 3572 15f8 4359424C 		.ascii	"CYBLE_EVT_GAP_PASSKEY_DISPLAY_REQUEST\000"
 3572      455F4556 
 3572      545F4741 
 3572      505F5041 
 3572      53534B45 
 3573              	.LASF111:
 3574 161e 4359424C 		.ascii	"CYBLE_ERROR_IND_DISABLED\000"
 3574      455F4552 
 3574      524F525F 
 3574      494E445F 
 3574      44495341 
 3575              	.LASF110:
 3576 1637 4359424C 		.ascii	"CYBLE_ERROR_NTF_DISABLED\000"
 3576      455F4552 
 3576      524F525F 
 3576      4E54465F 
 3576      44495341 
 3577              	.LASF198:
 3578 1650 4359424C 		.ascii	"CYBLE_GATT_READ_MULTIPLE_REQ\000"
 3578      455F4741 
 3578      54545F52 
 3578      4541445F 
 3578      4D554C54 
 3579              	.LASF52:
 3580 166d 4359424C 		.ascii	"CYBLE_EVT_GATTC_READ_RSP\000"
 3580      455F4556 
 3580      545F4741 
 3580      5454435F 
 3580      52454144 
 3581              	.LASF221:
 3582 1686 4359424C 		.ascii	"CYBLE_GATT_ERR_INVALID_OFFSET\000"
 3582      455F4741 
 3582      54545F45 
 3582      52525F49 
 3582      4E56414C 
 3583              	.LASF192:
 3584 16a4 4359424C 		.ascii	"CYBLE_GATT_READ_BY_TYPE_REQ\000"
 3584      455F4741 
 3584      54545F52 
 3584      4541445F 
 3584      42595F54 
 3585              	.LASF72:
 3586 16c0 4359424C 		.ascii	"CYBLE_EVT_L2CAP_CBFC_CONN_CNF\000"
 3586      455F4556 
 3586      545F4C32 
 3586      4341505F 
 3586      43424643 
 3587              	.LASF251:
 3588 16de 4359424C 		.ascii	"CYBLE_GATT_ERR_OUT_OF_RANGE\000"
 3588      455F4741 
 3588      54545F45 
 3588      52525F4F 
 3588      55545F4F 
 3589              	.LASF190:
 3590 16fa 4359424C 		.ascii	"CYBLE_GATT_FIND_BY_TYPE_VALUE_REQ\000"
 3590      455F4741 
 3590      54545F46 
ARM GAS  C:\Users\Ecapable\AppData\Local\Temp\ccmAuCaF.s 			page 114


 3590      494E445F 
 3590      42595F54 
 3591              	.LASF116:
 3592 171c 4359424C 		.ascii	"CYBLE_LL_PWR_LVL_NEG_6_DBM\000"
 3592      455F4C4C 
 3592      5F505752 
 3592      5F4C564C 
 3592      5F4E4547 
 3593              	.LASF22:
 3594 1737 4359424C 		.ascii	"CYBLE_EVT_MEMORY_REQUEST\000"
 3594      455F4556 
 3594      545F4D45 
 3594      4D4F5259 
 3594      5F524551 
 3595              	.LASF156:
 3596 1750 4359424C 		.ascii	"CYBLE_GAP_AUTH_ERROR_NONE\000"
 3596      455F4741 
 3596      505F4155 
 3596      54485F45 
 3596      52524F52 
 3597              	.LASF32:
 3598 176a 4359424C 		.ascii	"CYBLE_EVT_GAP_ENCRYPT_CHANGE\000"
 3598      455F4556 
 3598      545F4741 
 3598      505F454E 
 3598      43525950 
 3599              	.LASF264:
 3600 1787 71756575 		.ascii	"queueBuffer\000"
 3600      65427566 
 3600      66657200 
 3601              	.LASF46:
 3602 1793 4359424C 		.ascii	"CYBLE_EVT_GATTS_XCNHG_MTU_REQ\000"
 3602      455F4556 
 3602      545F4741 
 3602      5454535F 
 3602      58434E48 
 3603              	.LASF189:
 3604 17b1 4359424C 		.ascii	"CYBLE_GATT_FIND_INFO_RSP\000"
 3604      455F4741 
 3604      54545F46 
 3604      494E445F 
 3604      494E464F 
 3605              	.LASF158:
 3606 17ca 4359424C 		.ascii	"CYBLE_GAP_AUTH_ERROR_OOB_DATA_NOT_AVAILABLE\000"
 3606      455F4741 
 3606      505F4155 
 3606      54485F45 
 3606      52524F52 
 3607              	.LASF131:
 3608 17f6 4359424C 		.ascii	"CYBLE_PREPARED_WRITE_REQUEST\000"
 3608      455F5052 
 3608      45504152 
 3608      45445F57 
 3608      52495445 
 3609              	.LASF184:
 3610 1813 4359424C 		.ascii	"CYBLE_GAP_CONN_PARAM_UPDATED_IN_CONTROLLER_T\000"
 3610      455F4741 
ARM GAS  C:\Users\Ecapable\AppData\Local\Temp\ccmAuCaF.s 			page 115


 3610      505F434F 
 3610      4E4E5F50 
 3610      4152414D 
 3611              	.LASF7:
 3612 1840 6C6F6E67 		.ascii	"long long unsigned int\000"
 3612      206C6F6E 
 3612      6720756E 
 3612      7369676E 
 3612      65642069 
 3613              	.LASF215:
 3614 1857 4359424C 		.ascii	"CYBLE_GATT_ERR_INVALID_HANDLE\000"
 3614      455F4741 
 3614      54545F45 
 3614      52525F49 
 3614      4E56414C 
 3615              	.LASF18:
 3616 1875 4359424C 		.ascii	"CYBLE_EVT_TIMEOUT\000"
 3616      455F4556 
 3616      545F5449 
 3616      4D454F55 
 3616      5400
 3617              	.LASF213:
 3618 1887 4359424C 		.ascii	"CYBLE_GATT_UNKNOWN_PDU_IND\000"
 3618      455F4741 
 3618      54545F55 
 3618      4E4B4E4F 
 3618      574E5F50 
 3619              	.LASF113:
 3620 18a2 4359424C 		.ascii	"CYBLE_ERROR_INVALID_STATE\000"
 3620      455F4552 
 3620      524F525F 
 3620      494E5641 
 3620      4C49445F 
 3621              	.LASF253:
 3622 18bc 4359424C 		.ascii	"CYBLE_GATT_DB_ATTR_HANDLE_T\000"
 3622      455F4741 
 3622      54545F44 
 3622      425F4154 
 3622      54525F48 
 3623              	.LASF294:
 3624 18d8 626C6553 		.ascii	"bleSsPowerLevel\000"
 3624      73506F77 
 3624      65724C65 
 3624      76656C00 
 3625              	.LASF75:
 3626 18e8 4359424C 		.ascii	"CYBLE_EVT_L2CAP_CBFC_DATA_READ\000"
 3626      455F4556 
 3626      545F4C32 
 3626      4341505F 
 3626      43424643 
 3627              	.LASF214:
 3628 1907 4359424C 		.ascii	"CYBLE_GATT_ERR_NONE\000"
 3628      455F4741 
 3628      54545F45 
 3628      52525F4E 
 3628      4F4E4500 
 3629              	.LASF259:
ARM GAS  C:\Users\Ecapable\AppData\Local\Temp\ccmAuCaF.s 			page 116


 3630 191b 76616C75 		.ascii	"value\000"
 3630      6500
 3631              	.LASF265:
 3632 1921 746F7461 		.ascii	"totalAttrValueLength\000"
 3632      6C417474 
 3632      7256616C 
 3632      75654C65 
 3632      6E677468 
 3633              	.LASF300:
 3634 1936 4379426C 		.ascii	"CyBle_ApplCallback\000"
 3634      655F4170 
 3634      706C4361 
 3634      6C6C6261 
 3634      636B00
 3635              	.LASF107:
 3636 1949 4359424C 		.ascii	"CYBLE_ERROR_FLASH_WRITE\000"
 3636      455F4552 
 3636      524F525F 
 3636      464C4153 
 3636      485F5752 
 3637              	.LASF142:
 3638 1961 4359424C 		.ascii	"CYBLE_GAP_SCAN_TO\000"
 3638      455F4741 
 3638      505F5343 
 3638      414E5F54 
 3638      4F00
 3639              	.LASF235:
 3640 1973 4359424C 		.ascii	"CYBLE_GATT_ERR_HTS_OUT_OF_RANGE\000"
 3640      455F4741 
 3640      54545F45 
 3640      52525F48 
 3640      54535F4F 
 3641              	.LASF140:
 3642 1993 4359424C 		.ascii	"CYBLE_GAP_BD_ADDR_T\000"
 3642      455F4741 
 3642      505F4244 
 3642      5F414444 
 3642      525F5400 
 3643              	.LASF196:
 3644 19a7 4359424C 		.ascii	"CYBLE_GATT_READ_BLOB_REQ\000"
 3644      455F4741 
 3644      54545F52 
 3644      4541445F 
 3644      424C4F42 
 3645              	.LASF310:
 3646 19c0 474E5520 		.ascii	"GNU C 4.9.3 20150303 (release) [ARM/embedded-4_9-br"
 3646      4320342E 
 3646      392E3320 
 3646      32303135 
 3646      30333033 
 3647 19f3 616E6368 		.ascii	"anch revision 221220] -mcpu=cortex-m0 -mthumb -g -O"
 3647      20726576 
 3647      6973696F 
 3647      6E203232 
 3647      31323230 
 3648 1a26 30202D66 		.ascii	"0 -ffunction-sections -ffat-lto-objects\000"
 3648      66756E63 
ARM GAS  C:\Users\Ecapable\AppData\Local\Temp\ccmAuCaF.s 			page 117


 3648      74696F6E 
 3648      2D736563 
 3648      74696F6E 
 3649              	.LASF271:
 3650 1a4e 68616E64 		.ascii	"handleValPair\000"
 3650      6C655661 
 3650      6C506169 
 3650      7200
 3651              	.LASF262:
 3652 1a5c 636F6E6E 		.ascii	"connHandle\000"
 3652      48616E64 
 3652      6C6500
 3653              	.LASF285:
 3654 1a67 4379426C 		.ascii	"CyBle_TimeOutEventHandler\000"
 3654      655F5469 
 3654      6D654F75 
 3654      74457665 
 3654      6E744861 
 3655              	.LASF161:
 3656 1a81 4359424C 		.ascii	"CYBLE_GAP_AUTH_ERROR_PAIRING_NOT_SUPPORTED\000"
 3656      455F4741 
 3656      505F4155 
 3656      54485F45 
 3656      52524F52 
 3657              	.LASF144:
 3658 1aac 4359424C 		.ascii	"CYBLE_GENERIC_TO\000"
 3658      455F4745 
 3658      4E455249 
 3658      435F544F 
 3658      00
 3659              	.LASF50:
 3660 1abd 4359424C 		.ascii	"CYBLE_EVT_GATTC_FIND_INFO_RSP\000"
 3660      455F4556 
 3660      545F4741 
 3660      5454435F 
 3660      46494E44 
 3661              	.LASF49:
 3662 1adb 4359424C 		.ascii	"CYBLE_EVT_GATTC_READ_BY_TYPE_RSP\000"
 3662      455F4556 
 3662      545F4741 
 3662      5454435F 
 3662      52454144 
 3663              	.LASF240:
 3664 1afc 4359424C 		.ascii	"CYBLE_GATTS_ERR_OPERATION_FAILED\000"
 3664      455F4741 
 3664      5454535F 
 3664      4552525F 
 3664      4F504552 
 3665              	.LASF306:
 3666 1b1d 6379426C 		.ascii	"cyBle_state\000"
 3666      655F7374 
 3666      61746500 
 3667              	.LASF178:
 3668 1b29 70616972 		.ascii	"pairingProperties\000"
 3668      696E6750 
 3668      726F7065 
 3668      72746965 
ARM GAS  C:\Users\Ecapable\AppData\Local\Temp\ccmAuCaF.s 			page 118


 3668      7300
 3669              	.LASF56:
 3670 1b3b 4359424C 		.ascii	"CYBLE_EVT_GATTC_WRITE_RSP\000"
 3670      455F4556 
 3670      545F4741 
 3670      5454435F 
 3670      57524954 
 3671              	.LASF278:
 3672 1b55 4359424C 		.ascii	"CYBLE_STATE_DISCONNECTED\000"
 3672      455F5354 
 3672      4154455F 
 3672      44495343 
 3672      4F4E4E45 
 3673              	.LASF296:
 3674 1b6e 6C654D61 		.ascii	"leMask\000"
 3674      736B00
 3675              	.LASF29:
 3676 1b75 4359424C 		.ascii	"CYBLE_EVT_GAPP_ADVERTISEMENT_START_STOP\000"
 3676      455F4556 
 3676      545F4741 
 3676      50505F41 
 3676      44564552 
 3677              	.LASF9:
 3678 1b9d 75696E74 		.ascii	"uint8\000"
 3678      3800
 3679              	.LASF305:
 3680 1ba3 6379426C 		.ascii	"cyBle_authInfo\000"
 3680      655F6175 
 3680      7468496E 
 3680      666F00
 3681              	.LASF37:
 3682 1bb2 4359424C 		.ascii	"CYBLE_EVT_GAP_KEYPRESS_NOTIFICATION\000"
 3682      455F4556 
 3682      545F4741 
 3682      505F4B45 
 3682      59505245 
 3683              	.LASF290:
 3684 1bd6 4379426C 		.ascii	"CyBle_L2Cap_ConnParamUpdateRspEventHandler\000"
 3684      655F4C32 
 3684      4361705F 
 3684      436F6E6E 
 3684      50617261 
 3685              	.LASF202:
 3686 1c01 4359424C 		.ascii	"CYBLE_GATT_WRITE_REQ\000"
 3686      455F4741 
 3686      54545F57 
 3686      52495445 
 3686      5F524551 
 3687              	.LASF2:
 3688 1c16 73686F72 		.ascii	"short int\000"
 3688      7420696E 
 3688      7400
 3689              	.LASF177:
 3690 1c20 61757468 		.ascii	"authErr\000"
 3690      45727200 
 3691              	.LASF105:
 3692 1c28 4359424C 		.ascii	"CYBLE_ERROR_HARDWARE_FAILURE\000"
ARM GAS  C:\Users\Ecapable\AppData\Local\Temp\ccmAuCaF.s 			page 119


 3692      455F4552 
 3692      524F525F 
 3692      48415244 
 3692      57415245 
 3693              	.LASF234:
 3694 1c45 4359424C 		.ascii	"CYBLE_GATT_ERR_CPS_INAPPROPRIATE_CONNECTION_PARAMET"
 3694      455F4741 
 3694      54545F45 
 3694      52525F43 
 3694      50535F49 
 3695 1c78 45525300 		.ascii	"ERS\000"
 3696              	.LASF220:
 3697 1c7c 4359424C 		.ascii	"CYBLE_GATT_ERR_REQUEST_NOT_SUPPORTED\000"
 3697      455F4741 
 3697      54545F45 
 3697      52525F52 
 3697      45515545 
 3698              	.LASF43:
 3699 1ca1 4359424C 		.ascii	"CYBLE_EVT_GATTC_ERROR_RSP\000"
 3699      455F4556 
 3699      545F4741 
 3699      5454435F 
 3699      4552524F 
 3700              	.LASF155:
 3701 1cbb 4359424C 		.ascii	"CYBLE_GAP_IOCAP_KEYBOARD_DISPLAY\000"
 3701      455F4741 
 3701      505F494F 
 3701      4341505F 
 3701      4B455942 
 3702              	.LASF279:
 3703 1cdc 4359424C 		.ascii	"CYBLE_STATE_T\000"
 3703      455F5354 
 3703      4154455F 
 3703      5400
 3704              	.LASF71:
 3705 1cea 4359424C 		.ascii	"CYBLE_EVT_L2CAP_CBFC_CONN_IND\000"
 3705      455F4556 
 3705      545F4C32 
 3705      4341505F 
 3705      43424643 
 3706              	.LASF59:
 3707 1d08 4359424C 		.ascii	"CYBLE_EVT_GATTS_EXEC_WRITE_REQ\000"
 3707      455F4556 
 3707      545F4741 
 3707      5454535F 
 3707      45584543 
 3708              	.LASF23:
 3709 1d27 4359424C 		.ascii	"CYBLE_EVT_GAPC_SCAN_PROGRESS_RESULT\000"
 3709      455F4556 
 3709      545F4741 
 3709      50435F53 
 3709      43414E5F 
 3710              	.LASF252:
 3711 1d4b 4359424C 		.ascii	"CYBLE_GATT_ERR_CODE_T\000"
 3711      455F4741 
 3711      54545F45 
 3711      52525F43 
ARM GAS  C:\Users\Ecapable\AppData\Local\Temp\ccmAuCaF.s 			page 120


 3711      4F44455F 
 3712              	.LASF247:
 3713 1d61 4359424C 		.ascii	"CYBLE_GATT_ERR_ANCS_INVALID_PARAMETER\000"
 3713      455F4741 
 3713      54545F45 
 3713      52525F41 
 3713      4E43535F 
 3714              	.LASF91:
 3715 1d87 4359424C 		.ascii	"CYBLE_ERROR_GAP_ROLE\000"
 3715      455F4552 
 3715      524F525F 
 3715      4741505F 
 3715      524F4C45 
 3716              	.LASF301:
 3717 1d9c 6379426C 		.ascii	"cyBle_stackMemoryRam\000"
 3717      655F7374 
 3717      61636B4D 
 3717      656D6F72 
 3717      7952616D 
 3718              	.LASF309:
 3719 1db1 6379426C 		.ascii	"cyBle_advertisingIntervalType\000"
 3719      655F6164 
 3719      76657274 
 3719      6973696E 
 3719      67496E74 
 3720              	.LASF138:
 3721 1dcf 62644164 		.ascii	"bdAddr\000"
 3721      647200
 3722              	.LASF244:
 3723 1dd6 4359424C 		.ascii	"CYBLE_GATT_ERR_ANS_COMMAND_NOT_SUPPORTED\000"
 3723      455F4741 
 3723      54545F45 
 3723      52525F41 
 3723      4E535F43 
 3724              	.LASF291:
 3725 1dff 72657370 		.ascii	"response\000"
 3725      6F6E7365 
 3725      00
 3726              	.LASF195:
 3727 1e08 4359424C 		.ascii	"CYBLE_GATT_READ_RSP\000"
 3727      455F4741 
 3727      54545F52 
 3727      4541445F 
 3727      52535000 
 3728              	.LASF295:
 3729 1e1c 62644164 		.ascii	"bdAddrLoc\000"
 3729      64724C6F 
 3729      6300
 3730              	.LASF88:
 3731 1e26 4359424C 		.ascii	"CYBLE_ERROR_NO_CONNECTION\000"
 3731      455F4552 
 3731      524F525F 
 3731      4E4F5F43 
 3731      4F4E4E45 
 3732              	.LASF120:
 3733 1e40 4359424C 		.ascii	"CYBLE_LL_PWR_LVL_0_DBM\000"
 3733      455F4C4C 
ARM GAS  C:\Users\Ecapable\AppData\Local\Temp\ccmAuCaF.s 			page 121


 3733      5F505752 
 3733      5F4C564C 
 3733      5F305F44 
 3734              	.LASF124:
 3735 1e57 4359424C 		.ascii	"CYBLE_LL_ADV_CH_TYPE\000"
 3735      455F4C4C 
 3735      5F414456 
 3735      5F43485F 
 3735      54595045 
 3736              	.LASF80:
 3737 1e6c 4359424C 		.ascii	"CYBLE_EVT_LE_PING_AUTH_TIMEOUT\000"
 3737      455F4556 
 3737      545F4C45 
 3737      5F50494E 
 3737      475F4155 
 3738              	.LASF274:
 3739 1e8b 4359424C 		.ascii	"CYBLE_STATE_STOPPED\000"
 3739      455F5354 
 3739      4154455F 
 3739      53544F50 
 3739      50454400 
 3740              	.LASF62:
 3741 1e9f 4359424C 		.ascii	"CYBLE_EVT_GATTC_HANDLE_VALUE_IND\000"
 3741      455F4556 
 3741      545F4741 
 3741      5454435F 
 3741      48414E44 
 3742              	.LASF293:
 3743 1ec0 6576656E 		.ascii	"eventCode\000"
 3743      74436F64 
 3743      6500
 3744              	.LASF94:
 3745 1eca 4359424C 		.ascii	"CYBLE_ERROR_SEC_FAILED\000"
 3745      455F4552 
 3745      524F525F 
 3745      5345435F 
 3745      4641494C 
 3746              	.LASF21:
 3747 1ee1 4359424C 		.ascii	"CYBLE_EVT_STACK_BUSY_STATUS\000"
 3747      455F4556 
 3747      545F5354 
 3747      41434B5F 
 3747      42555359 
 3748              	.LASF182:
 3749 1efd 636F6E6E 		.ascii	"connLatency\000"
 3749      4C617465 
 3749      6E637900 
 3750              	.LASF168:
 3751 1f09 4359424C 		.ascii	"CYBLE_GAP_AUTH_ERROR_NUMERIC_COMPARISON_FAILED\000"
 3751      455F4741 
 3751      505F4155 
 3751      54485F45 
 3751      52524F52 
 3752              	.LASF152:
 3753 1f38 4359424C 		.ascii	"CYBLE_GAP_IOCAP_DISPLAY_YESNO\000"
 3753      455F4741 
 3753      505F494F 
ARM GAS  C:\Users\Ecapable\AppData\Local\Temp\ccmAuCaF.s 			page 122


 3753      4341505F 
 3753      44495350 
 3754              	.LASF35:
 3755 1f56 4359424C 		.ascii	"CYBLE_EVT_GAP_KEYINFO_EXCHNGE_CMPLT\000"
 3755      455F4556 
 3755      545F4741 
 3755      505F4B45 
 3755      59494E46 
 3756              	.LASF207:
 3757 1f7a 4359424C 		.ascii	"CYBLE_GATT_EXECUTE_WRITE_REQ\000"
 3757      455F4741 
 3757      54545F45 
 3757      58454355 
 3757      54455F57 
 3758              	.LASF130:
 3759 1f97 4359424C 		.ascii	"CYBLE_BLESS_PWR_IN_DB_T\000"
 3759      455F424C 
 3759      4553535F 
 3759      5057525F 
 3759      494E5F44 
 3760              	.LASF126:
 3761 1faf 4359424C 		.ascii	"CYBLE_LL_MAX_CH_TYPE\000"
 3761      455F4C4C 
 3761      5F4D4158 
 3761      5F43485F 
 3761      54595045 
 3762              	.LASF68:
 3763 1fc4 4359424C 		.ascii	"CYBLE_EVT_L2CAP_CONN_PARAM_UPDATE_REQ\000"
 3763      455F4556 
 3763      545F4C32 
 3763      4341505F 
 3763      434F4E4E 
 3764              	.LASF133:
 3765 1fea 4359424C 		.ascii	"CYBLE_PROTOCOL_REQ_T\000"
 3765      455F5052 
 3765      4F544F43 
 3765      4F4C5F52 
 3765      45515F54 
 3766              	.LASF280:
 3767 1fff 67617474 		.ascii	"gattErr\000"
 3767      45727200 
 3768              	.LASF217:
 3769 2007 4359424C 		.ascii	"CYBLE_GATT_ERR_WRITE_NOT_PERMITTED\000"
 3769      455F4741 
 3769      54545F45 
 3769      52525F57 
 3769      52495445 
 3770              	.LASF181:
 3771 202a 636F6E6E 		.ascii	"connIntv\000"
 3771      496E7476 
 3771      00
 3772              	.LASF3:
 3773 2033 73686F72 		.ascii	"short unsigned int\000"
 3773      7420756E 
 3773      7369676E 
 3773      65642069 
 3773      6E7400
ARM GAS  C:\Users\Ecapable\AppData\Local\Temp\ccmAuCaF.s 			page 123


 3774              	.LASF229:
 3775 2046 4359424C 		.ascii	"CYBLE_GATT_ERR_INSUFFICIENT_ENCRYPTION\000"
 3775      455F4741 
 3775      54545F45 
 3775      52525F49 
 3775      4E535546 
 3776              	.LASF276:
 3777 206d 4359424C 		.ascii	"CYBLE_STATE_CONNECTED\000"
 3777      455F5354 
 3777      4154455F 
 3777      434F4E4E 
 3777      45435445 
 3778              	.LASF257:
 3779 2083 61637475 		.ascii	"actualLen\000"
 3779      616C4C65 
 3779      6E00
 3780              	.LASF200:
 3781 208d 4359424C 		.ascii	"CYBLE_GATT_READ_BY_GROUP_REQ\000"
 3781      455F4741 
 3781      54545F52 
 3781      4541445F 
 3781      42595F47 
 3782              	.LASF255:
 3783 20aa 61747449 		.ascii	"attId\000"
 3783      6400
 3784              	.LASF84:
 3785 20b0 4359424C 		.ascii	"CYBLE_ERROR_INVALID_OPERATION\000"
 3785      455F4552 
 3785      524F525F 
 3785      494E5641 
 3785      4C49445F 
 3786              	.LASF20:
 3787 20ce 4359424C 		.ascii	"CYBLE_EVT_HCI_STATUS\000"
 3787      455F4556 
 3787      545F4843 
 3787      495F5354 
 3787      41545553 
 3788              	.LASF45:
 3789 20e3 4359424C 		.ascii	"CYBLE_EVT_GATT_DISCONNECT_IND\000"
 3789      455F4556 
 3789      545F4741 
 3789      54545F44 
 3789      4953434F 
 3790              	.LASF183:
 3791 2101 73757065 		.ascii	"supervisionTO\000"
 3791      72766973 
 3791      696F6E54 
 3791      4F00
 3792              	.LASF143:
 3793 210f 4359424C 		.ascii	"CYBLE_GATT_RSP_TO\000"
 3793      455F4741 
 3793      54545F52 
 3793      53505F54 
 3793      4F00
 3794              	.LASF78:
 3795 2121 4359424C 		.ascii	"CYBLE_EVT_L2CAP_CBFC_DATA_WRITE_IND\000"
 3795      455F4556 
ARM GAS  C:\Users\Ecapable\AppData\Local\Temp\ccmAuCaF.s 			page 124


 3795      545F4C32 
 3795      4341505F 
 3795      43424643 
 3796              	.LASF67:
 3797 2145 4359424C 		.ascii	"CYBLE_EVT_GATTC_LONG_PROCEDURE_END\000"
 3797      455F4556 
 3797      545F4741 
 3797      5454435F 
 3797      4C4F4E47 
 3798              	.LASF31:
 3799 2168 4359424C 		.ascii	"CYBLE_EVT_GAP_DEVICE_DISCONNECTED\000"
 3799      455F4556 
 3799      545F4741 
 3799      505F4445 
 3799      56494345 
 3800              	.LASF63:
 3801 218a 4359424C 		.ascii	"CYBLE_EVT_GATTS_HANDLE_VALUE_CNF\000"
 3801      455F4556 
 3801      545F4741 
 3801      5454535F 
 3801      48414E44 
 3802              	.LASF10:
 3803 21ab 75696E74 		.ascii	"uint16\000"
 3803      313600
 3804              	.LASF92:
 3805 21b2 4359424C 		.ascii	"CYBLE_ERROR_TX_POWER_READ\000"
 3805      455F4552 
 3805      524F525F 
 3805      54585F50 
 3805      4F574552 
 3806              		.ident	"GCC: (GNU Tools for ARM Embedded Processors) 4.9.3 20150303 (release) [ARM/embedded-4_9-br
