ARM GAS  C:\Users\Ecapable\AppData\Local\Temp\ccZwSw0g.s 			page 1


   1              		.cpu cortex-m0
   2              		.fpu softvfp
   3              		.eabi_attribute 20, 1
   4              		.eabi_attribute 21, 1
   5              		.eabi_attribute 23, 3
   6              		.eabi_attribute 24, 1
   7              		.eabi_attribute 25, 1
   8              		.eabi_attribute 26, 1
   9              		.eabi_attribute 30, 6
  10              		.eabi_attribute 34, 0
  11              		.eabi_attribute 18, 4
  12              		.code	16
  13              		.file	"BLE_1.c"
  14              		.text
  15              	.Ltext0:
  16              		.cfi_sections	.debug_frame
  17              		.global	cyBle_initVar
  18              		.bss
  19              		.type	cyBle_initVar, %object
  20              		.size	cyBle_initVar, 1
  21              	cyBle_initVar:
  22 0000 00       		.space	1
  23              		.global	cyBle_stackMemoryRam
  24              		.section	.noinit,"aw",%progbits
  25              		.align	3
  26              		.type	cyBle_stackMemoryRam, %object
  27              		.size	cyBle_stackMemoryRam, 2784
  28              	cyBle_stackMemoryRam:
  29 0000 00000000 		.space	2784
  29      00000000 
  29      00000000 
  29      00000000 
  29      00000000 
  30              		.global	cyBle_discoveryParam
  31              		.data
  32              		.align	2
  33              		.type	cyBle_discoveryParam, %object
  34              		.size	cyBle_discoveryParam, 16
  35              	cyBle_discoveryParam:
  36 0000 2000     		.short	32
  37 0002 3000     		.short	48
  38 0004 00       		.byte	0
  39 0005 00       		.byte	0
  40 0006 00       		.byte	0
  41 0007 00       		.byte	0
  42 0008 00       		.byte	0
  43 0009 00       		.byte	0
  44 000a 50       		.byte	80
  45 000b A0       		.byte	-96
  46 000c 00       		.byte	0
  47 000d 07       		.byte	7
  48 000e 00       		.byte	0
  49 000f 00       		.space	1
  50              		.global	cyBle_discoveryData
  51              		.align	2
  52              		.type	cyBle_discoveryData, %object
  53              		.size	cyBle_discoveryData, 32
ARM GAS  C:\Users\Ecapable\AppData\Local\Temp\ccZwSw0g.s 			page 2


  54              	cyBle_discoveryData:
  55 0010 02       		.byte	2
  56 0011 01       		.byte	1
  57 0012 06       		.byte	6
  58 0013 0A       		.byte	10
  59 0014 09       		.byte	9
  60 0015 42       		.byte	66
  61 0016 4C       		.byte	76
  62 0017 45       		.byte	69
  63 0018 20       		.byte	32
  64 0019 4C       		.byte	76
  65 001a 61       		.byte	97
  66 001b 62       		.byte	98
  67 001c 20       		.byte	32
  68 001d 34       		.byte	52
  69 001e 00       		.byte	0
  70 001f 00       		.byte	0
  71 0020 00       		.byte	0
  72 0021 00       		.byte	0
  73 0022 00       		.byte	0
  74 0023 00       		.byte	0
  75 0024 00       		.byte	0
  76 0025 00       		.byte	0
  77 0026 00       		.byte	0
  78 0027 00       		.byte	0
  79 0028 00       		.byte	0
  80 0029 00       		.byte	0
  81 002a 00       		.byte	0
  82 002b 00       		.byte	0
  83 002c 00       		.byte	0
  84 002d 00       		.byte	0
  85 002e 00       		.byte	0
  86 002f 0E       		.byte	14
  87              		.global	cyBle_scanRspData
  88              		.bss
  89 0001 000000   		.align	2
  90              		.type	cyBle_scanRspData, %object
  91              		.size	cyBle_scanRspData, 32
  92              	cyBle_scanRspData:
  93 0004 00000000 		.space	32
  93      00000000 
  93      00000000 
  93      00000000 
  93      00000000 
  94              		.global	cyBle_discoveryModeInfo
  95              		.data
  96              		.align	2
  97              		.type	cyBle_discoveryModeInfo, %object
  98              		.size	cyBle_discoveryModeInfo, 20
  99              	cyBle_discoveryModeInfo:
 100 0030 02       		.byte	2
 101 0031 000000   		.space	3
 102 0034 00000000 		.word	cyBle_discoveryParam
 103 0038 00000000 		.word	cyBle_discoveryData
 104 003c 00000000 		.word	cyBle_scanRspData
 105 0040 1E00     		.short	30
 106 0042 0000     		.space	2
ARM GAS  C:\Users\Ecapable\AppData\Local\Temp\ccZwSw0g.s 			page 3


 107              		.comm	CyBle_ApplCallback,4,4
 108              		.global	cyBle_deviceAddress
 109              		.align	2
 110              		.type	cyBle_deviceAddress, %object
 111              		.size	cyBle_deviceAddress, 7
 112              	cyBle_deviceAddress:
 113 0044 00       		.byte	0
 114 0045 00       		.byte	0
 115 0046 00       		.byte	0
 116 0047 50       		.byte	80
 117 0048 A0       		.byte	-96
 118 0049 00       		.byte	0
 119 004a 00       		.byte	0
 120              		.global	cyBle_sflashDeviceAddress
 121 004b 00       		.align	2
 122              		.type	cyBle_sflashDeviceAddress, %object
 123              		.size	cyBle_sflashDeviceAddress, 4
 124              	cyBle_sflashDeviceAddress:
 125 004c 00F2FF0F 		.word	268431872
 126              		.section	.text.CyBle_Init,"ax",%progbits
 127              		.align	2
 128              		.global	CyBle_Init
 129              		.code	16
 130              		.thumb_func
 131              		.type	CyBle_Init, %function
 132              	CyBle_Init:
 133              	.LFB2:
 134              		.file 1 ".\\Generated_Source\\PSoC4\\BLE_1.c"
   1:.\Generated_Source\PSoC4/BLE_1.c **** /***************************************************************************//**
   2:.\Generated_Source\PSoC4/BLE_1.c **** * \file CYBLE.c
   3:.\Generated_Source\PSoC4/BLE_1.c **** * \version 3.10
   4:.\Generated_Source\PSoC4/BLE_1.c **** * 
   5:.\Generated_Source\PSoC4/BLE_1.c **** * \brief
   6:.\Generated_Source\PSoC4/BLE_1.c **** *  This file contains the source code for the Common APIs of the BLE Component.
   7:.\Generated_Source\PSoC4/BLE_1.c **** * 
   8:.\Generated_Source\PSoC4/BLE_1.c **** ********************************************************************************
   9:.\Generated_Source\PSoC4/BLE_1.c **** * \copyright
  10:.\Generated_Source\PSoC4/BLE_1.c **** * Copyright 2014-2016, Cypress Semiconductor Corporation.  All rights reserved.
  11:.\Generated_Source\PSoC4/BLE_1.c **** * You may use this file only in accordance with the license, terms, conditions,
  12:.\Generated_Source\PSoC4/BLE_1.c **** * disclaimers, and limitations in the end user license agreement accompanying
  13:.\Generated_Source\PSoC4/BLE_1.c **** * the software package with which this file was provided.
  14:.\Generated_Source\PSoC4/BLE_1.c **** *******************************************************************************/
  15:.\Generated_Source\PSoC4/BLE_1.c **** 
  16:.\Generated_Source\PSoC4/BLE_1.c **** #include "BLE_1_eventHandler.h"
  17:.\Generated_Source\PSoC4/BLE_1.c **** #include "BLE_1_HAL_PVT.h"
  18:.\Generated_Source\PSoC4/BLE_1.c **** #include <stdlib.h>
  19:.\Generated_Source\PSoC4/BLE_1.c **** 
  20:.\Generated_Source\PSoC4/BLE_1.c **** 
  21:.\Generated_Source\PSoC4/BLE_1.c **** /***************************************
  22:.\Generated_Source\PSoC4/BLE_1.c **** * Function Prototypes
  23:.\Generated_Source\PSoC4/BLE_1.c **** ***************************************/
  24:.\Generated_Source\PSoC4/BLE_1.c **** 
  25:.\Generated_Source\PSoC4/BLE_1.c **** #if(CYBLE_GATT_ROLE_SERVER)
  26:.\Generated_Source\PSoC4/BLE_1.c ****     #if(CYBLE_GAP_ROLE_PERIPHERAL)
  27:.\Generated_Source\PSoC4/BLE_1.c ****         static void CyBle_ChangeAdLocalName(const char8 name[], uint8 dest);
  28:.\Generated_Source\PSoC4/BLE_1.c ****     #endif /* (CYBLE_GAP_ROLE_PERIPHERAL) */
  29:.\Generated_Source\PSoC4/BLE_1.c **** #endif /* (CYBLE_GATT_ROLE_SERVER) */
ARM GAS  C:\Users\Ecapable\AppData\Local\Temp\ccZwSw0g.s 			page 4


  30:.\Generated_Source\PSoC4/BLE_1.c ****     
  31:.\Generated_Source\PSoC4/BLE_1.c **** 
  32:.\Generated_Source\PSoC4/BLE_1.c **** /***************************************
  33:.\Generated_Source\PSoC4/BLE_1.c **** * Global Variables
  34:.\Generated_Source\PSoC4/BLE_1.c **** ***************************************/
  35:.\Generated_Source\PSoC4/BLE_1.c **** 
  36:.\Generated_Source\PSoC4/BLE_1.c **** /* Indicates whether the BLE has been initialized. The variable is initialized to
  37:.\Generated_Source\PSoC4/BLE_1.c ****    0 and set to 1 the first time CyBle_Start() is called. This allows the component
  38:.\Generated_Source\PSoC4/BLE_1.c ****    to restart without reinitialization after the first call to the CyBle_Start() 
  39:.\Generated_Source\PSoC4/BLE_1.c ****    routine. If reinitialization of the component is required, the variable should 
  40:.\Generated_Source\PSoC4/BLE_1.c ****    be set to 0 before the CyBle_Start() routine is called. Alternatively, the BLE
  41:.\Generated_Source\PSoC4/BLE_1.c ****    can be reinitialized by calling the CyBle_Init() function.
  42:.\Generated_Source\PSoC4/BLE_1.c **** */
  43:.\Generated_Source\PSoC4/BLE_1.c **** uint8  cyBle_initVar = 0u;
  44:.\Generated_Source\PSoC4/BLE_1.c **** 
  45:.\Generated_Source\PSoC4/BLE_1.c **** /* Allocate RAM memory for stack. This buffer could be reused by application when 
  46:.\Generated_Source\PSoC4/BLE_1.c ****    BLE component is stopped. For export mode buffer is allocated in heap.
  47:.\Generated_Source\PSoC4/BLE_1.c **** */
  48:.\Generated_Source\PSoC4/BLE_1.c **** #if(CYBLE_SHARING_MODE_EXPORT)
  49:.\Generated_Source\PSoC4/BLE_1.c ****     
  50:.\Generated_Source\PSoC4/BLE_1.c **** uint8 *cyBle_stackMemoryRam = NULL;
  51:.\Generated_Source\PSoC4/BLE_1.c **** 
  52:.\Generated_Source\PSoC4/BLE_1.c **** #else
  53:.\Generated_Source\PSoC4/BLE_1.c **** 
  54:.\Generated_Source\PSoC4/BLE_1.c **** CYBLE_CYALIGNED_BEGIN CY_NOINIT uint8 cyBle_stackMemoryRam[CYBLE_STACK_RAM_SIZE] CYBLE_CYALIGNED_EN
  55:.\Generated_Source\PSoC4/BLE_1.c **** 
  56:.\Generated_Source\PSoC4/BLE_1.c **** #endif  /* CYBLE_SHARING_MODE_EXPORT */
  57:.\Generated_Source\PSoC4/BLE_1.c **** 
  58:.\Generated_Source\PSoC4/BLE_1.c **** #if(CYBLE_GAP_ROLE_PERIPHERAL || CYBLE_GAP_ROLE_BROADCASTER)
  59:.\Generated_Source\PSoC4/BLE_1.c **** 
  60:.\Generated_Source\PSoC4/BLE_1.c **** CYBLE_GAPP_DISC_PARAM_T cyBle_discoveryParam =
  61:.\Generated_Source\PSoC4/BLE_1.c **** {
  62:.\Generated_Source\PSoC4/BLE_1.c ****     0x0020u,    /* uint16 advertising_interval_min */
  63:.\Generated_Source\PSoC4/BLE_1.c ****     0x0030u,    /* uint16 advertising_interval_max */
  64:.\Generated_Source\PSoC4/BLE_1.c ****     CYBLE_GAPP_CONNECTABLE_UNDIRECTED_ADV, /* uint8 advertising_type */
  65:.\Generated_Source\PSoC4/BLE_1.c ****     0x00u,      /* uint8 own_addr_type */
  66:.\Generated_Source\PSoC4/BLE_1.c ****     0x00u,      /* uint8 direct_addr_type */
  67:.\Generated_Source\PSoC4/BLE_1.c ****     {0x00u, 0x00u, 0x00u, 0x50u, 0xA0u, 0x00u}, /* uint8* direct_addr */
  68:.\Generated_Source\PSoC4/BLE_1.c ****     0x07u,      /* uint8 advertising_channel_map */
  69:.\Generated_Source\PSoC4/BLE_1.c ****     0x00u,      /* uint8 advertising_filter_policy */
  70:.\Generated_Source\PSoC4/BLE_1.c **** };
  71:.\Generated_Source\PSoC4/BLE_1.c **** 
  72:.\Generated_Source\PSoC4/BLE_1.c **** CYBLE_GAPP_DISC_DATA_T cyBle_discoveryData =
  73:.\Generated_Source\PSoC4/BLE_1.c **** {
  74:.\Generated_Source\PSoC4/BLE_1.c ****     { 0x02u, 0x01u, 0x06u, 0x0Au, 0x09u, 0x42u, 0x4Cu,
  75:.\Generated_Source\PSoC4/BLE_1.c ****     0x45u, 0x20u, 0x4Cu, 0x61u, 0x62u, 0x20u, 0x34u, 0x00u,
  76:.\Generated_Source\PSoC4/BLE_1.c ****     0x00u, 0x00u, 0x00u, 0x00u, 0x00u, 0x00u, 0x00u, 0x00u,
  77:.\Generated_Source\PSoC4/BLE_1.c ****     0x00u, 0x00u, 0x00u, 0x00u, 0x00u, 0x00u, 0x00u, 0x00u }, /* uint8 advertising_data[CYBLE_MAX_A
  78:.\Generated_Source\PSoC4/BLE_1.c ****     0x0Eu,      /* uint8 adv_data_length */
  79:.\Generated_Source\PSoC4/BLE_1.c **** };
  80:.\Generated_Source\PSoC4/BLE_1.c **** 
  81:.\Generated_Source\PSoC4/BLE_1.c **** CYBLE_GAPP_SCAN_RSP_DATA_T cyBle_scanRspData =
  82:.\Generated_Source\PSoC4/BLE_1.c **** {
  83:.\Generated_Source\PSoC4/BLE_1.c ****     { 0x00u, 0x00u, 0x00u, 0x00u, 0x00u, 0x00u, 0x00u,
  84:.\Generated_Source\PSoC4/BLE_1.c ****     0x00u, 0x00u, 0x00u, 0x00u, 0x00u, 0x00u, 0x00u, 0x00u,
  85:.\Generated_Source\PSoC4/BLE_1.c ****     0x00u, 0x00u, 0x00u, 0x00u, 0x00u, 0x00u, 0x00u, 0x00u,
  86:.\Generated_Source\PSoC4/BLE_1.c ****     0x00u, 0x00u, 0x00u, 0x00u, 0x00u, 0x00u, 0x00u, 0x00u }, /* uint8 scan_rsp_data[CYBLE_MAX_SCAN
ARM GAS  C:\Users\Ecapable\AppData\Local\Temp\ccZwSw0g.s 			page 5


  87:.\Generated_Source\PSoC4/BLE_1.c ****     0x00u,      /* uint8 scan_rsp_data_length */
  88:.\Generated_Source\PSoC4/BLE_1.c **** };
  89:.\Generated_Source\PSoC4/BLE_1.c **** 
  90:.\Generated_Source\PSoC4/BLE_1.c **** /* This variable of type CYBLE_GAPP_DISC_MODE_INFO_T is present only when 
  91:.\Generated_Source\PSoC4/BLE_1.c ****    the BLE component is configured for Peripheral GAP role or Central and 
  92:.\Generated_Source\PSoC4/BLE_1.c ****    Peripheral GAP role. It contains the Advertisement settings and also the 
  93:.\Generated_Source\PSoC4/BLE_1.c ****    Advertisement and Scan response data parameters entered in the customizer.
  94:.\Generated_Source\PSoC4/BLE_1.c ****    This variable can be used by advanced users to change Advertisement settings,
  95:.\Generated_Source\PSoC4/BLE_1.c ****    Advertisement or Scan response data in runtime. 
  96:.\Generated_Source\PSoC4/BLE_1.c **** */
  97:.\Generated_Source\PSoC4/BLE_1.c **** CYBLE_GAPP_DISC_MODE_INFO_T cyBle_discoveryModeInfo =
  98:.\Generated_Source\PSoC4/BLE_1.c **** {
  99:.\Generated_Source\PSoC4/BLE_1.c ****     0x02u,      /* uint8 discMode */
 100:.\Generated_Source\PSoC4/BLE_1.c ****     &cyBle_discoveryParam,
 101:.\Generated_Source\PSoC4/BLE_1.c ****     &cyBle_discoveryData,
 102:.\Generated_Source\PSoC4/BLE_1.c ****     &cyBle_scanRspData,
 103:.\Generated_Source\PSoC4/BLE_1.c ****     0x001Eu,    /* uint16 advTo */
 104:.\Generated_Source\PSoC4/BLE_1.c **** };
 105:.\Generated_Source\PSoC4/BLE_1.c **** 
 106:.\Generated_Source\PSoC4/BLE_1.c **** 
 107:.\Generated_Source\PSoC4/BLE_1.c **** #endif /* CYBLE_GAP_ROLE_PERIPHERAL || CYBLE_GAP_ROLE_BROADCASTER */
 108:.\Generated_Source\PSoC4/BLE_1.c **** 
 109:.\Generated_Source\PSoC4/BLE_1.c **** #if(CYBLE_GAP_ROLE_CENTRAL)
 110:.\Generated_Source\PSoC4/BLE_1.c ****     
 111:.\Generated_Source\PSoC4/BLE_1.c **** CYBLE_GAPC_CONN_PARAM_T cyBle_connectionParameters;
 112:.\Generated_Source\PSoC4/BLE_1.c **** 
 113:.\Generated_Source\PSoC4/BLE_1.c **** /* Connecting timeout is set to 30 seconds in CyBle_Init function. 
 114:.\Generated_Source\PSoC4/BLE_1.c ****    Not zero value starts timer in CyBle_GapcConnectDevice API.
 115:.\Generated_Source\PSoC4/BLE_1.c **** */
 116:.\Generated_Source\PSoC4/BLE_1.c **** uint16 cyBle_connectingTimeout;
 117:.\Generated_Source\PSoC4/BLE_1.c ****     
 118:.\Generated_Source\PSoC4/BLE_1.c **** #endif /* CYBLE_GAP_ROLE_CENTRAL */
 119:.\Generated_Source\PSoC4/BLE_1.c **** 
 120:.\Generated_Source\PSoC4/BLE_1.c **** #if(CYBLE_GAP_ROLE_CENTRAL || CYBLE_GAP_ROLE_OBSERVER)
 121:.\Generated_Source\PSoC4/BLE_1.c ****     
 122:.\Generated_Source\PSoC4/BLE_1.c **** 
 123:.\Generated_Source\PSoC4/BLE_1.c ****     
 124:.\Generated_Source\PSoC4/BLE_1.c **** #endif /* CYBLE_GAP_ROLE_CENTRAL || CYBLE_GAP_ROLE_OBSERVER */
 125:.\Generated_Source\PSoC4/BLE_1.c **** 
 126:.\Generated_Source\PSoC4/BLE_1.c **** #if((CYBLE_GAP_ROLE_PERIPHERAL || CYBLE_GAP_ROLE_CENTRAL) && (CYBLE_BONDING_REQUIREMENT == CYBLE_BO
 127:.\Generated_Source\PSoC4/BLE_1.c **** 
 128:.\Generated_Source\PSoC4/BLE_1.c **** uint8 cyBle_peerBonding;
 129:.\Generated_Source\PSoC4/BLE_1.c **** uint8 cyBle_pendingFlashWrite;
 130:.\Generated_Source\PSoC4/BLE_1.c ****     
 131:.\Generated_Source\PSoC4/BLE_1.c **** #if(CYBLE_GATT_DB_CCCD_COUNT != 0u)
 132:.\Generated_Source\PSoC4/BLE_1.c ****     static uint8 cyBle_pendingFlashClearCccdHandle;
 133:.\Generated_Source\PSoC4/BLE_1.c **** #endif /* CYBLE_GATT_DB_CCCD_COUNT != 0u */
 134:.\Generated_Source\PSoC4/BLE_1.c ****     
 135:.\Generated_Source\PSoC4/BLE_1.c **** #endif  /* (CYBLE_BONDING_REQUIREMENT == CYBLE_BONDING_YES) */
 136:.\Generated_Source\PSoC4/BLE_1.c **** 
 137:.\Generated_Source\PSoC4/BLE_1.c **** CYBLE_CALLBACK_T CyBle_ApplCallback;
 138:.\Generated_Source\PSoC4/BLE_1.c **** CYBLE_GAP_BD_ADDR_T cyBle_deviceAddress = {{0x00u, 0x00u, 0x00u, 0x50u, 0xA0u, 0x00u}, 0x00u };
 139:.\Generated_Source\PSoC4/BLE_1.c **** CYBLE_GAP_BD_ADDR_T * cyBle_sflashDeviceAddress = CYBLE_SFLASH_DEVICE_ADDRESS_PTR;
 140:.\Generated_Source\PSoC4/BLE_1.c **** 
 141:.\Generated_Source\PSoC4/BLE_1.c **** 
 142:.\Generated_Source\PSoC4/BLE_1.c **** /******************************************************************************
 143:.\Generated_Source\PSoC4/BLE_1.c **** * Function Name: CyBle_Init
ARM GAS  C:\Users\Ecapable\AppData\Local\Temp\ccZwSw0g.s 			page 6


 144:.\Generated_Source\PSoC4/BLE_1.c **** ***************************************************************************//**
 145:.\Generated_Source\PSoC4/BLE_1.c **** *
 146:.\Generated_Source\PSoC4/BLE_1.c **** *   Initializes the component with the parameters set in the customizer.
 147:.\Generated_Source\PSoC4/BLE_1.c **** * 
 148:.\Generated_Source\PSoC4/BLE_1.c **** *  \return
 149:.\Generated_Source\PSoC4/BLE_1.c **** *   None
 150:.\Generated_Source\PSoC4/BLE_1.c **** * 
 151:.\Generated_Source\PSoC4/BLE_1.c **** ******************************************************************************/
 152:.\Generated_Source\PSoC4/BLE_1.c **** void CyBle_Init(void)
 153:.\Generated_Source\PSoC4/BLE_1.c **** {
 135              		.loc 1 153 0
 136              		.cfi_startproc
 137 0000 80B5     		push	{r7, lr}
 138              		.cfi_def_cfa_offset 8
 139              		.cfi_offset 7, -8
 140              		.cfi_offset 14, -4
 141 0002 00AF     		add	r7, sp, #0
 142              		.cfi_def_cfa_register 7
 154:.\Generated_Source\PSoC4/BLE_1.c ****     cyBle_eventHandlerFlag = 0u;
 143              		.loc 1 154 0
 144 0004 064B     		ldr	r3, .L2
 145 0006 0022     		mov	r2, #0
 146 0008 1A70     		strb	r2, [r3]
 155:.\Generated_Source\PSoC4/BLE_1.c ****     cyBle_busyStatus = CYBLE_STACK_STATE_FREE;
 147              		.loc 1 155 0
 148 000a 064B     		ldr	r3, .L2+4
 149 000c 0022     		mov	r2, #0
 150 000e 1A70     		strb	r2, [r3]
 156:.\Generated_Source\PSoC4/BLE_1.c **** 
 157:.\Generated_Source\PSoC4/BLE_1.c ****     #if(CYBLE_GAP_ROLE_PERIPHERAL || CYBLE_GAP_ROLE_BROADCASTER) 
 158:.\Generated_Source\PSoC4/BLE_1.c ****         cyBle_advertisingIntervalType = CYBLE_ADVERTISING_FAST; 
 151              		.loc 1 158 0
 152 0010 054B     		ldr	r3, .L2+8
 153 0012 0022     		mov	r2, #0
 154 0014 1A70     		strb	r2, [r3]
 159:.\Generated_Source\PSoC4/BLE_1.c ****     #endif /* (CYBLE_GAP_ROLE_PERIPHERAL || CYBLE_GAP_ROLE_BROADCASTER)  */
 160:.\Generated_Source\PSoC4/BLE_1.c ****     #if(CYBLE_GAP_ROLE_CENTRAL || CYBLE_GAP_ROLE_OBSERVER)
 161:.\Generated_Source\PSoC4/BLE_1.c ****         cyBle_scanningIntervalType = CYBLE_SCANNING_FAST; 
 162:.\Generated_Source\PSoC4/BLE_1.c ****     #endif /* (CYBLE_GAP_ROLE_CENTRAL || CYBLE_GAP_ROLE_OBSERVER) */
 163:.\Generated_Source\PSoC4/BLE_1.c ****         
 164:.\Generated_Source\PSoC4/BLE_1.c ****     /* Init default connection parameters. 
 165:.\Generated_Source\PSoC4/BLE_1.c ****        Application may change it before initiating a connection */
 166:.\Generated_Source\PSoC4/BLE_1.c ****     #if(CYBLE_GAP_ROLE_CENTRAL)
 167:.\Generated_Source\PSoC4/BLE_1.c ****         cyBle_connectionParameters.scanIntv = cyBle_discoveryInfo.scanIntv;
 168:.\Generated_Source\PSoC4/BLE_1.c ****         cyBle_connectionParameters.scanWindow = cyBle_discoveryInfo.scanWindow;
 169:.\Generated_Source\PSoC4/BLE_1.c ****         cyBle_connectionParameters.ownAddrType = cyBle_discoveryInfo.ownAddrType;
 170:.\Generated_Source\PSoC4/BLE_1.c ****         cyBle_connectionParameters.initiatorFilterPolicy = cyBle_discoveryInfo.scanFilterPolicy;
 171:.\Generated_Source\PSoC4/BLE_1.c ****         cyBle_connectionParameters.connIntvMin = CYBLE_GAPC_CONNECTION_INTERVAL_MIN;
 172:.\Generated_Source\PSoC4/BLE_1.c ****         cyBle_connectionParameters.connIntvMax = CYBLE_GAPC_CONNECTION_INTERVAL_MAX;
 173:.\Generated_Source\PSoC4/BLE_1.c ****         cyBle_connectionParameters.connLatency = CYBLE_GAPC_CONNECTION_SLAVE_LATENCY;
 174:.\Generated_Source\PSoC4/BLE_1.c ****         cyBle_connectionParameters.supervisionTO = CYBLE_GAPC_CONNECTION_TIME_OUT;
 175:.\Generated_Source\PSoC4/BLE_1.c ****         cyBle_connectionParameters.minCeLength = 0x0000u;
 176:.\Generated_Source\PSoC4/BLE_1.c ****         cyBle_connectionParameters.maxCeLength = 0xFFFFu;
 177:.\Generated_Source\PSoC4/BLE_1.c ****         
 178:.\Generated_Source\PSoC4/BLE_1.c ****         cyBle_connectingTimeout = CYBLE_GAPC_CONNECTING_TIMEOUT;
 179:.\Generated_Source\PSoC4/BLE_1.c ****     #endif /* CYBLE_GAP_ROLE_CENTRAL */
 180:.\Generated_Source\PSoC4/BLE_1.c **** 
ARM GAS  C:\Users\Ecapable\AppData\Local\Temp\ccZwSw0g.s 			page 7


 181:.\Generated_Source\PSoC4/BLE_1.c ****     CyBle_ServiceInit();
 155              		.loc 1 181 0
 156 0016 FFF7FEFF 		bl	CyBle_ServiceInit
 182:.\Generated_Source\PSoC4/BLE_1.c **** 
 183:.\Generated_Source\PSoC4/BLE_1.c ****     #if((CYBLE_GAP_ROLE_PERIPHERAL || CYBLE_GAP_ROLE_CENTRAL) && (CYBLE_BONDING_REQUIREMENT == CYBL
 184:.\Generated_Source\PSoC4/BLE_1.c ****         cyBle_pendingFlashWrite = 0u;
 185:.\Generated_Source\PSoC4/BLE_1.c ****         cyBle_peerBonding = CYBLE_GAP_BONDING_NONE;
 186:.\Generated_Source\PSoC4/BLE_1.c ****     #endif  /* (CYBLE_BONDING_REQUIREMENT == CYBLE_BONDING_YES) */
 187:.\Generated_Source\PSoC4/BLE_1.c **** 
 188:.\Generated_Source\PSoC4/BLE_1.c **** }
 157              		.loc 1 188 0
 158 001a BD46     		mov	sp, r7
 159              		@ sp needed
 160 001c 80BD     		pop	{r7, pc}
 161              	.L3:
 162 001e C046     		.align	2
 163              	.L2:
 164 0020 00000000 		.word	cyBle_eventHandlerFlag
 165 0024 00000000 		.word	cyBle_busyStatus
 166 0028 00000000 		.word	cyBle_advertisingIntervalType
 167              		.cfi_endproc
 168              	.LFE2:
 169              		.size	CyBle_Init, .-CyBle_Init
 170              		.section	.text.CyBle_ServiceInit,"ax",%progbits
 171              		.align	2
 172              		.global	CyBle_ServiceInit
 173              		.code	16
 174              		.thumb_func
 175              		.type	CyBle_ServiceInit, %function
 176              	CyBle_ServiceInit:
 177              	.LFB3:
 189:.\Generated_Source\PSoC4/BLE_1.c **** 
 190:.\Generated_Source\PSoC4/BLE_1.c **** 
 191:.\Generated_Source\PSoC4/BLE_1.c **** /******************************************************************************
 192:.\Generated_Source\PSoC4/BLE_1.c **** * Function Name: CyBle_ServiceInit
 193:.\Generated_Source\PSoC4/BLE_1.c **** ***************************************************************************//**
 194:.\Generated_Source\PSoC4/BLE_1.c **** * 
 195:.\Generated_Source\PSoC4/BLE_1.c **** *  Initializes all included services.
 196:.\Generated_Source\PSoC4/BLE_1.c **** * 
 197:.\Generated_Source\PSoC4/BLE_1.c **** * \return
 198:.\Generated_Source\PSoC4/BLE_1.c **** *  None
 199:.\Generated_Source\PSoC4/BLE_1.c **** * 
 200:.\Generated_Source\PSoC4/BLE_1.c **** ******************************************************************************/
 201:.\Generated_Source\PSoC4/BLE_1.c **** void CyBle_ServiceInit(void)
 202:.\Generated_Source\PSoC4/BLE_1.c **** {
 178              		.loc 1 202 0
 179              		.cfi_startproc
 180 0000 80B5     		push	{r7, lr}
 181              		.cfi_def_cfa_offset 8
 182              		.cfi_offset 7, -8
 183              		.cfi_offset 14, -4
 184 0002 00AF     		add	r7, sp, #0
 185              		.cfi_def_cfa_register 7
 203:.\Generated_Source\PSoC4/BLE_1.c ****     #if(CYBLE_GATT_ROLE_CLIENT)
 204:.\Generated_Source\PSoC4/BLE_1.c ****         /* Check service range before clearing to support partial discovery */
 205:.\Generated_Source\PSoC4/BLE_1.c ****         if(cyBle_serverInfo[CYBLE_SRVI_GAP].range.startHandle == CYBLE_GATT_INVALID_ATTR_HANDLE_VAL
 206:.\Generated_Source\PSoC4/BLE_1.c ****         {
ARM GAS  C:\Users\Ecapable\AppData\Local\Temp\ccZwSw0g.s 			page 8


 207:.\Generated_Source\PSoC4/BLE_1.c ****             (void)memset(&cyBle_gapc, 0, sizeof(cyBle_gapc));
 208:.\Generated_Source\PSoC4/BLE_1.c ****         }
 209:.\Generated_Source\PSoC4/BLE_1.c ****         if(cyBle_serverInfo[CYBLE_SRVI_GATT].range.startHandle == CYBLE_GATT_INVALID_ATTR_HANDLE_VA
 210:.\Generated_Source\PSoC4/BLE_1.c ****         {
 211:.\Generated_Source\PSoC4/BLE_1.c ****             (void)memset(&cyBle_gattc, 0, sizeof(cyBle_gattc));
 212:.\Generated_Source\PSoC4/BLE_1.c ****         }
 213:.\Generated_Source\PSoC4/BLE_1.c ****     #endif /* CYBLE_GATT_ROLE_CLIENT */
 214:.\Generated_Source\PSoC4/BLE_1.c ****     
 215:.\Generated_Source\PSoC4/BLE_1.c **** 	#ifdef CYBLE_ANCS
 216:.\Generated_Source\PSoC4/BLE_1.c ****         CyBle_AncsInit();
 217:.\Generated_Source\PSoC4/BLE_1.c ****     #endif /* CYBLE_ANCS */
 218:.\Generated_Source\PSoC4/BLE_1.c **** 	
 219:.\Generated_Source\PSoC4/BLE_1.c ****     #ifdef CYBLE_ANS
 220:.\Generated_Source\PSoC4/BLE_1.c ****         CyBle_AnsInit();
 221:.\Generated_Source\PSoC4/BLE_1.c ****     #endif /* CYBLE_ANS */
 222:.\Generated_Source\PSoC4/BLE_1.c ****     
 223:.\Generated_Source\PSoC4/BLE_1.c ****     #ifdef CYBLE_BAS
 224:.\Generated_Source\PSoC4/BLE_1.c ****         CyBle_BasInit();
 225:.\Generated_Source\PSoC4/BLE_1.c ****     #endif /* CYBLE_BAS */
 226:.\Generated_Source\PSoC4/BLE_1.c ****     
 227:.\Generated_Source\PSoC4/BLE_1.c ****     #ifdef CYBLE_BCS
 228:.\Generated_Source\PSoC4/BLE_1.c ****         CyBle_BcsInit();
 229:.\Generated_Source\PSoC4/BLE_1.c ****     #endif /* CYBLE_BCS */
 230:.\Generated_Source\PSoC4/BLE_1.c **** 
 231:.\Generated_Source\PSoC4/BLE_1.c ****     #ifdef CYBLE_BLS
 232:.\Generated_Source\PSoC4/BLE_1.c ****         CyBle_BlsInit();
 233:.\Generated_Source\PSoC4/BLE_1.c ****     #endif /* CYBLE_BLS */
 234:.\Generated_Source\PSoC4/BLE_1.c ****     
 235:.\Generated_Source\PSoC4/BLE_1.c ****     #ifdef CYBLE_BMS
 236:.\Generated_Source\PSoC4/BLE_1.c ****         CyBle_BmsInit();
 237:.\Generated_Source\PSoC4/BLE_1.c ****     #endif /* CYBLE_BMS */
 238:.\Generated_Source\PSoC4/BLE_1.c ****     
 239:.\Generated_Source\PSoC4/BLE_1.c ****     #ifdef CYBLE_CGMS
 240:.\Generated_Source\PSoC4/BLE_1.c ****         CyBle_CgmsInit();
 241:.\Generated_Source\PSoC4/BLE_1.c ****     #endif /* CYBLE_CGMS */
 242:.\Generated_Source\PSoC4/BLE_1.c **** 
 243:.\Generated_Source\PSoC4/BLE_1.c ****     #ifdef CYBLE_CPS
 244:.\Generated_Source\PSoC4/BLE_1.c ****         CyBle_CpsInit();
 245:.\Generated_Source\PSoC4/BLE_1.c ****     #endif /* CYBLE_CPS */
 246:.\Generated_Source\PSoC4/BLE_1.c **** 
 247:.\Generated_Source\PSoC4/BLE_1.c ****     #ifdef CYBLE_CSCS
 248:.\Generated_Source\PSoC4/BLE_1.c ****         CyBle_CscsInit();
 249:.\Generated_Source\PSoC4/BLE_1.c ****     #endif /* CYBLE_CSCS */
 250:.\Generated_Source\PSoC4/BLE_1.c ****     
 251:.\Generated_Source\PSoC4/BLE_1.c ****     #ifdef CYBLE_CTS
 252:.\Generated_Source\PSoC4/BLE_1.c ****         CyBle_CtsInit();
 253:.\Generated_Source\PSoC4/BLE_1.c ****     #endif /* CYBLE_CTS */
 254:.\Generated_Source\PSoC4/BLE_1.c **** 
 255:.\Generated_Source\PSoC4/BLE_1.c ****     #ifdef CYBLE_CUSTOM
 256:.\Generated_Source\PSoC4/BLE_1.c ****         CyBle_CustomInit();
 186              		.loc 1 256 0
 187 0004 FFF7FEFF 		bl	CyBle_CustomInit
 257:.\Generated_Source\PSoC4/BLE_1.c ****     #endif /* CYBLE_CUSTOM */
 258:.\Generated_Source\PSoC4/BLE_1.c **** 
 259:.\Generated_Source\PSoC4/BLE_1.c ****     #ifdef CYBLE_DIS
 260:.\Generated_Source\PSoC4/BLE_1.c ****         CyBle_DisInit();
 261:.\Generated_Source\PSoC4/BLE_1.c ****     #endif /* CYBLE_DIS */
ARM GAS  C:\Users\Ecapable\AppData\Local\Temp\ccZwSw0g.s 			page 9


 262:.\Generated_Source\PSoC4/BLE_1.c **** 
 263:.\Generated_Source\PSoC4/BLE_1.c ****     #ifdef CYBLE_ESS
 264:.\Generated_Source\PSoC4/BLE_1.c ****         CyBle_EssInit();
 265:.\Generated_Source\PSoC4/BLE_1.c ****     #endif /* CYBLE_ESS */
 266:.\Generated_Source\PSoC4/BLE_1.c ****     
 267:.\Generated_Source\PSoC4/BLE_1.c ****     #ifdef CYBLE_GLS
 268:.\Generated_Source\PSoC4/BLE_1.c ****         CyBle_GlsInit();
 269:.\Generated_Source\PSoC4/BLE_1.c ****     #endif /* CYBLE_GLS */
 270:.\Generated_Source\PSoC4/BLE_1.c ****     
 271:.\Generated_Source\PSoC4/BLE_1.c ****     #ifdef CYBLE_HIDS
 272:.\Generated_Source\PSoC4/BLE_1.c ****         CyBle_HidsInit();
 273:.\Generated_Source\PSoC4/BLE_1.c ****     #endif /* CYBLE_HIDS */
 274:.\Generated_Source\PSoC4/BLE_1.c **** 
 275:.\Generated_Source\PSoC4/BLE_1.c ****     #ifdef CYBLE_HPS
 276:.\Generated_Source\PSoC4/BLE_1.c ****         CyBle_HpsInit();
 277:.\Generated_Source\PSoC4/BLE_1.c ****     #endif /* CYBLE_HPS */
 278:.\Generated_Source\PSoC4/BLE_1.c **** 
 279:.\Generated_Source\PSoC4/BLE_1.c ****     #ifdef CYBLE_HRS
 280:.\Generated_Source\PSoC4/BLE_1.c ****         CyBle_HrsInit();
 281:.\Generated_Source\PSoC4/BLE_1.c ****     #endif /* CYBLE_HRS */
 282:.\Generated_Source\PSoC4/BLE_1.c ****     
 283:.\Generated_Source\PSoC4/BLE_1.c ****     #ifdef CYBLE_HTS
 284:.\Generated_Source\PSoC4/BLE_1.c ****         CyBle_HtsInit();
 285:.\Generated_Source\PSoC4/BLE_1.c ****     #endif /* CYBLE_RSCS */
 286:.\Generated_Source\PSoC4/BLE_1.c **** 
 287:.\Generated_Source\PSoC4/BLE_1.c ****     #ifdef CYBLE_IAS
 288:.\Generated_Source\PSoC4/BLE_1.c ****         CyBle_IasInit();
 289:.\Generated_Source\PSoC4/BLE_1.c ****     #endif /* CYBLE_IAS */
 290:.\Generated_Source\PSoC4/BLE_1.c **** 
 291:.\Generated_Source\PSoC4/BLE_1.c ****     #ifdef CYBLE_IPS
 292:.\Generated_Source\PSoC4/BLE_1.c ****         CyBle_IpsInit();
 293:.\Generated_Source\PSoC4/BLE_1.c ****     #endif /* CYBLE_IPS */
 294:.\Generated_Source\PSoC4/BLE_1.c ****     
 295:.\Generated_Source\PSoC4/BLE_1.c ****     #ifdef CYBLE_LLS
 296:.\Generated_Source\PSoC4/BLE_1.c ****         CyBle_LlsInit();
 297:.\Generated_Source\PSoC4/BLE_1.c ****     #endif /* CYBLE_LLS */
 298:.\Generated_Source\PSoC4/BLE_1.c **** 
 299:.\Generated_Source\PSoC4/BLE_1.c ****     #ifdef CYBLE_LNS
 300:.\Generated_Source\PSoC4/BLE_1.c ****         CyBle_LnsInit();
 301:.\Generated_Source\PSoC4/BLE_1.c ****     #endif /* CYBLE_LNS */
 302:.\Generated_Source\PSoC4/BLE_1.c ****     
 303:.\Generated_Source\PSoC4/BLE_1.c ****     #ifdef CYBLE_NDCS
 304:.\Generated_Source\PSoC4/BLE_1.c ****         CyBle_NdcsInit();
 305:.\Generated_Source\PSoC4/BLE_1.c ****     #endif /* CYBLE_NDCS */
 306:.\Generated_Source\PSoC4/BLE_1.c ****     
 307:.\Generated_Source\PSoC4/BLE_1.c ****     #ifdef CYBLE_PASS
 308:.\Generated_Source\PSoC4/BLE_1.c ****         CyBle_PassInit();
 309:.\Generated_Source\PSoC4/BLE_1.c ****     #endif /* CYBLE_PASS */
 310:.\Generated_Source\PSoC4/BLE_1.c ****     
 311:.\Generated_Source\PSoC4/BLE_1.c ****     #ifdef CYBLE_RSCS
 312:.\Generated_Source\PSoC4/BLE_1.c ****         CyBle_RscsInit();
 313:.\Generated_Source\PSoC4/BLE_1.c ****     #endif /* CYBLE_RSCS */
 314:.\Generated_Source\PSoC4/BLE_1.c **** 
 315:.\Generated_Source\PSoC4/BLE_1.c ****     #ifdef CYBLE_RTUS
 316:.\Generated_Source\PSoC4/BLE_1.c ****         CyBle_RtusInit();
 317:.\Generated_Source\PSoC4/BLE_1.c ****     #endif /* CYBLE_RTUS */
 318:.\Generated_Source\PSoC4/BLE_1.c **** 
ARM GAS  C:\Users\Ecapable\AppData\Local\Temp\ccZwSw0g.s 			page 10


 319:.\Generated_Source\PSoC4/BLE_1.c ****     #ifdef CYBLE_SCPS
 320:.\Generated_Source\PSoC4/BLE_1.c ****         CyBle_ScpsInit();
 321:.\Generated_Source\PSoC4/BLE_1.c ****     #endif /* CYBLE_SCPS */
 322:.\Generated_Source\PSoC4/BLE_1.c ****     
 323:.\Generated_Source\PSoC4/BLE_1.c ****     #ifdef CYBLE_TPS
 324:.\Generated_Source\PSoC4/BLE_1.c ****         CyBle_TpsInit();
 325:.\Generated_Source\PSoC4/BLE_1.c ****     #endif /* CYBLE_TPS */
 326:.\Generated_Source\PSoC4/BLE_1.c ****     
 327:.\Generated_Source\PSoC4/BLE_1.c ****     #ifdef CYBLE_UDS
 328:.\Generated_Source\PSoC4/BLE_1.c ****         CyBle_UdsInit();
 329:.\Generated_Source\PSoC4/BLE_1.c ****     #endif /* CYBLE_UDS */
 330:.\Generated_Source\PSoC4/BLE_1.c **** 
 331:.\Generated_Source\PSoC4/BLE_1.c ****     #ifdef CYBLE_WPTS
 332:.\Generated_Source\PSoC4/BLE_1.c ****         CyBle_WptsInit();
 333:.\Generated_Source\PSoC4/BLE_1.c ****     #endif /* CYBLE_WPTS */
 334:.\Generated_Source\PSoC4/BLE_1.c **** 
 335:.\Generated_Source\PSoC4/BLE_1.c ****     #ifdef CYBLE_WSS
 336:.\Generated_Source\PSoC4/BLE_1.c ****         CyBle_WssInit();
 337:.\Generated_Source\PSoC4/BLE_1.c ****     #endif /* CYBLE_WSS */
 338:.\Generated_Source\PSoC4/BLE_1.c **** }
 188              		.loc 1 338 0
 189 0008 BD46     		mov	sp, r7
 190              		@ sp needed
 191 000a 80BD     		pop	{r7, pc}
 192              		.cfi_endproc
 193              	.LFE3:
 194              		.size	CyBle_ServiceInit, .-CyBle_ServiceInit
 195              		.section	.rodata
 196              		.align	2
 197              	.LC0:
 198 0000 2400     		.short	36
 199 0002 03       		.byte	3
 200 0003 00       		.space	1
 201 0004 3000     		.short	48
 202 0006 01       		.byte	1
 203 0007 00       		.space	1
 204 0008 2800     		.short	40
 205 000a 02       		.byte	2
 206 000b 00       		.space	1
 207 000c 2400     		.short	36
 208 000e 01       		.byte	1
 209 000f 00       		.space	1
 210 0010 2400     		.short	36
 211 0012 01       		.byte	1
 212 0013 00       		.space	1
 213              		.section	.text.CyBle_Start,"ax",%progbits
 214              		.align	2
 215              		.global	CyBle_Start
 216              		.code	16
 217              		.thumb_func
 218              		.type	CyBle_Start, %function
 219              	CyBle_Start:
 220              	.LFB4:
 339:.\Generated_Source\PSoC4/BLE_1.c **** 
 340:.\Generated_Source\PSoC4/BLE_1.c **** 
 341:.\Generated_Source\PSoC4/BLE_1.c **** /******************************************************************************
 342:.\Generated_Source\PSoC4/BLE_1.c **** * Function Name: CyBle_Start
ARM GAS  C:\Users\Ecapable\AppData\Local\Temp\ccZwSw0g.s 			page 11


 343:.\Generated_Source\PSoC4/BLE_1.c **** ***************************************************************************//**
 344:.\Generated_Source\PSoC4/BLE_1.c **** * 
 345:.\Generated_Source\PSoC4/BLE_1.c **** *  This function initializes the BLE Stack, which consists of the BLE Stack 
 346:.\Generated_Source\PSoC4/BLE_1.c **** *  Manager, BLE Controller, and BLE Host modules. It takes care of initializing
 347:.\Generated_Source\PSoC4/BLE_1.c **** *  the Profile layer, schedulers, Timer and other platform related
 348:.\Generated_Source\PSoC4/BLE_1.c **** *  resources required for the BLE component. It also registers the callback 
 349:.\Generated_Source\PSoC4/BLE_1.c **** *  function for BLE events that will be registered in the BLE stack.
 350:.\Generated_Source\PSoC4/BLE_1.c **** * 
 351:.\Generated_Source\PSoC4/BLE_1.c **** *  Note that this function does not reset the BLE Stack.
 352:.\Generated_Source\PSoC4/BLE_1.c **** * 
 353:.\Generated_Source\PSoC4/BLE_1.c **** *  For HCI-Mode of operation, this function will not initialize the BLE Host 
 354:.\Generated_Source\PSoC4/BLE_1.c **** *  module.
 355:.\Generated_Source\PSoC4/BLE_1.c **** * 
 356:.\Generated_Source\PSoC4/BLE_1.c **** *  Calling this function results in the generation of CYBLE_EVT_STACK_ON event
 357:.\Generated_Source\PSoC4/BLE_1.c **** *  on successful initialization of the BLE Stack.
 358:.\Generated_Source\PSoC4/BLE_1.c **** * 
 359:.\Generated_Source\PSoC4/BLE_1.c **** *  \param callbackFunc: Event callback function to receive events from BLE stack.
 360:.\Generated_Source\PSoC4/BLE_1.c **** *   CYBLE_CALLBACK_T is a function pointer type.
 361:.\Generated_Source\PSoC4/BLE_1.c **** * 
 362:.\Generated_Source\PSoC4/BLE_1.c **** * \return
 363:.\Generated_Source\PSoC4/BLE_1.c **** *  CYBLE_API_RESULT_T : Return value indicates if the function succeeded or 
 364:.\Generated_Source\PSoC4/BLE_1.c **** *  failed. Following are the possible error codes.
 365:.\Generated_Source\PSoC4/BLE_1.c **** * 
 366:.\Generated_Source\PSoC4/BLE_1.c **** *   <table>
 367:.\Generated_Source\PSoC4/BLE_1.c **** *  	  <tr>
 368:.\Generated_Source\PSoC4/BLE_1.c **** *       <th>Error codes</th>
 369:.\Generated_Source\PSoC4/BLE_1.c **** *       <th>Description</th>
 370:.\Generated_Source\PSoC4/BLE_1.c **** *     </tr>
 371:.\Generated_Source\PSoC4/BLE_1.c **** *     <tr>
 372:.\Generated_Source\PSoC4/BLE_1.c **** *       <td>CYBLE_ERROR_OK</td>
 373:.\Generated_Source\PSoC4/BLE_1.c **** *       <td>On successful operation.</td>
 374:.\Generated_Source\PSoC4/BLE_1.c **** *     </tr>
 375:.\Generated_Source\PSoC4/BLE_1.c **** *     <tr>
 376:.\Generated_Source\PSoC4/BLE_1.c **** *       <td>CYBLE_ERROR_INVALID_PARAMETER</td>
 377:.\Generated_Source\PSoC4/BLE_1.c **** *       <td>On passing a NULL pointer to the function when the BLE stack is not built in HCI mode. 
 378:.\Generated_Source\PSoC4/BLE_1.c **** *			CYBLE_ERROR_INVALID_PARAMETER is never returned in HCI mode.</td>
 379:.\Generated_Source\PSoC4/BLE_1.c **** *     </tr>
 380:.\Generated_Source\PSoC4/BLE_1.c **** *     <tr>
 381:.\Generated_Source\PSoC4/BLE_1.c **** *       <td>CYBLE_ERROR_REPEATED_ATTEMPTS</td>
 382:.\Generated_Source\PSoC4/BLE_1.c **** *       <td>On invoking this function more than once without calling CyBle_Shutdown() 
 383:.\Generated_Source\PSoC4/BLE_1.c **** *           function between calls to this function.</td>
 384:.\Generated_Source\PSoC4/BLE_1.c **** *     </tr>
 385:.\Generated_Source\PSoC4/BLE_1.c **** *     <tr>
 386:.\Generated_Source\PSoC4/BLE_1.c **** *       <td>CYBLE_ERROR_MEMORY_ALLOCATION_FAILED</td>
 387:.\Generated_Source\PSoC4/BLE_1.c **** *       <td>There is insufficient memory available.</td>
 388:.\Generated_Source\PSoC4/BLE_1.c **** *     </tr>
 389:.\Generated_Source\PSoC4/BLE_1.c **** *   </table>
 390:.\Generated_Source\PSoC4/BLE_1.c **** * 
 391:.\Generated_Source\PSoC4/BLE_1.c **** *  \globalvars
 392:.\Generated_Source\PSoC4/BLE_1.c **** *   The CyBle_initVar variable is used to indicate initial
 393:.\Generated_Source\PSoC4/BLE_1.c **** *   configuration of this component. The variable is initialized to zero (0u)
 394:.\Generated_Source\PSoC4/BLE_1.c **** *   and set to one (1u) the first time CyBle_Start() is called. This
 395:.\Generated_Source\PSoC4/BLE_1.c **** *   allows for component initialization without re-initialization in all
 396:.\Generated_Source\PSoC4/BLE_1.c **** *   subsequent calls to the CyBle_Start() routine.
 397:.\Generated_Source\PSoC4/BLE_1.c **** * 
 398:.\Generated_Source\PSoC4/BLE_1.c **** ******************************************************************************/
 399:.\Generated_Source\PSoC4/BLE_1.c **** CYBLE_API_RESULT_T CyBle_Start(CYBLE_CALLBACK_T callbackFunc)
ARM GAS  C:\Users\Ecapable\AppData\Local\Temp\ccZwSw0g.s 			page 12


 400:.\Generated_Source\PSoC4/BLE_1.c **** {
 221              		.loc 1 400 0
 222              		.cfi_startproc
 223 0000 B0B5     		push	{r4, r5, r7, lr}
 224              		.cfi_def_cfa_offset 16
 225              		.cfi_offset 4, -16
 226              		.cfi_offset 5, -12
 227              		.cfi_offset 7, -8
 228              		.cfi_offset 14, -4
 229 0002 94B0     		sub	sp, sp, #80
 230              		.cfi_def_cfa_offset 96
 231 0004 04AF     		add	r7, sp, #16
 232              		.cfi_def_cfa 7, 80
 233 0006 7860     		str	r0, [r7, #4]
 401:.\Generated_Source\PSoC4/BLE_1.c ****     CYBLE_API_RESULT_T apiResult = CYBLE_ERROR_OK;
 234              		.loc 1 401 0
 235 0008 3E23     		mov	r3, #62
 236 000a FB18     		add	r3, r7, r3
 237 000c 0022     		mov	r2, #0
 238 000e 1A80     		strh	r2, [r3]
 402:.\Generated_Source\PSoC4/BLE_1.c ****     
 403:.\Generated_Source\PSoC4/BLE_1.c ****     #if(CYBLE_MODE_PROFILE)
 404:.\Generated_Source\PSoC4/BLE_1.c ****     
 405:.\Generated_Source\PSoC4/BLE_1.c ****     CYBLE_STK_APP_DATA_BUFF_T cyBle_stackDataBuff[CYBLE_STACK_APP_MIN_POOL] = 
 239              		.loc 1 405 0
 240 0010 2823     		mov	r3, #40
 241 0012 FA18     		add	r2, r7, r3
 242 0014 3E4B     		ldr	r3, .L12
 243 0016 111C     		mov	r1, r2
 244 0018 1A1C     		mov	r2, r3
 245 001a 1423     		mov	r3, #20
 246 001c 081C     		mov	r0, r1
 247 001e 111C     		mov	r1, r2
 248 0020 1A1C     		mov	r2, r3
 249 0022 FFF7FEFF 		bl	memcpy
 406:.\Generated_Source\PSoC4/BLE_1.c ****     {
 407:.\Generated_Source\PSoC4/BLE_1.c ****         {CYBLE_GATT_MTU_PLUS_L2CAP_MEM_EXT, CYBLE_GATT_MTU_BUFF_COUNT + CYBLE_GATT_MAX_ATTR_BUFF_CO
 408:.\Generated_Source\PSoC4/BLE_1.c ****         {CYBLE_L2CAP_PSM_PLUS_L2CAP_MEM_EXT, CYBLE_L2CAP_PSM_COUNT},
 409:.\Generated_Source\PSoC4/BLE_1.c ****         {CYBLE_L2CAP_CBFC_PLUS_L2CAP_MEM_EXT, 2u * CYBLE_L2CAP_LOGICAL_CHANNEL_COUNT},
 410:.\Generated_Source\PSoC4/BLE_1.c ****         {CYBLE_L2CAP_MTU_PLUS_L2CAP_MEM_EXT, CYBLE_L2CAP_LOGICAL_CHANNEL_COUNT},
 411:.\Generated_Source\PSoC4/BLE_1.c ****         {CYBLE_L2CAP_MPS_PLUS_L2CAP_MEM_EXT, CYBLE_L2CAP_LOGICAL_CHANNEL_COUNT * (CYBLE_L2CAP_MTU_M
 412:.\Generated_Source\PSoC4/BLE_1.c ****     }; 
 413:.\Generated_Source\PSoC4/BLE_1.c **** 
 414:.\Generated_Source\PSoC4/BLE_1.c ****     #endif /* CYBLE_MODE_PROFILE */
 415:.\Generated_Source\PSoC4/BLE_1.c ****     
 416:.\Generated_Source\PSoC4/BLE_1.c ****     /* If not initialized then initialize all the required hardware and software */
 417:.\Generated_Source\PSoC4/BLE_1.c ****     if(cyBle_initVar == 0u)
 250              		.loc 1 417 0
 251 0026 3B4B     		ldr	r3, .L12+4
 252 0028 1B78     		ldrb	r3, [r3]
 253 002a 002B     		cmp	r3, #0
 254 002c 04D1     		bne	.L6
 418:.\Generated_Source\PSoC4/BLE_1.c ****     {
 419:.\Generated_Source\PSoC4/BLE_1.c ****         CyBle_Init();
 255              		.loc 1 419 0
 256 002e FFF7FEFF 		bl	CyBle_Init
 420:.\Generated_Source\PSoC4/BLE_1.c ****         cyBle_initVar = 1u;
ARM GAS  C:\Users\Ecapable\AppData\Local\Temp\ccZwSw0g.s 			page 13


 257              		.loc 1 420 0
 258 0032 384B     		ldr	r3, .L12+4
 259 0034 0122     		mov	r2, #1
 260 0036 1A70     		strb	r2, [r3]
 261              	.L6:
 421:.\Generated_Source\PSoC4/BLE_1.c ****     }
 422:.\Generated_Source\PSoC4/BLE_1.c ****     
 423:.\Generated_Source\PSoC4/BLE_1.c ****     if(callbackFunc != NULL)
 262              		.loc 1 423 0
 263 0038 7B68     		ldr	r3, [r7, #4]
 264 003a 002B     		cmp	r3, #0
 265 003c 5CD0     		beq	.L7
 424:.\Generated_Source\PSoC4/BLE_1.c ****     {
 425:.\Generated_Source\PSoC4/BLE_1.c ****         CyBle_ApplCallback = callbackFunc;
 266              		.loc 1 425 0
 267 003e 364B     		ldr	r3, .L12+8
 268 0040 7A68     		ldr	r2, [r7, #4]
 269 0042 1A60     		str	r2, [r3]
 426:.\Generated_Source\PSoC4/BLE_1.c ****         
 427:.\Generated_Source\PSoC4/BLE_1.c ****     #if(CYBLE_SHARING_MODE_EXPORT)
 428:.\Generated_Source\PSoC4/BLE_1.c ****         if(cyBle_stackMemoryRam == NULL)
 429:.\Generated_Source\PSoC4/BLE_1.c ****         {
 430:.\Generated_Source\PSoC4/BLE_1.c ****             cyBle_stackMemoryRam = (uint8 *)malloc(CYBLE_STACK_RAM_SIZE);
 431:.\Generated_Source\PSoC4/BLE_1.c ****             if(cyBle_stackMemoryRam == NULL)
 432:.\Generated_Source\PSoC4/BLE_1.c ****             {
 433:.\Generated_Source\PSoC4/BLE_1.c ****                 apiResult = CYBLE_ERROR_MEMORY_ALLOCATION_FAILED;
 434:.\Generated_Source\PSoC4/BLE_1.c ****             }
 435:.\Generated_Source\PSoC4/BLE_1.c ****         }
 436:.\Generated_Source\PSoC4/BLE_1.c ****     #endif /* CYBLE_SHARING_MODE_EXPORT */
 437:.\Generated_Source\PSoC4/BLE_1.c ****         if(apiResult == CYBLE_ERROR_OK)
 270              		.loc 1 437 0
 271 0044 3E23     		mov	r3, #62
 272 0046 FB18     		add	r3, r7, r3
 273 0048 1B88     		ldrh	r3, [r3]
 274 004a 002B     		cmp	r3, #0
 275 004c 29D1     		bne	.L8
 276              	.LBB2:
 438:.\Generated_Source\PSoC4/BLE_1.c ****         {
 439:.\Generated_Source\PSoC4/BLE_1.c ****             CYBLE_DLE_CONFIG_PARAM_T dleConfigParams;
 440:.\Generated_Source\PSoC4/BLE_1.c ****             CYBLE_PRIVACY_1_2_CONFIG_PARAM_T privacyConfigParams;
 441:.\Generated_Source\PSoC4/BLE_1.c ****             CYBLE_STACK_CONFIG_PARAM_T stackConfig;
 442:.\Generated_Source\PSoC4/BLE_1.c ****             uint16 featureHeapReq;
 443:.\Generated_Source\PSoC4/BLE_1.c ****             
 444:.\Generated_Source\PSoC4/BLE_1.c ****             stackConfig.privacyConfig = &privacyConfigParams;
 277              		.loc 1 444 0
 278 004e 1023     		mov	r3, #16
 279 0050 FB18     		add	r3, r7, r3
 280 0052 1C22     		mov	r2, #28
 281 0054 BA18     		add	r2, r7, r2
 282 0056 5A60     		str	r2, [r3, #4]
 445:.\Generated_Source\PSoC4/BLE_1.c ****             stackConfig.dleConfig = &dleConfigParams;
 283              		.loc 1 445 0
 284 0058 1023     		mov	r3, #16
 285 005a FB18     		add	r3, r7, r3
 286 005c 2022     		mov	r2, #32
 287 005e BA18     		add	r2, r7, r2
 288 0060 1A60     		str	r2, [r3]
ARM GAS  C:\Users\Ecapable\AppData\Local\Temp\ccZwSw0g.s 			page 14


 446:.\Generated_Source\PSoC4/BLE_1.c ****             
 447:.\Generated_Source\PSoC4/BLE_1.c ****             /* Configure default BLE 4.1 features and enabled 4.2 features */
 448:.\Generated_Source\PSoC4/BLE_1.c ****             stackConfig.feature_mask = CYBLE_DLE_FEATURE | CYBLE_LL_PRIVACY_FEATURE | 
 289              		.loc 1 448 0
 290 0062 1023     		mov	r3, #16
 291 0064 FB18     		add	r3, r7, r3
 292 0066 0022     		mov	r2, #0
 293 0068 1A81     		strh	r2, [r3, #8]
 449:.\Generated_Source\PSoC4/BLE_1.c ****                                        CYBLE_SECURE_CONN_FEATURE;
 450:.\Generated_Source\PSoC4/BLE_1.c **** 
 451:.\Generated_Source\PSoC4/BLE_1.c ****             /* Configure DLE */
 452:.\Generated_Source\PSoC4/BLE_1.c ****             dleConfigParams.dleMaxTxCapability = CYBLE_LL_MAX_TX_PAYLOAD_SIZE;
 294              		.loc 1 452 0
 295 006a 2023     		mov	r3, #32
 296 006c FB18     		add	r3, r7, r3
 297 006e 1B22     		mov	r2, #27
 298 0070 1A80     		strh	r2, [r3]
 453:.\Generated_Source\PSoC4/BLE_1.c ****             dleConfigParams.dleMaxRxCapability = CYBLE_LL_MAX_RX_PAYLOAD_SIZE;
 299              		.loc 1 453 0
 300 0072 2023     		mov	r3, #32
 301 0074 FB18     		add	r3, r7, r3
 302 0076 1B22     		mov	r2, #27
 303 0078 5A80     		strh	r2, [r3, #2]
 454:.\Generated_Source\PSoC4/BLE_1.c ****             dleConfigParams.dleNumTxBuffer = CYBLE_LL_DEFAULT_NUM_ACL_TX_PACKETS;
 304              		.loc 1 454 0
 305 007a 2023     		mov	r3, #32
 306 007c FB18     		add	r3, r7, r3
 307 007e 0422     		mov	r2, #4
 308 0080 1A71     		strb	r2, [r3, #4]
 455:.\Generated_Source\PSoC4/BLE_1.c ****         #if(CYBLE_DLE_FEATURE_ENABLED)
 456:.\Generated_Source\PSoC4/BLE_1.c ****             CyBle_EnableDleFeature();              /* Enable DLE code in stack */
 457:.\Generated_Source\PSoC4/BLE_1.c ****         #endif /* CYBLE_DLE_FEATURE_ENABLED */
 458:.\Generated_Source\PSoC4/BLE_1.c ****         
 459:.\Generated_Source\PSoC4/BLE_1.c ****             /* Configure LL Privacy */
 460:.\Generated_Source\PSoC4/BLE_1.c ****             privacyConfigParams.resolvingListSize = CYBLE_MAX_RESOLVABLE_DEVICES;
 309              		.loc 1 460 0
 310 0082 1C23     		mov	r3, #28
 311 0084 FB18     		add	r3, r7, r3
 312 0086 0022     		mov	r2, #0
 313 0088 1A70     		strb	r2, [r3]
 461:.\Generated_Source\PSoC4/BLE_1.c ****         #if(CYBLE_LL_PRIVACY_FEATURE_ENABLED)
 462:.\Generated_Source\PSoC4/BLE_1.c ****             CyBle_EnablePrivacyFeature();          /* Enable LL Privacy code in stack */
 463:.\Generated_Source\PSoC4/BLE_1.c ****         #endif /* CYBLE_LL_PRIVACY_FEATURE_ENABLED */
 464:.\Generated_Source\PSoC4/BLE_1.c **** 
 465:.\Generated_Source\PSoC4/BLE_1.c ****             apiResult = CyBle_StackSetFeatureConfig(&stackConfig, &featureHeapReq);
 314              		.loc 1 465 0
 315 008a 3E23     		mov	r3, #62
 316 008c FC18     		add	r4, r7, r3
 317 008e 1023     		mov	r3, #16
 318 0090 FA18     		add	r2, r7, r3
 319 0092 0E23     		mov	r3, #14
 320 0094 FB18     		add	r3, r7, r3
 321 0096 101C     		mov	r0, r2
 322 0098 191C     		mov	r1, r3
 323 009a FFF7FEFF 		bl	CyBle_StackSetFeatureConfig
 324 009e 031C     		mov	r3, r0
 325 00a0 2380     		strh	r3, [r4]
ARM GAS  C:\Users\Ecapable\AppData\Local\Temp\ccZwSw0g.s 			page 15


 326              	.L8:
 327              	.LBE2:
 466:.\Generated_Source\PSoC4/BLE_1.c ****             }
 467:.\Generated_Source\PSoC4/BLE_1.c ****     
 468:.\Generated_Source\PSoC4/BLE_1.c ****         if(apiResult == CYBLE_ERROR_OK)
 328              		.loc 1 468 0
 329 00a2 3E23     		mov	r3, #62
 330 00a4 FB18     		add	r3, r7, r3
 331 00a6 1B88     		ldrh	r3, [r3]
 332 00a8 002B     		cmp	r3, #0
 333 00aa 29D1     		bne	.L10
 469:.\Generated_Source\PSoC4/BLE_1.c ****         {
 470:.\Generated_Source\PSoC4/BLE_1.c ****             
 471:.\Generated_Source\PSoC4/BLE_1.c ****         #if(CYBLE_MODE_PROFILE)
 472:.\Generated_Source\PSoC4/BLE_1.c ****             #if(CYBLE_BONDING_REQUIREMENT == CYBLE_BONDING_YES)
 473:.\Generated_Source\PSoC4/BLE_1.c ****                 apiResult = CyBle_StackInit(&CyBle_EventHandler, cyBle_stackMemoryRam, 
 474:.\Generated_Source\PSoC4/BLE_1.c ****                     CYBLE_STACK_RAM_SIZE - CYBLE_GATT_PREPARE_WRITE_BUFF_LEN, cyBle_stackDataBuff, 
 475:.\Generated_Source\PSoC4/BLE_1.c ****                     CYBLE_STACK_APP_MIN_POOL, cyBle_flashStorage.stackFlashptr, CYBLE_STACK_FLASH_S
 476:.\Generated_Source\PSoC4/BLE_1.c ****             #else
 477:.\Generated_Source\PSoC4/BLE_1.c ****                 apiResult = CyBle_StackInit(&CyBle_EventHandler, cyBle_stackMemoryRam, 
 334              		.loc 1 477 0
 335 00ac 3E23     		mov	r3, #62
 336 00ae FC18     		add	r4, r7, r3
 337 00b0 1A48     		ldr	r0, .L12+12
 338 00b2 1B49     		ldr	r1, .L12+16
 339 00b4 AE23     		mov	r3, #174
 340 00b6 1A01     		lsl	r2, r3, #4
 341 00b8 2823     		mov	r3, #40
 342 00ba FD18     		add	r5, r7, r3
 343 00bc 0523     		mov	r3, #5
 344 00be 0093     		str	r3, [sp]
 345 00c0 0023     		mov	r3, #0
 346 00c2 0193     		str	r3, [sp, #4]
 347 00c4 0023     		mov	r3, #0
 348 00c6 0293     		str	r3, [sp, #8]
 349 00c8 2B1C     		mov	r3, r5
 350 00ca FFF7FEFF 		bl	CyBle_StackInit
 351 00ce 031C     		mov	r3, r0
 352 00d0 2380     		strh	r3, [r4]
 478:.\Generated_Source\PSoC4/BLE_1.c ****                     CYBLE_STACK_RAM_SIZE - CYBLE_GATT_PREPARE_WRITE_BUFF_LEN, cyBle_stackDataBuff, 
 479:.\Generated_Source\PSoC4/BLE_1.c ****                     CYBLE_STACK_APP_MIN_POOL, NULL, 0u);
 480:.\Generated_Source\PSoC4/BLE_1.c ****             #endif  /* CYBLE_BONDING_REQUIREMENT == CYBLE_BONDING_YES */
 481:.\Generated_Source\PSoC4/BLE_1.c ****         #else
 482:.\Generated_Source\PSoC4/BLE_1.c ****             apiResult = CyBle_StackInit(&CyBle_EventHandler, cyBle_stackMemoryRam, CYBLE_STACK_RAM_
 483:.\Generated_Source\PSoC4/BLE_1.c ****                 NULL, 0u, NULL, 0u);
 484:.\Generated_Source\PSoC4/BLE_1.c ****         #endif /* CYBLE_MODE_PROFILE */
 485:.\Generated_Source\PSoC4/BLE_1.c **** 
 486:.\Generated_Source\PSoC4/BLE_1.c ****             if(apiResult == CYBLE_ERROR_OK)
 353              		.loc 1 486 0
 354 00d2 3E23     		mov	r3, #62
 355 00d4 FB18     		add	r3, r7, r3
 356 00d6 1B88     		ldrh	r3, [r3]
 357 00d8 002B     		cmp	r3, #0
 358 00da 11D1     		bne	.L10
 487:.\Generated_Source\PSoC4/BLE_1.c ****             {
 488:.\Generated_Source\PSoC4/BLE_1.c ****                 CyBle_SetState(CYBLE_STATE_INITIALIZING);
 359              		.loc 1 488 0
ARM GAS  C:\Users\Ecapable\AppData\Local\Temp\ccZwSw0g.s 			page 16


 360 00dc 114B     		ldr	r3, .L12+20
 361 00de 0122     		mov	r2, #1
 362 00e0 1A70     		strb	r2, [r3]
 489:.\Generated_Source\PSoC4/BLE_1.c ****                 
 490:.\Generated_Source\PSoC4/BLE_1.c ****             #if (CYBLE_GATT_ROLE_CLIENT)
 491:.\Generated_Source\PSoC4/BLE_1.c ****                 CyBle_SetClientState(CYBLE_CLIENT_STATE_DISCONNECTED);
 492:.\Generated_Source\PSoC4/BLE_1.c ****             #endif /* CYBLE_GATT_ROLE_CLIENT */
 493:.\Generated_Source\PSoC4/BLE_1.c ****                 
 494:.\Generated_Source\PSoC4/BLE_1.c ****             #if(CYBLE_GATT_ROLE_SERVER)
 495:.\Generated_Source\PSoC4/BLE_1.c ****                 apiResult = CyBle_GattsDbRegister(cyBle_gattDB, CYBLE_GATT_DB_INDEX_COUNT, CYBLE_GA
 363              		.loc 1 495 0
 364 00e2 3E23     		mov	r3, #62
 365 00e4 FC18     		add	r4, r7, r3
 366 00e6 104B     		ldr	r3, .L12+24
 367 00e8 181C     		mov	r0, r3
 368 00ea 1621     		mov	r1, #22
 369 00ec 1022     		mov	r2, #16
 370 00ee FFF7FEFF 		bl	CyBle_GattsDbRegister
 371 00f2 031C     		mov	r3, r0
 372 00f4 2380     		strh	r3, [r4]
 373 00f6 03E0     		b	.L10
 374              	.L7:
 496:.\Generated_Source\PSoC4/BLE_1.c ****             #endif /* CYBLE_GATT_ROLE_SERVER */
 497:.\Generated_Source\PSoC4/BLE_1.c ****             }
 498:.\Generated_Source\PSoC4/BLE_1.c ****         }
 499:.\Generated_Source\PSoC4/BLE_1.c ****     }
 500:.\Generated_Source\PSoC4/BLE_1.c ****     else
 501:.\Generated_Source\PSoC4/BLE_1.c ****     {
 502:.\Generated_Source\PSoC4/BLE_1.c ****         apiResult = CYBLE_ERROR_INVALID_PARAMETER;
 375              		.loc 1 502 0
 376 00f8 3E23     		mov	r3, #62
 377 00fa FB18     		add	r3, r7, r3
 378 00fc 0122     		mov	r2, #1
 379 00fe 1A80     		strh	r2, [r3]
 380              	.L10:
 503:.\Generated_Source\PSoC4/BLE_1.c ****     }
 504:.\Generated_Source\PSoC4/BLE_1.c **** 
 505:.\Generated_Source\PSoC4/BLE_1.c ****     return (apiResult);
 381              		.loc 1 505 0
 382 0100 3E23     		mov	r3, #62
 383 0102 FB18     		add	r3, r7, r3
 384 0104 1B88     		ldrh	r3, [r3]
 506:.\Generated_Source\PSoC4/BLE_1.c **** }
 385              		.loc 1 506 0
 386 0106 181C     		mov	r0, r3
 387 0108 BD46     		mov	sp, r7
 388 010a 10B0     		add	sp, sp, #64
 389              		@ sp needed
 390 010c B0BD     		pop	{r4, r5, r7, pc}
 391              	.L13:
 392 010e C046     		.align	2
 393              	.L12:
 394 0110 00000000 		.word	.LC0
 395 0114 00000000 		.word	cyBle_initVar
 396 0118 00000000 		.word	CyBle_ApplCallback
 397 011c 00000000 		.word	CyBle_EventHandler
 398 0120 00000000 		.word	cyBle_stackMemoryRam
ARM GAS  C:\Users\Ecapable\AppData\Local\Temp\ccZwSw0g.s 			page 17


 399 0124 00000000 		.word	cyBle_state
 400 0128 00000000 		.word	cyBle_gattDB
 401              		.cfi_endproc
 402              	.LFE4:
 403              		.size	CyBle_Start, .-CyBle_Start
 404              		.section	.text.CyBle_Stop,"ax",%progbits
 405              		.align	2
 406              		.global	CyBle_Stop
 407              		.code	16
 408              		.thumb_func
 409              		.type	CyBle_Stop, %function
 410              	CyBle_Stop:
 411              	.LFB5:
 507:.\Generated_Source\PSoC4/BLE_1.c **** 
 508:.\Generated_Source\PSoC4/BLE_1.c **** 
 509:.\Generated_Source\PSoC4/BLE_1.c **** /******************************************************************************
 510:.\Generated_Source\PSoC4/BLE_1.c **** * Function Name: CyBle_Stop
 511:.\Generated_Source\PSoC4/BLE_1.c **** ***************************************************************************//**
 512:.\Generated_Source\PSoC4/BLE_1.c **** * 
 513:.\Generated_Source\PSoC4/BLE_1.c **** *  This function stops any ongoing operation in the BLE Stack and forces the 
 514:.\Generated_Source\PSoC4/BLE_1.c **** *  BLE Stack to shut down. The only function that can be called after calling
 515:.\Generated_Source\PSoC4/BLE_1.c **** *  this function is CyBle_Start(). 
 516:.\Generated_Source\PSoC4/BLE_1.c **** * 
 517:.\Generated_Source\PSoC4/BLE_1.c **** * \return
 518:.\Generated_Source\PSoC4/BLE_1.c **** *  None
 519:.\Generated_Source\PSoC4/BLE_1.c **** * 
 520:.\Generated_Source\PSoC4/BLE_1.c **** ******************************************************************************/
 521:.\Generated_Source\PSoC4/BLE_1.c **** void CyBle_Stop(void)
 522:.\Generated_Source\PSoC4/BLE_1.c **** {
 412              		.loc 1 522 0
 413              		.cfi_startproc
 414 0000 80B5     		push	{r7, lr}
 415              		.cfi_def_cfa_offset 8
 416              		.cfi_offset 7, -8
 417              		.cfi_offset 14, -4
 418 0002 00AF     		add	r7, sp, #0
 419              		.cfi_def_cfa_register 7
 523:.\Generated_Source\PSoC4/BLE_1.c ****     CyBle_Shutdown();                         /* Stop all ongoing activities */
 420              		.loc 1 523 0
 421 0004 FFF7FEFF 		bl	CyBle_Shutdown
 524:.\Generated_Source\PSoC4/BLE_1.c ****     CyBle_SetState(CYBLE_STATE_STOPPED);
 422              		.loc 1 524 0
 423 0008 024B     		ldr	r3, .L15
 424 000a 0022     		mov	r2, #0
 425 000c 1A70     		strb	r2, [r3]
 525:.\Generated_Source\PSoC4/BLE_1.c ****     #if(CYBLE_SHARING_MODE_EXPORT)
 526:.\Generated_Source\PSoC4/BLE_1.c ****         if(cyBle_stackMemoryRam != NULL)
 527:.\Generated_Source\PSoC4/BLE_1.c ****         {
 528:.\Generated_Source\PSoC4/BLE_1.c ****             free(cyBle_stackMemoryRam);
 529:.\Generated_Source\PSoC4/BLE_1.c ****         }
 530:.\Generated_Source\PSoC4/BLE_1.c ****     #endif /* CYBLE_SHARING_MODE_EXPORT */
 531:.\Generated_Source\PSoC4/BLE_1.c **** }
 426              		.loc 1 531 0
 427 000e BD46     		mov	sp, r7
 428              		@ sp needed
 429 0010 80BD     		pop	{r7, pc}
 430              	.L16:
ARM GAS  C:\Users\Ecapable\AppData\Local\Temp\ccZwSw0g.s 			page 18


 431 0012 C046     		.align	2
 432              	.L15:
 433 0014 00000000 		.word	cyBle_state
 434              		.cfi_endproc
 435              	.LFE5:
 436              		.size	CyBle_Stop, .-CyBle_Stop
 437              		.section	.text.CyBle_GappStartAdvertisement,"ax",%progbits
 438              		.align	2
 439              		.global	CyBle_GappStartAdvertisement
 440              		.code	16
 441              		.thumb_func
 442              		.type	CyBle_GappStartAdvertisement, %function
 443              	CyBle_GappStartAdvertisement:
 444              	.LFB6:
 532:.\Generated_Source\PSoC4/BLE_1.c **** 
 533:.\Generated_Source\PSoC4/BLE_1.c **** 
 534:.\Generated_Source\PSoC4/BLE_1.c **** #if((CYBLE_GAP_ROLE_PERIPHERAL || CYBLE_GAP_ROLE_CENTRAL) && (CYBLE_BONDING_REQUIREMENT == CYBLE_BO
 535:.\Generated_Source\PSoC4/BLE_1.c **** 
 536:.\Generated_Source\PSoC4/BLE_1.c ****     
 537:.\Generated_Source\PSoC4/BLE_1.c **** /******************************************************************************
 538:.\Generated_Source\PSoC4/BLE_1.c **** * Function Name: CyBle_StoreBondingData
 539:.\Generated_Source\PSoC4/BLE_1.c **** ***************************************************************************//**
 540:.\Generated_Source\PSoC4/BLE_1.c **** * 
 541:.\Generated_Source\PSoC4/BLE_1.c **** *  This function writes the new bonding data from RAM to the dedicated Flash 
 542:.\Generated_Source\PSoC4/BLE_1.c **** *  location as defined by the component. It performs data comparing between RAM
 543:.\Generated_Source\PSoC4/BLE_1.c **** *  and Flash before writing to Flash. If there is no change between RAM and Flash
 544:.\Generated_Source\PSoC4/BLE_1.c **** *  data, then no write is performed. It writes only one flash row in one call.
 545:.\Generated_Source\PSoC4/BLE_1.c **** *  Application should keep calling this function till API return CYBLE_ERROR_OK. 
 546:.\Generated_Source\PSoC4/BLE_1.c **** *  This function is available only when Bonding requirement is selected in
 547:.\Generated_Source\PSoC4/BLE_1.c **** *  Security settings.    
 548:.\Generated_Source\PSoC4/BLE_1.c **** * 
 549:.\Generated_Source\PSoC4/BLE_1.c **** *  \param isForceWrite:  If value is set to 0, then stack will check if flash write 
 550:.\Generated_Source\PSoC4/BLE_1.c **** *                 is permissible. 
 551:.\Generated_Source\PSoC4/BLE_1.c **** *  
 552:.\Generated_Source\PSoC4/BLE_1.c **** * \return
 553:.\Generated_Source\PSoC4/BLE_1.c **** *  Return value is of type CYBLE_API_RESULT_T.
 554:.\Generated_Source\PSoC4/BLE_1.c **** *
 555:.\Generated_Source\PSoC4/BLE_1.c **** *   Errors codes                         | Description
 556:.\Generated_Source\PSoC4/BLE_1.c **** *   ----------------------------------   | ------------------------------------
 557:.\Generated_Source\PSoC4/BLE_1.c **** *   CYBLE_ERROR_OK                       | On successful operation
 558:.\Generated_Source\PSoC4/BLE_1.c **** *   CYBLE_ERROR_FLASH_WRITE_NOT_PERMITED | Flash Write is not complete
 559:.\Generated_Source\PSoC4/BLE_1.c **** *    
 560:.\Generated_Source\PSoC4/BLE_1.c **** *  \sideeffect
 561:.\Generated_Source\PSoC4/BLE_1.c **** *   For BLE devices with 128K of Flash memory this API will automatically 
 562:.\Generated_Source\PSoC4/BLE_1.c **** *   modify the clock settings for the device.
 563:.\Generated_Source\PSoC4/BLE_1.c **** *   Writing to flash requires changes to be done to the IMO (set to 48 MHz)
 564:.\Generated_Source\PSoC4/BLE_1.c **** *   and HFCLK (source set to IMO) settings. The configuration is restored before
 565:.\Generated_Source\PSoC4/BLE_1.c **** *   returning. This will impact the operation of most of the hardware in the
 566:.\Generated_Source\PSoC4/BLE_1.c **** *   device.
 567:.\Generated_Source\PSoC4/BLE_1.c **** * 
 568:.\Generated_Source\PSoC4/BLE_1.c **** *  \globalvars
 569:.\Generated_Source\PSoC4/BLE_1.c **** *   The cyBle_pendingFlashWrite variable is used to detect status
 570:.\Generated_Source\PSoC4/BLE_1.c **** *   of pending write to flash operation for stack data and CCCD.
 571:.\Generated_Source\PSoC4/BLE_1.c **** *   This API automatically clears pending bits after write operation complete.
 572:.\Generated_Source\PSoC4/BLE_1.c **** *     
 573:.\Generated_Source\PSoC4/BLE_1.c **** ******************************************************************************/
 574:.\Generated_Source\PSoC4/BLE_1.c **** CYBLE_API_RESULT_T CyBle_StoreBondingData(uint8 isForceWrite)
ARM GAS  C:\Users\Ecapable\AppData\Local\Temp\ccZwSw0g.s 			page 19


 575:.\Generated_Source\PSoC4/BLE_1.c **** {
 576:.\Generated_Source\PSoC4/BLE_1.c ****     CYBLE_API_RESULT_T apiResult = CYBLE_ERROR_OK;
 577:.\Generated_Source\PSoC4/BLE_1.c ****     
 578:.\Generated_Source\PSoC4/BLE_1.c ****     /* Store Stack data */
 579:.\Generated_Source\PSoC4/BLE_1.c ****     if((cyBle_pendingFlashWrite & CYBLE_PENDING_STACK_FLASH_WRITE_BIT) != 0u)
 580:.\Generated_Source\PSoC4/BLE_1.c ****     {
 581:.\Generated_Source\PSoC4/BLE_1.c ****         apiResult = CyBle_StoreStackData(isForceWrite);
 582:.\Generated_Source\PSoC4/BLE_1.c ****         if(apiResult == CYBLE_ERROR_OK)
 583:.\Generated_Source\PSoC4/BLE_1.c ****         {
 584:.\Generated_Source\PSoC4/BLE_1.c ****             cyBle_pendingFlashWrite &= (uint8)~CYBLE_PENDING_STACK_FLASH_WRITE_BIT;
 585:.\Generated_Source\PSoC4/BLE_1.c ****             /* Change apiResult if there are more pending data to store */
 586:.\Generated_Source\PSoC4/BLE_1.c ****             if((cyBle_pendingFlashWrite & CYBLE_PENDING_CCCD_FLASH_WRITE_BIT) != 0u)
 587:.\Generated_Source\PSoC4/BLE_1.c ****             {
 588:.\Generated_Source\PSoC4/BLE_1.c ****                 apiResult = CYBLE_ERROR_FLASH_WRITE_NOT_PERMITED;
 589:.\Generated_Source\PSoC4/BLE_1.c ****             }
 590:.\Generated_Source\PSoC4/BLE_1.c ****         }
 591:.\Generated_Source\PSoC4/BLE_1.c ****     }
 592:.\Generated_Source\PSoC4/BLE_1.c **** #if(CYBLE_GATT_DB_CCCD_COUNT != 0u)
 593:.\Generated_Source\PSoC4/BLE_1.c ****     /* Store CCCD values */
 594:.\Generated_Source\PSoC4/BLE_1.c ****     if( ((apiResult == CYBLE_ERROR_OK) || (isForceWrite != 0u)) && 
 595:.\Generated_Source\PSoC4/BLE_1.c ****         ((cyBle_pendingFlashWrite & CYBLE_PENDING_CCCD_FLASH_WRITE_BIT) != 0u) &&
 596:.\Generated_Source\PSoC4/BLE_1.c ****         (cyBle_connHandle.bdHandle <= CYBLE_GAP_MAX_BONDED_DEVICE))
 597:.\Generated_Source\PSoC4/BLE_1.c ****     {
 598:.\Generated_Source\PSoC4/BLE_1.c ****         apiResult = CyBle_StoreAppData(cyBle_attValuesCCCD, cyBle_flashStorage.attValuesCCCDFlashMe
 599:.\Generated_Source\PSoC4/BLE_1.c ****                         cyBle_connHandle.bdHandle], CYBLE_GATT_DB_CCCD_COUNT, isForceWrite);
 600:.\Generated_Source\PSoC4/BLE_1.c ****         if(apiResult == CYBLE_ERROR_OK)
 601:.\Generated_Source\PSoC4/BLE_1.c ****         {
 602:.\Generated_Source\PSoC4/BLE_1.c ****             cyBle_pendingFlashWrite &= (uint8)~CYBLE_PENDING_CCCD_FLASH_WRITE_BIT;
 603:.\Generated_Source\PSoC4/BLE_1.c ****         }
 604:.\Generated_Source\PSoC4/BLE_1.c ****     }
 605:.\Generated_Source\PSoC4/BLE_1.c ****     /* Clear requested CCCD values */
 606:.\Generated_Source\PSoC4/BLE_1.c ****     if( ((apiResult == CYBLE_ERROR_OK) || (isForceWrite != 0u)) && 
 607:.\Generated_Source\PSoC4/BLE_1.c ****         ((cyBle_pendingFlashWrite & CYBLE_PENDING_CCCD_FLASH_CLEAR_MASK) != 0u) )
 608:.\Generated_Source\PSoC4/BLE_1.c ****     {
 609:.\Generated_Source\PSoC4/BLE_1.c ****         if((cyBle_pendingFlashWrite & CYBLE_PENDING_CCCD_FLASH_CLEAR_ALL_BIT) != 0u)
 610:.\Generated_Source\PSoC4/BLE_1.c ****         {
 611:.\Generated_Source\PSoC4/BLE_1.c ****             /* Remove cccd values for all bonded devices */
 612:.\Generated_Source\PSoC4/BLE_1.c ****             uint8 defaultValuesCCCD[CYBLE_GAP_MAX_BONDED_DEVICE + 1u][CYBLE_GATT_DB_CCCD_COUNT];
 613:.\Generated_Source\PSoC4/BLE_1.c ****             
 614:.\Generated_Source\PSoC4/BLE_1.c ****             (void)memset(defaultValuesCCCD, 0, sizeof(defaultValuesCCCD));
 615:.\Generated_Source\PSoC4/BLE_1.c **** 
 616:.\Generated_Source\PSoC4/BLE_1.c ****             apiResult = CyBle_StoreAppData((uint8 *)defaultValuesCCCD, 
 617:.\Generated_Source\PSoC4/BLE_1.c ****                 (const uint8 *)cyBle_flashStorage.attValuesCCCDFlashMemory, sizeof(defaultValuesCCC
 618:.\Generated_Source\PSoC4/BLE_1.c ****             if(apiResult == CYBLE_ERROR_OK)
 619:.\Generated_Source\PSoC4/BLE_1.c ****             {
 620:.\Generated_Source\PSoC4/BLE_1.c ****                 cyBle_pendingFlashWrite &= (uint8)~CYBLE_PENDING_CCCD_FLASH_CLEAR_ALL_BIT;
 621:.\Generated_Source\PSoC4/BLE_1.c ****             }
 622:.\Generated_Source\PSoC4/BLE_1.c ****         }
 623:.\Generated_Source\PSoC4/BLE_1.c ****         else /* Remove cccd values for particular device */
 624:.\Generated_Source\PSoC4/BLE_1.c ****         {
 625:.\Generated_Source\PSoC4/BLE_1.c ****             uint8 defaultValuesCCCD[CYBLE_GATT_DB_CCCD_COUNT] = {0u};
 626:.\Generated_Source\PSoC4/BLE_1.c ****             
 627:.\Generated_Source\PSoC4/BLE_1.c ****             apiResult = CyBle_StoreAppData(defaultValuesCCCD, cyBle_flashStorage.attValuesCCCDFlash
 628:.\Generated_Source\PSoC4/BLE_1.c ****                                     cyBle_pendingFlashClearCccdHandle], CYBLE_GATT_DB_CCCD_COUNT, i
 629:.\Generated_Source\PSoC4/BLE_1.c ****             if(apiResult == CYBLE_ERROR_OK)
 630:.\Generated_Source\PSoC4/BLE_1.c ****             {
 631:.\Generated_Source\PSoC4/BLE_1.c ****                 cyBle_pendingFlashWrite &= (uint8)~CYBLE_PENDING_CCCD_FLASH_CLEAR_BIT;
ARM GAS  C:\Users\Ecapable\AppData\Local\Temp\ccZwSw0g.s 			page 20


 632:.\Generated_Source\PSoC4/BLE_1.c ****             }
 633:.\Generated_Source\PSoC4/BLE_1.c ****         }
 634:.\Generated_Source\PSoC4/BLE_1.c ****     }
 635:.\Generated_Source\PSoC4/BLE_1.c **** #endif /* CYBLE_GATT_DB_CCCD_COUNT != 0u */
 636:.\Generated_Source\PSoC4/BLE_1.c ****     return(apiResult);
 637:.\Generated_Source\PSoC4/BLE_1.c **** }
 638:.\Generated_Source\PSoC4/BLE_1.c **** 
 639:.\Generated_Source\PSoC4/BLE_1.c **** 
 640:.\Generated_Source\PSoC4/BLE_1.c **** /******************************************************************************
 641:.\Generated_Source\PSoC4/BLE_1.c **** * Function Name: CyBle_GapRemoveBondedDevice
 642:.\Generated_Source\PSoC4/BLE_1.c **** ***************************************************************************//**
 643:.\Generated_Source\PSoC4/BLE_1.c **** * 
 644:.\Generated_Source\PSoC4/BLE_1.c **** *  This function marks the device untrusted. It removes the bonding information
 645:.\Generated_Source\PSoC4/BLE_1.c **** *  of the device including CCCD values. This function removes device from the
 646:.\Generated_Source\PSoC4/BLE_1.c **** *  white list also when autopopulate white list with bonded devices option is
 647:.\Generated_Source\PSoC4/BLE_1.c **** *  enabled.
 648:.\Generated_Source\PSoC4/BLE_1.c **** * 
 649:.\Generated_Source\PSoC4/BLE_1.c **** *  This function is available only when Bonding requirement is selected in
 650:.\Generated_Source\PSoC4/BLE_1.c **** *  Security settings.    
 651:.\Generated_Source\PSoC4/BLE_1.c **** *
 652:.\Generated_Source\PSoC4/BLE_1.c **** *  \param bdAddr: Pointer to peer device address, of type CYBLE_GAP_BD_ADDR_T.
 653:.\Generated_Source\PSoC4/BLE_1.c **** *                 If device address is set to 0, then all devices shall be
 654:.\Generated_Source\PSoC4/BLE_1.c **** *                 removed from trusted list and white list.
 655:.\Generated_Source\PSoC4/BLE_1.c **** *
 656:.\Generated_Source\PSoC4/BLE_1.c **** * \return
 657:.\Generated_Source\PSoC4/BLE_1.c **** *  CYBLE_API_RESULT_T : Return value indicates if the function succeeded or
 658:.\Generated_Source\PSoC4/BLE_1.c **** *  failed. Following are the possible error codes.
 659:.\Generated_Source\PSoC4/BLE_1.c **** *
 660:.\Generated_Source\PSoC4/BLE_1.c **** *   Errors codes                     | Description
 661:.\Generated_Source\PSoC4/BLE_1.c **** *   ---------------------------------| ------------------------------------
 662:.\Generated_Source\PSoC4/BLE_1.c **** *   CYBLE_ERROR_OK                   | On successful operation.
 663:.\Generated_Source\PSoC4/BLE_1.c **** *   CYBLE_ERROR_INVALID_PARAMETER    | On specifying NULL as input parameter for 'bdAddr'.
 664:.\Generated_Source\PSoC4/BLE_1.c **** *   CYBLE_ERROR_INVALID_OPERATION    | Whitelist is already in use or there is pending write to fla
 665:.\Generated_Source\PSoC4/BLE_1.c **** *   CYBLE_ERROR_NO_DEVICE_ENTITY     | Device does not exist in the bond list.
 666:.\Generated_Source\PSoC4/BLE_1.c **** *
 667:.\Generated_Source\PSoC4/BLE_1.c **** *  \globalvars
 668:.\Generated_Source\PSoC4/BLE_1.c **** *   The bdHandle is set in cyBle_pendingFlashWrite variable to indicate that
 669:.\Generated_Source\PSoC4/BLE_1.c **** *   data should be stored to flash by CyBle_StoreBondingData afterwards. 
 670:.\Generated_Source\PSoC4/BLE_1.c **** *     
 671:.\Generated_Source\PSoC4/BLE_1.c **** ******************************************************************************/
 672:.\Generated_Source\PSoC4/BLE_1.c **** CYBLE_API_RESULT_T CyBle_GapRemoveBondedDevice(CYBLE_GAP_BD_ADDR_T* bdAddr)
 673:.\Generated_Source\PSoC4/BLE_1.c **** {
 674:.\Generated_Source\PSoC4/BLE_1.c ****     CYBLE_API_RESULT_T apiResult = CYBLE_ERROR_OK;
 675:.\Generated_Source\PSoC4/BLE_1.c ****     
 676:.\Generated_Source\PSoC4/BLE_1.c ****     if(cyBle_pendingFlashWrite == 0u)
 677:.\Generated_Source\PSoC4/BLE_1.c ****     {
 678:.\Generated_Source\PSoC4/BLE_1.c ****         
 679:.\Generated_Source\PSoC4/BLE_1.c ****     #if(CYBLE_GATT_DB_CCCD_COUNT != 0u)
 680:.\Generated_Source\PSoC4/BLE_1.c ****         /* Request to clear CCCD values which will be done by CyBle_StoreBondingData API */
 681:.\Generated_Source\PSoC4/BLE_1.c ****         uint8 bDevHandle;
 682:.\Generated_Source\PSoC4/BLE_1.c ****         CYBLE_GAP_BD_ADDR_T invalidBdAddr = {{0u,0u,0u,0u,0u,0u}, 0u};
 683:.\Generated_Source\PSoC4/BLE_1.c **** 
 684:.\Generated_Source\PSoC4/BLE_1.c ****         if(memcmp(((uint8 *) &(bdAddr->bdAddr)), ((uint8 *) &(invalidBdAddr.bdAddr)), CYBLE_GAP_BD_
 685:.\Generated_Source\PSoC4/BLE_1.c **** 	    {
 686:.\Generated_Source\PSoC4/BLE_1.c ****             /* Request to remove all bonded devices by cyBle_StoreBondingData API */
 687:.\Generated_Source\PSoC4/BLE_1.c ****             cyBle_pendingFlashWrite |= CYBLE_PENDING_CCCD_FLASH_CLEAR_ALL_BIT;
 688:.\Generated_Source\PSoC4/BLE_1.c ****         }
ARM GAS  C:\Users\Ecapable\AppData\Local\Temp\ccZwSw0g.s 			page 21


 689:.\Generated_Source\PSoC4/BLE_1.c ****         else
 690:.\Generated_Source\PSoC4/BLE_1.c ****         {
 691:.\Generated_Source\PSoC4/BLE_1.c ****             /* Get the BD handle from Address */
 692:.\Generated_Source\PSoC4/BLE_1.c ****             apiResult = CyBle_GapGetPeerBdHandle(&bDevHandle, bdAddr);
 693:.\Generated_Source\PSoC4/BLE_1.c ****             if(apiResult == CYBLE_ERROR_OK)
 694:.\Generated_Source\PSoC4/BLE_1.c ****             {
 695:.\Generated_Source\PSoC4/BLE_1.c ****                 /* Store BD handle to clear cccd values by CyBle_StoreBondingData API */
 696:.\Generated_Source\PSoC4/BLE_1.c ****                 cyBle_pendingFlashWrite |= CYBLE_PENDING_CCCD_FLASH_CLEAR_BIT;
 697:.\Generated_Source\PSoC4/BLE_1.c ****                 cyBle_pendingFlashClearCccdHandle = bDevHandle;
 698:.\Generated_Source\PSoC4/BLE_1.c ****             }
 699:.\Generated_Source\PSoC4/BLE_1.c ****         }
 700:.\Generated_Source\PSoC4/BLE_1.c ****         if(apiResult == CYBLE_ERROR_OK)
 701:.\Generated_Source\PSoC4/BLE_1.c ****         {
 702:.\Generated_Source\PSoC4/BLE_1.c ****             #if(CYBLE_AUTO_POPULATE_WHITELIST != 0u)
 703:.\Generated_Source\PSoC4/BLE_1.c ****                 apiResult = CyBle_GapRemoveDeviceFromWhiteList(bdAddr);
 704:.\Generated_Source\PSoC4/BLE_1.c ****             #else
 705:.\Generated_Source\PSoC4/BLE_1.c ****                 apiResult = CyBle_GapRemDeviceFromBondList(bdAddr);
 706:.\Generated_Source\PSoC4/BLE_1.c ****             #endif
 707:.\Generated_Source\PSoC4/BLE_1.c ****         }
 708:.\Generated_Source\PSoC4/BLE_1.c ****     #endif /* CYBLE_GATT_DB_CCCD_COUNT != 0u */
 709:.\Generated_Source\PSoC4/BLE_1.c ****     }
 710:.\Generated_Source\PSoC4/BLE_1.c ****     else
 711:.\Generated_Source\PSoC4/BLE_1.c ****     {
 712:.\Generated_Source\PSoC4/BLE_1.c ****         apiResult = CYBLE_ERROR_INVALID_OPERATION;
 713:.\Generated_Source\PSoC4/BLE_1.c ****     }
 714:.\Generated_Source\PSoC4/BLE_1.c ****     
 715:.\Generated_Source\PSoC4/BLE_1.c ****     return(apiResult);
 716:.\Generated_Source\PSoC4/BLE_1.c **** }
 717:.\Generated_Source\PSoC4/BLE_1.c **** 
 718:.\Generated_Source\PSoC4/BLE_1.c **** 
 719:.\Generated_Source\PSoC4/BLE_1.c **** #endif /* (CYBLE_GAP_ROLE_PERIPHERAL || CYBLE_GAP_ROLE_CENTRAL) && (CYBLE_BONDING_REQUIREMENT == CY
 720:.\Generated_Source\PSoC4/BLE_1.c **** 
 721:.\Generated_Source\PSoC4/BLE_1.c **** 
 722:.\Generated_Source\PSoC4/BLE_1.c **** #if(CYBLE_GAP_ROLE_PERIPHERAL || CYBLE_GAP_ROLE_BROADCASTER)
 723:.\Generated_Source\PSoC4/BLE_1.c **** 
 724:.\Generated_Source\PSoC4/BLE_1.c ****     /******************************************************************************
 725:.\Generated_Source\PSoC4/BLE_1.c ****     *  Function Name: CyBle_GappStartAdvertisement
 726:.\Generated_Source\PSoC4/BLE_1.c ****     ***************************************************************************//**
 727:.\Generated_Source\PSoC4/BLE_1.c ****     *     
 728:.\Generated_Source\PSoC4/BLE_1.c ****     *  This function is used to start the advertisement using the advertisement data 
 729:.\Generated_Source\PSoC4/BLE_1.c ****     *  set in the component customizer's GUI. After invoking this API, the device 
 730:.\Generated_Source\PSoC4/BLE_1.c ****     *  will be available for connection by the devices configured for GAP central 
 731:.\Generated_Source\PSoC4/BLE_1.c ****     *  role. It is only included if the device is configured for GAP Peripheral or 
 732:.\Generated_Source\PSoC4/BLE_1.c ****     *  GAP Peripheral + Central role.
 733:.\Generated_Source\PSoC4/BLE_1.c ****     *  
 734:.\Generated_Source\PSoC4/BLE_1.c ****     *  On start of advertisement, GAP Peripheral receives the
 735:.\Generated_Source\PSoC4/BLE_1.c ****     *  CYBLE_EVT_GAPP_ADVERTISEMENT_START_STOP event. The following events are 
 736:.\Generated_Source\PSoC4/BLE_1.c ****     *  possible on invoking this function:
 737:.\Generated_Source\PSoC4/BLE_1.c ****     *  
 738:.\Generated_Source\PSoC4/BLE_1.c ****     *  * CYBLE_EVT_GAP_DEVICE_CONNECTED - If the device connects to a GAP Central and 
 739:.\Generated_Source\PSoC4/BLE_1.c ****     *    Link Layer Privacy is disabled in component customizer.
 740:.\Generated_Source\PSoC4/BLE_1.c ****     *  * CYBLE_EVT_GAP_ENHANCE_CONN_COMPLETE - If the device connects to a GAP Central and 
 741:.\Generated_Source\PSoC4/BLE_1.c ****     *    Link Layer Privacy is enabled in component customizer.
 742:.\Generated_Source\PSoC4/BLE_1.c ****     *  * CYBLE_EVT_TIMEOUT: If no device in GAP Central mode connects to this 
 743:.\Generated_Source\PSoC4/BLE_1.c ****     *                       device within the specified timeout limit. Stack 
 744:.\Generated_Source\PSoC4/BLE_1.c ****     *                       automatically initiate stop advertising when Slow 
 745:.\Generated_Source\PSoC4/BLE_1.c ****     *                       advertising was initiated, or starts Slow advertising
ARM GAS  C:\Users\Ecapable\AppData\Local\Temp\ccZwSw0g.s 			page 22


 746:.\Generated_Source\PSoC4/BLE_1.c ****     *                       after Fast advertising timeout occur.
 747:.\Generated_Source\PSoC4/BLE_1.c ****     *  * CYBLE_EVT_GAPP_ADVERTISEMENT_START_STOP: If device started or stopped
 748:.\Generated_Source\PSoC4/BLE_1.c ****     *                                               advertising. Use CyBle_GetState()
 749:.\Generated_Source\PSoC4/BLE_1.c ****     *                                               to determine the state. Sequential 
 750:.\Generated_Source\PSoC4/BLE_1.c ****     *                                               advertising could be started when
 751:.\Generated_Source\PSoC4/BLE_1.c ****     *                                               CYBLE_STATE_DISCONNECTED state is
 752:.\Generated_Source\PSoC4/BLE_1.c ****     *                                               returned.
 753:.\Generated_Source\PSoC4/BLE_1.c ****     * 
 754:.\Generated_Source\PSoC4/BLE_1.c ****     *  \param advertisingIntervalType: Fast or slow advertising interval with timings
 755:.\Generated_Source\PSoC4/BLE_1.c ****     *                                 entered in Advertising settings section of the
 756:.\Generated_Source\PSoC4/BLE_1.c ****     *                                 customizer.
 757:.\Generated_Source\PSoC4/BLE_1.c ****     *  * CYBLE_ADVERTISING_FAST   0x00u
 758:.\Generated_Source\PSoC4/BLE_1.c ****     *  * CYBLE_ADVERTISING_SLOW   0x01u
 759:.\Generated_Source\PSoC4/BLE_1.c ****     *  * CYBLE_ADVERTISING_CUSTOM 0x02u
 760:.\Generated_Source\PSoC4/BLE_1.c ****     * 
 761:.\Generated_Source\PSoC4/BLE_1.c ****     * \return
 762:.\Generated_Source\PSoC4/BLE_1.c ****     *  CYBLE_API_RESULT_T : Return value indicates if the function succeeded or
 763:.\Generated_Source\PSoC4/BLE_1.c ****     *  failed. Following are the possible error codes.
 764:.\Generated_Source\PSoC4/BLE_1.c ****     * 
 765:.\Generated_Source\PSoC4/BLE_1.c ****     *   Errors codes                      |  Description
 766:.\Generated_Source\PSoC4/BLE_1.c ****     *   --------------------------------- |  --------------------------------
 767:.\Generated_Source\PSoC4/BLE_1.c ****     *   CYBLE_ERROR_OK                    |  On successful operation.
 768:.\Generated_Source\PSoC4/BLE_1.c ****     *   CYBLE_ERROR_INVALID_PARAMETER     |  On passing an invalid parameter.
 769:.\Generated_Source\PSoC4/BLE_1.c ****     *   CYBLE_ERROR_INVALID_STATE         |  On calling this API not in Disconnected state.
 770:.\Generated_Source\PSoC4/BLE_1.c ****     *
 771:.\Generated_Source\PSoC4/BLE_1.c ****     * 
 772:.\Generated_Source\PSoC4/BLE_1.c ****     *******************************************************************************/
 773:.\Generated_Source\PSoC4/BLE_1.c ****     CYBLE_API_RESULT_T CyBle_GappStartAdvertisement(uint8 advertisingIntervalType)
 774:.\Generated_Source\PSoC4/BLE_1.c ****     {
 445              		.loc 1 774 0
 446              		.cfi_startproc
 447 0000 90B5     		push	{r4, r7, lr}
 448              		.cfi_def_cfa_offset 12
 449              		.cfi_offset 4, -12
 450              		.cfi_offset 7, -8
 451              		.cfi_offset 14, -4
 452 0002 85B0     		sub	sp, sp, #20
 453              		.cfi_def_cfa_offset 32
 454 0004 00AF     		add	r7, sp, #0
 455              		.cfi_def_cfa_register 7
 456 0006 021C     		mov	r2, r0
 457 0008 FB1D     		add	r3, r7, #7
 458 000a 1A70     		strb	r2, [r3]
 775:.\Generated_Source\PSoC4/BLE_1.c ****         CYBLE_API_RESULT_T apiResult;
 776:.\Generated_Source\PSoC4/BLE_1.c ****         
 777:.\Generated_Source\PSoC4/BLE_1.c ****         if(advertisingIntervalType > CYBLE_ADVERTISING_CUSTOM)
 459              		.loc 1 777 0
 460 000c FB1D     		add	r3, r7, #7
 461 000e 1B78     		ldrb	r3, [r3]
 462 0010 022B     		cmp	r3, #2
 463 0012 04D9     		bls	.L18
 778:.\Generated_Source\PSoC4/BLE_1.c ****         {
 779:.\Generated_Source\PSoC4/BLE_1.c ****             apiResult = CYBLE_ERROR_INVALID_PARAMETER;
 464              		.loc 1 779 0
 465 0014 0E23     		mov	r3, #14
 466 0016 FB18     		add	r3, r7, r3
 467 0018 0122     		mov	r2, #1
ARM GAS  C:\Users\Ecapable\AppData\Local\Temp\ccZwSw0g.s 			page 23


 468 001a 1A80     		strh	r2, [r3]
 469 001c 4BE0     		b	.L19
 470              	.L18:
 780:.\Generated_Source\PSoC4/BLE_1.c ****         }
 781:.\Generated_Source\PSoC4/BLE_1.c ****         else if((CYBLE_STATE_DISCONNECTED == CyBle_GetState()) && ((cyBle_eventHandlerFlag & CYBLE_
 471              		.loc 1 781 0
 472 001e 294B     		ldr	r3, .L25
 473 0020 1B78     		ldrb	r3, [r3]
 474 0022 042B     		cmp	r3, #4
 475 0024 42D1     		bne	.L20
 476              		.loc 1 781 0 is_stmt 0 discriminator 1
 477 0026 284B     		ldr	r3, .L25+4
 478 0028 1B78     		ldrb	r3, [r3]
 479 002a DBB2     		uxtb	r3, r3
 480 002c 1A1C     		mov	r2, r3
 481 002e 0423     		mov	r3, #4
 482 0030 1340     		and	r3, r2
 483 0032 3BD1     		bne	.L20
 782:.\Generated_Source\PSoC4/BLE_1.c ****         {   
 783:.\Generated_Source\PSoC4/BLE_1.c ****             if(advertisingIntervalType == CYBLE_ADVERTISING_FAST)
 484              		.loc 1 783 0 is_stmt 1
 485 0034 FB1D     		add	r3, r7, #7
 486 0036 1B78     		ldrb	r3, [r3]
 487 0038 002B     		cmp	r3, #0
 488 003a 0BD1     		bne	.L21
 784:.\Generated_Source\PSoC4/BLE_1.c ****             {
 785:.\Generated_Source\PSoC4/BLE_1.c ****                 cyBle_discoveryModeInfo.advTo = CYBLE_FAST_ADV_TIMEOUT;
 489              		.loc 1 785 0
 490 003c 234B     		ldr	r3, .L25+8
 491 003e 1E22     		mov	r2, #30
 492 0040 1A82     		strh	r2, [r3, #16]
 786:.\Generated_Source\PSoC4/BLE_1.c ****                 cyBle_discoveryModeInfo.advParam->advIntvMin = CYBLE_FAST_ADV_INT_MIN;
 493              		.loc 1 786 0
 494 0042 224B     		ldr	r3, .L25+8
 495 0044 5B68     		ldr	r3, [r3, #4]
 496 0046 2022     		mov	r2, #32
 497 0048 1A80     		strh	r2, [r3]
 787:.\Generated_Source\PSoC4/BLE_1.c ****                 cyBle_discoveryModeInfo.advParam->advIntvMax = CYBLE_FAST_ADV_INT_MAX;
 498              		.loc 1 787 0
 499 004a 204B     		ldr	r3, .L25+8
 500 004c 5B68     		ldr	r3, [r3, #4]
 501 004e 3022     		mov	r2, #48
 502 0050 5A80     		strh	r2, [r3, #2]
 503 0052 10E0     		b	.L22
 504              	.L21:
 788:.\Generated_Source\PSoC4/BLE_1.c ****             }
 789:.\Generated_Source\PSoC4/BLE_1.c ****             else if(advertisingIntervalType == CYBLE_ADVERTISING_SLOW)
 505              		.loc 1 789 0
 506 0054 FB1D     		add	r3, r7, #7
 507 0056 1B78     		ldrb	r3, [r3]
 508 0058 012B     		cmp	r3, #1
 509 005a 0CD1     		bne	.L22
 790:.\Generated_Source\PSoC4/BLE_1.c ****             {
 791:.\Generated_Source\PSoC4/BLE_1.c ****                 cyBle_discoveryModeInfo.advTo = CYBLE_SLOW_ADV_TIMEOUT;
 510              		.loc 1 791 0
 511 005c 1B4B     		ldr	r3, .L25+8
 512 005e 9622     		mov	r2, #150
ARM GAS  C:\Users\Ecapable\AppData\Local\Temp\ccZwSw0g.s 			page 24


 513 0060 1A82     		strh	r2, [r3, #16]
 792:.\Generated_Source\PSoC4/BLE_1.c ****                 cyBle_discoveryModeInfo.advParam->advIntvMin = CYBLE_SLOW_ADV_INT_MIN;
 514              		.loc 1 792 0
 515 0062 1A4B     		ldr	r3, .L25+8
 516 0064 5B68     		ldr	r3, [r3, #4]
 517 0066 C822     		mov	r2, #200
 518 0068 D200     		lsl	r2, r2, #3
 519 006a 1A80     		strh	r2, [r3]
 793:.\Generated_Source\PSoC4/BLE_1.c ****                 cyBle_discoveryModeInfo.advParam->advIntvMax = CYBLE_SLOW_ADV_INT_MAX;
 520              		.loc 1 793 0
 521 006c 174B     		ldr	r3, .L25+8
 522 006e 5B68     		ldr	r3, [r3, #4]
 523 0070 8022     		mov	r2, #128
 524 0072 D201     		lsl	r2, r2, #7
 525 0074 5A80     		strh	r2, [r3, #2]
 526              	.L22:
 794:.\Generated_Source\PSoC4/BLE_1.c ****             }       
 795:.\Generated_Source\PSoC4/BLE_1.c ****             else /* Do not update advertising intervals */
 796:.\Generated_Source\PSoC4/BLE_1.c ****             {
 797:.\Generated_Source\PSoC4/BLE_1.c ****             }
 798:.\Generated_Source\PSoC4/BLE_1.c ****             cyBle_advertisingIntervalType = advertisingIntervalType;
 527              		.loc 1 798 0
 528 0076 164B     		ldr	r3, .L25+12
 529 0078 FA1D     		add	r2, r7, #7
 530 007a 1278     		ldrb	r2, [r2]
 531 007c 1A70     		strb	r2, [r3]
 799:.\Generated_Source\PSoC4/BLE_1.c ****             apiResult = CyBle_GappEnterDiscoveryMode(&cyBle_discoveryModeInfo);
 532              		.loc 1 799 0
 533 007e 0E23     		mov	r3, #14
 534 0080 FC18     		add	r4, r7, r3
 535 0082 124B     		ldr	r3, .L25+8
 536 0084 181C     		mov	r0, r3
 537 0086 FFF7FEFF 		bl	CyBle_GappEnterDiscoveryMode
 538 008a 031C     		mov	r3, r0
 539 008c 2380     		strh	r3, [r4]
 800:.\Generated_Source\PSoC4/BLE_1.c ****         
 801:.\Generated_Source\PSoC4/BLE_1.c ****             if(CYBLE_ERROR_OK == apiResult)
 540              		.loc 1 801 0
 541 008e 0E23     		mov	r3, #14
 542 0090 FB18     		add	r3, r7, r3
 543 0092 1B88     		ldrh	r3, [r3]
 544 0094 002B     		cmp	r3, #0
 545 0096 08D1     		bne	.L23
 802:.\Generated_Source\PSoC4/BLE_1.c ****             {
 803:.\Generated_Source\PSoC4/BLE_1.c ****                 cyBle_eventHandlerFlag |= CYBLE_START_FLAG;
 546              		.loc 1 803 0
 547 0098 0B4B     		ldr	r3, .L25+4
 548 009a 1B78     		ldrb	r3, [r3]
 549 009c DBB2     		uxtb	r3, r3
 550 009e 0422     		mov	r2, #4
 551 00a0 1343     		orr	r3, r2
 552 00a2 DAB2     		uxtb	r2, r3
 553 00a4 084B     		ldr	r3, .L25+4
 554 00a6 1A70     		strb	r2, [r3]
 801:.\Generated_Source\PSoC4/BLE_1.c ****             {
 555              		.loc 1 801 0
 556 00a8 05E0     		b	.L19
ARM GAS  C:\Users\Ecapable\AppData\Local\Temp\ccZwSw0g.s 			page 25


 557              	.L23:
 558 00aa 04E0     		b	.L19
 559              	.L20:
 804:.\Generated_Source\PSoC4/BLE_1.c ****             }
 805:.\Generated_Source\PSoC4/BLE_1.c ****         }
 806:.\Generated_Source\PSoC4/BLE_1.c ****         else
 807:.\Generated_Source\PSoC4/BLE_1.c ****         {
 808:.\Generated_Source\PSoC4/BLE_1.c ****             apiResult = CYBLE_ERROR_INVALID_STATE;
 560              		.loc 1 808 0
 561 00ac 0E23     		mov	r3, #14
 562 00ae FB18     		add	r3, r7, r3
 563 00b0 0422     		mov	r2, #4
 564 00b2 FF32     		add	r2, r2, #255
 565 00b4 1A80     		strh	r2, [r3]
 566              	.L19:
 809:.\Generated_Source\PSoC4/BLE_1.c ****         }
 810:.\Generated_Source\PSoC4/BLE_1.c **** 
 811:.\Generated_Source\PSoC4/BLE_1.c ****         return (apiResult);
 567              		.loc 1 811 0
 568 00b6 0E23     		mov	r3, #14
 569 00b8 FB18     		add	r3, r7, r3
 570 00ba 1B88     		ldrh	r3, [r3]
 812:.\Generated_Source\PSoC4/BLE_1.c ****     }
 571              		.loc 1 812 0
 572 00bc 181C     		mov	r0, r3
 573 00be BD46     		mov	sp, r7
 574 00c0 05B0     		add	sp, sp, #20
 575              		@ sp needed
 576 00c2 90BD     		pop	{r4, r7, pc}
 577              	.L26:
 578              		.align	2
 579              	.L25:
 580 00c4 00000000 		.word	cyBle_state
 581 00c8 00000000 		.word	cyBle_eventHandlerFlag
 582 00cc 00000000 		.word	cyBle_discoveryModeInfo
 583 00d0 00000000 		.word	cyBle_advertisingIntervalType
 584              		.cfi_endproc
 585              	.LFE6:
 586              		.size	CyBle_GappStartAdvertisement, .-CyBle_GappStartAdvertisement
 587              		.section	.text.CyBle_GappStopAdvertisement,"ax",%progbits
 588              		.align	2
 589              		.global	CyBle_GappStopAdvertisement
 590              		.code	16
 591              		.thumb_func
 592              		.type	CyBle_GappStopAdvertisement, %function
 593              	CyBle_GappStopAdvertisement:
 594              	.LFB7:
 813:.\Generated_Source\PSoC4/BLE_1.c **** 
 814:.\Generated_Source\PSoC4/BLE_1.c ****     
 815:.\Generated_Source\PSoC4/BLE_1.c ****     /******************************************************************************
 816:.\Generated_Source\PSoC4/BLE_1.c ****     * Function Name: CyBle_GappStopAdvertisement
 817:.\Generated_Source\PSoC4/BLE_1.c ****     ***************************************************************************//**
 818:.\Generated_Source\PSoC4/BLE_1.c ****     * 
 819:.\Generated_Source\PSoC4/BLE_1.c ****     *   This function can be used to exit from discovery mode. After the execution 
 820:.\Generated_Source\PSoC4/BLE_1.c ****     *   of this function, there will no longer be any advertisements. On stopping 
 821:.\Generated_Source\PSoC4/BLE_1.c ****     *   advertising, GAP Peripheral receives CYBLE_EVT_GAPP_ADVERTISEMENT_START_STOP
 822:.\Generated_Source\PSoC4/BLE_1.c ****     *   event. It is expected that the application layer tracks the function call 
ARM GAS  C:\Users\Ecapable\AppData\Local\Temp\ccZwSw0g.s 			page 26


 823:.\Generated_Source\PSoC4/BLE_1.c ****     *   performed before occurrence of this event as this event can occur on making 
 824:.\Generated_Source\PSoC4/BLE_1.c ****     *   a call to Cy_BleGappStartAdvertisement(), CyBle_GappEnterDiscoveryMode(), 
 825:.\Generated_Source\PSoC4/BLE_1.c ****     *   or CyBle_GappStartAdvertisement() functions as well.
 826:.\Generated_Source\PSoC4/BLE_1.c ****     *   
 827:.\Generated_Source\PSoC4/BLE_1.c ****     *   The following event occurs on invoking this function:
 828:.\Generated_Source\PSoC4/BLE_1.c ****     *   * CYBLE_EVT_GAPP_ADVERTISEMENT_START_STOP
 829:.\Generated_Source\PSoC4/BLE_1.c ****     * 
 830:.\Generated_Source\PSoC4/BLE_1.c ****     *  \return
 831:.\Generated_Source\PSoC4/BLE_1.c ****     *   None
 832:.\Generated_Source\PSoC4/BLE_1.c ****     * 
 833:.\Generated_Source\PSoC4/BLE_1.c ****     *******************************************************************************/
 834:.\Generated_Source\PSoC4/BLE_1.c ****     void CyBle_GappStopAdvertisement(void)
 835:.\Generated_Source\PSoC4/BLE_1.c ****     {
 595              		.loc 1 835 0
 596              		.cfi_startproc
 597 0000 80B5     		push	{r7, lr}
 598              		.cfi_def_cfa_offset 8
 599              		.cfi_offset 7, -8
 600              		.cfi_offset 14, -4
 601 0002 00AF     		add	r7, sp, #0
 602              		.cfi_def_cfa_register 7
 836:.\Generated_Source\PSoC4/BLE_1.c ****         CyBle_GappExitDiscoveryMode();
 603              		.loc 1 836 0
 604 0004 FFF7FEFF 		bl	CyBle_GappExitDiscoveryMode
 837:.\Generated_Source\PSoC4/BLE_1.c ****         cyBle_eventHandlerFlag |= CYBLE_STOP_FLAG;
 605              		.loc 1 837 0
 606 0008 044B     		ldr	r3, .L28
 607 000a 1B78     		ldrb	r3, [r3]
 608 000c DBB2     		uxtb	r3, r3
 609 000e 0822     		mov	r2, #8
 610 0010 1343     		orr	r3, r2
 611 0012 DAB2     		uxtb	r2, r3
 612 0014 014B     		ldr	r3, .L28
 613 0016 1A70     		strb	r2, [r3]
 838:.\Generated_Source\PSoC4/BLE_1.c ****     }
 614              		.loc 1 838 0
 615 0018 BD46     		mov	sp, r7
 616              		@ sp needed
 617 001a 80BD     		pop	{r7, pc}
 618              	.L29:
 619              		.align	2
 620              	.L28:
 621 001c 00000000 		.word	cyBle_eventHandlerFlag
 622              		.cfi_endproc
 623              	.LFE7:
 624              		.size	CyBle_GappStopAdvertisement, .-CyBle_GappStopAdvertisement
 625              		.section	.text.CyBle_ChangeAdDeviceAddress,"ax",%progbits
 626              		.align	2
 627              		.global	CyBle_ChangeAdDeviceAddress
 628              		.code	16
 629              		.thumb_func
 630              		.type	CyBle_ChangeAdDeviceAddress, %function
 631              	CyBle_ChangeAdDeviceAddress:
 632              	.LFB8:
 839:.\Generated_Source\PSoC4/BLE_1.c ****     
 840:.\Generated_Source\PSoC4/BLE_1.c ****     
 841:.\Generated_Source\PSoC4/BLE_1.c ****     /******************************************************************************
ARM GAS  C:\Users\Ecapable\AppData\Local\Temp\ccZwSw0g.s 			page 27


 842:.\Generated_Source\PSoC4/BLE_1.c ****     * Function Name: CyBle_ChangeAdDeviceAddress
 843:.\Generated_Source\PSoC4/BLE_1.c ****     ***************************************************************************//**
 844:.\Generated_Source\PSoC4/BLE_1.c ****     * 
 845:.\Generated_Source\PSoC4/BLE_1.c ****     *  This API is used to set the Bluetooth device address into the advertisement 
 846:.\Generated_Source\PSoC4/BLE_1.c ****     *  or scan response data structure.
 847:.\Generated_Source\PSoC4/BLE_1.c ****     * 
 848:.\Generated_Source\PSoC4/BLE_1.c ****     *  \param bdAddr: Bluetooth Device address. The variable is of type CYBLE_GAP_BD_ADDR_T
 849:.\Generated_Source\PSoC4/BLE_1.c ****     *  \param dest: 0 - selects advertisement structure, not zero value selects scan 
 850:.\Generated_Source\PSoC4/BLE_1.c ****     *               response structure.
 851:.\Generated_Source\PSoC4/BLE_1.c ****     * 
 852:.\Generated_Source\PSoC4/BLE_1.c ****     * \return
 853:.\Generated_Source\PSoC4/BLE_1.c ****     *  None
 854:.\Generated_Source\PSoC4/BLE_1.c ****     *  
 855:.\Generated_Source\PSoC4/BLE_1.c ****     *******************************************************************************/
 856:.\Generated_Source\PSoC4/BLE_1.c ****     void CyBle_ChangeAdDeviceAddress(const CYBLE_GAP_BD_ADDR_T* bdAddr, uint8 dest)
 857:.\Generated_Source\PSoC4/BLE_1.c ****     {
 633              		.loc 1 857 0
 634              		.cfi_startproc
 635 0000 80B5     		push	{r7, lr}
 636              		.cfi_def_cfa_offset 8
 637              		.cfi_offset 7, -8
 638              		.cfi_offset 14, -4
 639 0002 84B0     		sub	sp, sp, #16
 640              		.cfi_def_cfa_offset 24
 641 0004 00AF     		add	r7, sp, #0
 642              		.cfi_def_cfa_register 7
 643 0006 7860     		str	r0, [r7, #4]
 644 0008 0A1C     		mov	r2, r1
 645 000a FB1C     		add	r3, r7, #3
 646 000c 1A70     		strb	r2, [r3]
 858:.\Generated_Source\PSoC4/BLE_1.c ****         uint8 i;
 859:.\Generated_Source\PSoC4/BLE_1.c ****         uint8 *destBuffer = NULL;
 647              		.loc 1 859 0
 648 000e 0023     		mov	r3, #0
 649 0010 BB60     		str	r3, [r7, #8]
 860:.\Generated_Source\PSoC4/BLE_1.c ****         
 861:.\Generated_Source\PSoC4/BLE_1.c ****         if(dest == 0u)      /* Destination - advertising structure */
 862:.\Generated_Source\PSoC4/BLE_1.c ****         {
 863:.\Generated_Source\PSoC4/BLE_1.c ****             #ifdef CYBLE_ADV_PKT_INDEX_BLUETOOTH_DEVICE_ADDRESS
 864:.\Generated_Source\PSoC4/BLE_1.c ****                 destBuffer = &cyBle_discoveryData.advData[CYBLE_ADV_PKT_INDEX_BLUETOOTH_DEVICE_ADDR
 865:.\Generated_Source\PSoC4/BLE_1.c ****             #endif /* CYBLE_ADV_PKT_INDEX_BLUETOOTH_DEVICE_ADDRESS */
 866:.\Generated_Source\PSoC4/BLE_1.c ****         }
 867:.\Generated_Source\PSoC4/BLE_1.c ****         else                /* Destination - scan response structure */
 868:.\Generated_Source\PSoC4/BLE_1.c ****         {
 869:.\Generated_Source\PSoC4/BLE_1.c ****             #ifdef CYBLE_SCN_PKT_INDEX_BLUETOOTH_DEVICE_ADDRESS
 870:.\Generated_Source\PSoC4/BLE_1.c ****                 destBuffer = &cyBle_scanRspData.scanRspData[CYBLE_SCN_PKT_INDEX_BLUETOOTH_DEVICE_AD
 871:.\Generated_Source\PSoC4/BLE_1.c ****             #endif /* CYBLE_SCN_PKT_INDEX_BLUETOOTH_DEVICE_ADDRESS */    
 872:.\Generated_Source\PSoC4/BLE_1.c ****         }
 873:.\Generated_Source\PSoC4/BLE_1.c ****         
 874:.\Generated_Source\PSoC4/BLE_1.c ****         if(destBuffer != NULL)
 650              		.loc 1 874 0
 651 0012 BB68     		ldr	r3, [r7, #8]
 652 0014 002B     		cmp	r3, #0
 653 0016 20D0     		beq	.L30
 875:.\Generated_Source\PSoC4/BLE_1.c ****         {
 876:.\Generated_Source\PSoC4/BLE_1.c ****             /* Update Device Address type */
 877:.\Generated_Source\PSoC4/BLE_1.c ****             destBuffer[0u] = bdAddr->type;
ARM GAS  C:\Users\Ecapable\AppData\Local\Temp\ccZwSw0g.s 			page 28


 654              		.loc 1 877 0
 655 0018 7B68     		ldr	r3, [r7, #4]
 656 001a 9A79     		ldrb	r2, [r3, #6]
 657 001c BB68     		ldr	r3, [r7, #8]
 658 001e 1A70     		strb	r2, [r3]
 878:.\Generated_Source\PSoC4/BLE_1.c ****             
 879:.\Generated_Source\PSoC4/BLE_1.c ****             for(i = 0u; i < CYBLE_GAP_BD_ADDR_SIZE; i++)
 659              		.loc 1 879 0
 660 0020 0F23     		mov	r3, #15
 661 0022 FB18     		add	r3, r7, r3
 662 0024 0022     		mov	r2, #0
 663 0026 1A70     		strb	r2, [r3]
 664 0028 12E0     		b	.L32
 665              	.L33:
 880:.\Generated_Source\PSoC4/BLE_1.c ****             {
 881:.\Generated_Source\PSoC4/BLE_1.c ****                 destBuffer[i + 1u] = bdAddr->bdAddr[i];
 666              		.loc 1 881 0 discriminator 3
 667 002a 0F23     		mov	r3, #15
 668 002c FB18     		add	r3, r7, r3
 669 002e 1B78     		ldrb	r3, [r3]
 670 0030 0133     		add	r3, r3, #1
 671 0032 BA68     		ldr	r2, [r7, #8]
 672 0034 D318     		add	r3, r2, r3
 673 0036 0F22     		mov	r2, #15
 674 0038 BA18     		add	r2, r7, r2
 675 003a 1278     		ldrb	r2, [r2]
 676 003c 7968     		ldr	r1, [r7, #4]
 677 003e 8A5C     		ldrb	r2, [r1, r2]
 678 0040 1A70     		strb	r2, [r3]
 879:.\Generated_Source\PSoC4/BLE_1.c ****             {
 679              		.loc 1 879 0 discriminator 3
 680 0042 0F23     		mov	r3, #15
 681 0044 FB18     		add	r3, r7, r3
 682 0046 1A78     		ldrb	r2, [r3]
 683 0048 0F23     		mov	r3, #15
 684 004a FB18     		add	r3, r7, r3
 685 004c 0132     		add	r2, r2, #1
 686 004e 1A70     		strb	r2, [r3]
 687              	.L32:
 879:.\Generated_Source\PSoC4/BLE_1.c ****             {
 688              		.loc 1 879 0 is_stmt 0 discriminator 1
 689 0050 0F23     		mov	r3, #15
 690 0052 FB18     		add	r3, r7, r3
 691 0054 1B78     		ldrb	r3, [r3]
 692 0056 052B     		cmp	r3, #5
 693 0058 E7D9     		bls	.L33
 694              	.L30:
 882:.\Generated_Source\PSoC4/BLE_1.c ****             }
 883:.\Generated_Source\PSoC4/BLE_1.c ****         }
 884:.\Generated_Source\PSoC4/BLE_1.c ****     }
 695              		.loc 1 884 0 is_stmt 1
 696 005a BD46     		mov	sp, r7
 697 005c 04B0     		add	sp, sp, #16
 698              		@ sp needed
 699 005e 80BD     		pop	{r7, pc}
 700              		.cfi_endproc
 701              	.LFE8:
ARM GAS  C:\Users\Ecapable\AppData\Local\Temp\ccZwSw0g.s 			page 29


 702              		.size	CyBle_ChangeAdDeviceAddress, .-CyBle_ChangeAdDeviceAddress
 703              		.section	.text.CyBle_ChangeAdLocalName,"ax",%progbits
 704              		.align	2
 705              		.code	16
 706              		.thumb_func
 707              		.type	CyBle_ChangeAdLocalName, %function
 708              	CyBle_ChangeAdLocalName:
 709              	.LFB9:
 885:.\Generated_Source\PSoC4/BLE_1.c ****   
 886:.\Generated_Source\PSoC4/BLE_1.c **** #endif /* CYBLE_GAP_ROLE_PERIPHERAL || CYBLE_GAP_ROLE_BROADCASTER */
 887:.\Generated_Source\PSoC4/BLE_1.c **** 
 888:.\Generated_Source\PSoC4/BLE_1.c **** 
 889:.\Generated_Source\PSoC4/BLE_1.c **** #if(CYBLE_GAP_ROLE_CENTRAL || CYBLE_GAP_ROLE_OBSERVER)
 890:.\Generated_Source\PSoC4/BLE_1.c **** 
 891:.\Generated_Source\PSoC4/BLE_1.c ****     /******************************************************************************
 892:.\Generated_Source\PSoC4/BLE_1.c ****     * Function Name: CyBle_GapcStartScan
 893:.\Generated_Source\PSoC4/BLE_1.c ****     ***************************************************************************//**
 894:.\Generated_Source\PSoC4/BLE_1.c ****     * 
 895:.\Generated_Source\PSoC4/BLE_1.c ****     *   This function is used for discovering GAP peripheral devices that are 
 896:.\Generated_Source\PSoC4/BLE_1.c ****     *   available for connection. It performs the scanning routine using the 
 897:.\Generated_Source\PSoC4/BLE_1.c ****     *   parameters entered in the component's customizer.
 898:.\Generated_Source\PSoC4/BLE_1.c ****     *   
 899:.\Generated_Source\PSoC4/BLE_1.c ****     *   As soon as the discovery operation starts, CYBLE_EVT_GAPC_SCAN_START_STOP 
 900:.\Generated_Source\PSoC4/BLE_1.c ****     *   event is generated. The CYBLE_EVT_GAPC_SCAN_PROGRESS_RESULT event is 
 901:.\Generated_Source\PSoC4/BLE_1.c ****     *   generated when a GAP peripheral device is located. There are three discovery
 902:.\Generated_Source\PSoC4/BLE_1.c ****     *   procedures can be selected in the customizer's GUI:
 903:.\Generated_Source\PSoC4/BLE_1.c ****     *   
 904:.\Generated_Source\PSoC4/BLE_1.c ****     *   * Observation procedure: A device performing the observer role receives only
 905:.\Generated_Source\PSoC4/BLE_1.c ****     *                            advertisement data from devices irrespective of 
 906:.\Generated_Source\PSoC4/BLE_1.c ****     *                            their discoverable mode settings. Advertisement 
 907:.\Generated_Source\PSoC4/BLE_1.c ****     *                            data received is provided by the event,      
 908:.\Generated_Source\PSoC4/BLE_1.c ****     *                            CYBLE_EVT_GAPC_SCAN_PROGRESS_RESULT. This procedure
 909:.\Generated_Source\PSoC4/BLE_1.c ****     *                            requires the scanType sub parameter to be passive
 910:.\Generated_Source\PSoC4/BLE_1.c ****     *                            scanning. 
 911:.\Generated_Source\PSoC4/BLE_1.c ****     *   
 912:.\Generated_Source\PSoC4/BLE_1.c ****     *   * Limited Discovery procedure: A device performing the limited discovery
 913:.\Generated_Source\PSoC4/BLE_1.c ****     *                                  procedure receives advertisement data and 
 914:.\Generated_Source\PSoC4/BLE_1.c ****     *                                  scan# response data from devices in the 
 915:.\Generated_Source\PSoC4/BLE_1.c ****     *                                  limited discoverable mode only. Received data
 916:.\Generated_Source\PSoC4/BLE_1.c ****     *                                  is provided by the event, 
 917:.\Generated_Source\PSoC4/BLE_1.c ****     *                                  CYBLE_EVT_GAPC_SCAN_PROGRESS_RESULT. This 
 918:.\Generated_Source\PSoC4/BLE_1.c ****     *                                  procedure requires the scanType sub-parameter 
 919:.\Generated_Source\PSoC4/BLE_1.c ****     *                                  to be active scanning.
 920:.\Generated_Source\PSoC4/BLE_1.c ****     *   
 921:.\Generated_Source\PSoC4/BLE_1.c ****     *   * General Discovery procedure: A device performing the general discovery 
 922:.\Generated_Source\PSoC4/BLE_1.c ****     *                                  procedure receives the advertisement data and
 923:.\Generated_Source\PSoC4/BLE_1.c ****     *                                  scan response data from devices in both 
 924:.\Generated_Source\PSoC4/BLE_1.c ****     *                                  limited discoverable mode and the general 
 925:.\Generated_Source\PSoC4/BLE_1.c ****     *                                  discoverable mode. Received data is provided
 926:.\Generated_Source\PSoC4/BLE_1.c ****     *                                  by the event,
 927:.\Generated_Source\PSoC4/BLE_1.c ****     *                                  CYBLE_EVT_GAPC_SCAN_PROGRESS_RESULT. This 
 928:.\Generated_Source\PSoC4/BLE_1.c ****     *                                  procedure requires the scanType sub-parameter
 929:.\Generated_Source\PSoC4/BLE_1.c ****     *                                  to be active scanning.
 930:.\Generated_Source\PSoC4/BLE_1.c ****     *   
 931:.\Generated_Source\PSoC4/BLE_1.c ****     *   Every Advertisement / Scan response packet received results in a new event, 
 932:.\Generated_Source\PSoC4/BLE_1.c ****     *   CYBLE_EVT_GAPC_SCAN_PROGRESS_RESULT.
 933:.\Generated_Source\PSoC4/BLE_1.c ****     *   If 'scanTo' sub-parameter is a non-zero value, then upon commencement of 
ARM GAS  C:\Users\Ecapable\AppData\Local\Temp\ccZwSw0g.s 			page 30


 934:.\Generated_Source\PSoC4/BLE_1.c ****     *   discovery procedure and elapsed time = 'scanTo', CYBLE_EVT_TIMEOUT event
 935:.\Generated_Source\PSoC4/BLE_1.c ****     *   is generated with the event parameter indicating CYBLE_GAP_SCAN_TO.
 936:.\Generated_Source\PSoC4/BLE_1.c ****     *   Possible generated events are:
 937:.\Generated_Source\PSoC4/BLE_1.c ****     *   * CYBLE_EVT_GAPC_SCAN_START_STOP: If a device started or stopped scanning. 
 938:.\Generated_Source\PSoC4/BLE_1.c ****     *                                     Use CyBle_GetState() to determine the 
 939:.\Generated_Source\PSoC4/BLE_1.c ****     *                                     state. Sequential scanning could be 
 940:.\Generated_Source\PSoC4/BLE_1.c ****     *                                     started when CYBLE_STATE_DISCONNECTED 
 941:.\Generated_Source\PSoC4/BLE_1.c ****     *                                     state is returned. 
 942:.\Generated_Source\PSoC4/BLE_1.c ****     *   * CYBLE_EVT_GAPC_SCAN_PROGRESS_RESULT 
 943:.\Generated_Source\PSoC4/BLE_1.c ****     *   * CYBLE_EVT_TIMEOUT (CYBLE_GAP_SCAN_TO)
 944:.\Generated_Source\PSoC4/BLE_1.c ****     * 
 945:.\Generated_Source\PSoC4/BLE_1.c ****     *   \param scanningIntervalType:  Fast or slow scanning interval with
 946:.\Generated_Source\PSoC4/BLE_1.c ****     *       timings entered in Scan settings section of the customizer.
 947:.\Generated_Source\PSoC4/BLE_1.c ****     * 	  * CYBLE_SCANNING_FAST   0x00u
 948:.\Generated_Source\PSoC4/BLE_1.c ****     * 	  * CYBLE_SCANNING_SLOW   0x01u
 949:.\Generated_Source\PSoC4/BLE_1.c ****     * 	  * CYBLE_SCANNING_CUSTOM 0x02u
 950:.\Generated_Source\PSoC4/BLE_1.c ****     * 
 951:.\Generated_Source\PSoC4/BLE_1.c ****     * \return
 952:.\Generated_Source\PSoC4/BLE_1.c ****     *  CYBLE_API_RESULT_T : Return value indicates if the function succeeded or
 953:.\Generated_Source\PSoC4/BLE_1.c ****     *  failed. Following are the possible error codes.
 954:.\Generated_Source\PSoC4/BLE_1.c ****     *
 955:.\Generated_Source\PSoC4/BLE_1.c ****     *   Errors codes                       | Description
 956:.\Generated_Source\PSoC4/BLE_1.c ****     *   ---------------------------------- | -----------------------------------
 957:.\Generated_Source\PSoC4/BLE_1.c ****     *   CYBLE_ERROR_OK                     | On successful operation.
 958:.\Generated_Source\PSoC4/BLE_1.c ****     *   CYBLE_ERROR_STACK_INTERNAL         | An error occurred in the BLE stack.
 959:.\Generated_Source\PSoC4/BLE_1.c ****     *   CYBLE_ERROR_INVALID_PARAMETER      | On passing an invalid parameter.
 960:.\Generated_Source\PSoC4/BLE_1.c ****     *  
 961:.\Generated_Source\PSoC4/BLE_1.c ****     *******************************************************************************/
 962:.\Generated_Source\PSoC4/BLE_1.c ****     CYBLE_API_RESULT_T CyBle_GapcStartScan(uint8 scanningIntervalType)
 963:.\Generated_Source\PSoC4/BLE_1.c ****     {
 964:.\Generated_Source\PSoC4/BLE_1.c ****         CYBLE_API_RESULT_T apiResult;
 965:.\Generated_Source\PSoC4/BLE_1.c **** 
 966:.\Generated_Source\PSoC4/BLE_1.c ****         if(scanningIntervalType > CYBLE_SCANNING_CUSTOM)
 967:.\Generated_Source\PSoC4/BLE_1.c ****         {
 968:.\Generated_Source\PSoC4/BLE_1.c ****             apiResult = CYBLE_ERROR_INVALID_PARAMETER;
 969:.\Generated_Source\PSoC4/BLE_1.c ****         }
 970:.\Generated_Source\PSoC4/BLE_1.c ****         else
 971:.\Generated_Source\PSoC4/BLE_1.c ****         {
 972:.\Generated_Source\PSoC4/BLE_1.c ****             if(scanningIntervalType == CYBLE_SCANNING_FAST)
 973:.\Generated_Source\PSoC4/BLE_1.c ****             {
 974:.\Generated_Source\PSoC4/BLE_1.c ****                 cyBle_discoveryInfo.scanTo = CYBLE_FAST_SCAN_TIMEOUT;
 975:.\Generated_Source\PSoC4/BLE_1.c ****                 cyBle_discoveryInfo.scanIntv = CYBLE_FAST_SCAN_INTERVAL;
 976:.\Generated_Source\PSoC4/BLE_1.c ****                 cyBle_discoveryInfo.scanWindow = CYBLE_FAST_SCAN_WINDOW;
 977:.\Generated_Source\PSoC4/BLE_1.c ****             }
 978:.\Generated_Source\PSoC4/BLE_1.c ****             else if(scanningIntervalType == CYBLE_SCANNING_SLOW)
 979:.\Generated_Source\PSoC4/BLE_1.c ****             {
 980:.\Generated_Source\PSoC4/BLE_1.c ****                 cyBle_discoveryInfo.scanTo = CYBLE_SLOW_SCAN_TIMEOUT;
 981:.\Generated_Source\PSoC4/BLE_1.c ****                 cyBle_discoveryInfo.scanIntv = CYBLE_SLOW_SCAN_INTERVAL;
 982:.\Generated_Source\PSoC4/BLE_1.c ****                 cyBle_discoveryInfo.scanWindow = CYBLE_SLOW_SCAN_WINDOW;
 983:.\Generated_Source\PSoC4/BLE_1.c ****             }       
 984:.\Generated_Source\PSoC4/BLE_1.c ****             else /* Do not update scanning intervals */
 985:.\Generated_Source\PSoC4/BLE_1.c ****             {
 986:.\Generated_Source\PSoC4/BLE_1.c ****             }
 987:.\Generated_Source\PSoC4/BLE_1.c ****             
 988:.\Generated_Source\PSoC4/BLE_1.c ****             cyBle_scanningIntervalType = scanningIntervalType;
 989:.\Generated_Source\PSoC4/BLE_1.c ****             apiResult = CyBle_GapcStartDiscovery(&cyBle_discoveryInfo);
 990:.\Generated_Source\PSoC4/BLE_1.c ****         
ARM GAS  C:\Users\Ecapable\AppData\Local\Temp\ccZwSw0g.s 			page 31


 991:.\Generated_Source\PSoC4/BLE_1.c ****             if(CYBLE_ERROR_OK == apiResult)
 992:.\Generated_Source\PSoC4/BLE_1.c ****             {
 993:.\Generated_Source\PSoC4/BLE_1.c ****                 cyBle_eventHandlerFlag |= CYBLE_START_FLAG;
 994:.\Generated_Source\PSoC4/BLE_1.c ****             }
 995:.\Generated_Source\PSoC4/BLE_1.c ****         }
 996:.\Generated_Source\PSoC4/BLE_1.c ****        
 997:.\Generated_Source\PSoC4/BLE_1.c ****         return (apiResult);
 998:.\Generated_Source\PSoC4/BLE_1.c ****     }
 999:.\Generated_Source\PSoC4/BLE_1.c ****     
1000:.\Generated_Source\PSoC4/BLE_1.c ****     
1001:.\Generated_Source\PSoC4/BLE_1.c ****     /******************************************************************************
1002:.\Generated_Source\PSoC4/BLE_1.c ****     * Function Name: CyBle_GapcStopScan
1003:.\Generated_Source\PSoC4/BLE_1.c ****     ***************************************************************************//**
1004:.\Generated_Source\PSoC4/BLE_1.c ****     * 
1005:.\Generated_Source\PSoC4/BLE_1.c ****     *   This function used to stop the discovery of devices. On stopping discovery
1006:.\Generated_Source\PSoC4/BLE_1.c ****     *   operation, CYBLE_EVT_GAPC_SCAN_START_STOP event is generated. Application
1007:.\Generated_Source\PSoC4/BLE_1.c ****     *   layer needs to keep track of the function call made before receiving this
1008:.\Generated_Source\PSoC4/BLE_1.c ****     *   event to associate this event with either the start or stop discovery
1009:.\Generated_Source\PSoC4/BLE_1.c ****     *   function.
1010:.\Generated_Source\PSoC4/BLE_1.c ****     * 
1011:.\Generated_Source\PSoC4/BLE_1.c ****     *   Possible events generated are:
1012:.\Generated_Source\PSoC4/BLE_1.c ****     *    * CYBLE_EVT_GAPC_SCAN_START_STOP
1013:.\Generated_Source\PSoC4/BLE_1.c ****     * 
1014:.\Generated_Source\PSoC4/BLE_1.c ****     *  \return
1015:.\Generated_Source\PSoC4/BLE_1.c ****     *   None
1016:.\Generated_Source\PSoC4/BLE_1.c ****     * 
1017:.\Generated_Source\PSoC4/BLE_1.c ****     *******************************************************************************/
1018:.\Generated_Source\PSoC4/BLE_1.c ****     void CyBle_GapcStopScan(void)
1019:.\Generated_Source\PSoC4/BLE_1.c ****     {
1020:.\Generated_Source\PSoC4/BLE_1.c ****         CyBle_GapcStopDiscovery();
1021:.\Generated_Source\PSoC4/BLE_1.c ****         
1022:.\Generated_Source\PSoC4/BLE_1.c ****         cyBle_eventHandlerFlag |= CYBLE_STOP_FLAG;
1023:.\Generated_Source\PSoC4/BLE_1.c ****     }
1024:.\Generated_Source\PSoC4/BLE_1.c **** 
1025:.\Generated_Source\PSoC4/BLE_1.c ****     
1026:.\Generated_Source\PSoC4/BLE_1.c **** #endif /* CYBLE_GAP_ROLE_CENTRAL || CYBLE_GAP_ROLE_OBSERVER */
1027:.\Generated_Source\PSoC4/BLE_1.c **** 
1028:.\Generated_Source\PSoC4/BLE_1.c **** 
1029:.\Generated_Source\PSoC4/BLE_1.c **** #if(CYBLE_GAP_ROLE_CENTRAL)
1030:.\Generated_Source\PSoC4/BLE_1.c **** 
1031:.\Generated_Source\PSoC4/BLE_1.c ****     /******************************************************************************
1032:.\Generated_Source\PSoC4/BLE_1.c ****     * Function Name: CyBle_GapcConnectDevice
1033:.\Generated_Source\PSoC4/BLE_1.c ****     ***************************************************************************//**
1034:.\Generated_Source\PSoC4/BLE_1.c ****     * 
1035:.\Generated_Source\PSoC4/BLE_1.c ****     *  This function is used to send a connection request to the remote device with
1036:.\Generated_Source\PSoC4/BLE_1.c ****     *  the connection parameters set in the component customizer. This function needs
1037:.\Generated_Source\PSoC4/BLE_1.c ****     *  to be called only once after the target device is discovered by 
1038:.\Generated_Source\PSoC4/BLE_1.c ****     *  CyBle_GapcStartScan() and further scanning has stopped. Scanning is 
1039:.\Generated_Source\PSoC4/BLE_1.c ****     *  successfully stopped on invoking CyBle_GapcStopScan() and then receiving the
1040:.\Generated_Source\PSoC4/BLE_1.c ****     *  event CYBLE_EVT_GAPC_SCAN_START_STOP with sub-parameter 'success' = 0x01u.
1041:.\Generated_Source\PSoC4/BLE_1.c ****     *  
1042:.\Generated_Source\PSoC4/BLE_1.c ****     *  On successful connection, the following events are generated at the GAP 
1043:.\Generated_Source\PSoC4/BLE_1.c ****     *  Central device (as well as the GAP Peripheral device), in the following order.
1044:.\Generated_Source\PSoC4/BLE_1.c ****     *  * CYBLE_EVT_GATT_CONNECT_IND
1045:.\Generated_Source\PSoC4/BLE_1.c ****     *  * CYBLE_EVT_GAP_DEVICE_CONNECTED - If the device connects to a GAP Central and 
1046:.\Generated_Source\PSoC4/BLE_1.c ****     *    Link Layer Privacy is disabled in component customizer.
1047:.\Generated_Source\PSoC4/BLE_1.c ****     *  * CYBLE_EVT_GAP_ENHANCE_CONN_COMPLETE - If the device connects to a GAP Central and 
ARM GAS  C:\Users\Ecapable\AppData\Local\Temp\ccZwSw0g.s 			page 32


1048:.\Generated_Source\PSoC4/BLE_1.c ****     *    Link Layer Privacy is enabled in component customizer.
1049:.\Generated_Source\PSoC4/BLE_1.c ****     *  * CYBLE_EVT_GAP_DEVICE_CONNECTED
1050:.\Generated_Source\PSoC4/BLE_1.c ****     *  
1051:.\Generated_Source\PSoC4/BLE_1.c ****     *  A procedure is considered to have timed out if a connection response packet is 
1052:.\Generated_Source\PSoC4/BLE_1.c ****     *  not received within time set by cyBle_connectingTimeout global variable
1053:.\Generated_Source\PSoC4/BLE_1.c ****     *  (30 seconds by default). CYBLE_EVT_TIMEOUT event with CYBLE_GENERIC_TO parameter
1054:.\Generated_Source\PSoC4/BLE_1.c ****     *  will indicate about connection procedure timeout. Connection will automatically
1055:.\Generated_Source\PSoC4/BLE_1.c ****     *  be canceled and state will be changed to CYBLE_STATE_DISCONNECTED.
1056:.\Generated_Source\PSoC4/BLE_1.c ****     * 
1057:.\Generated_Source\PSoC4/BLE_1.c ****     *  \param address: The device address of the remote device to connect to. 
1058:.\Generated_Source\PSoC4/BLE_1.c ****     *  
1059:.\Generated_Source\PSoC4/BLE_1.c ****     * \return
1060:.\Generated_Source\PSoC4/BLE_1.c ****     *  CYBLE_API_RESULT_T : Return value indicates if the function succeeded or 
1061:.\Generated_Source\PSoC4/BLE_1.c ****     *  failed. Following are the possible error codes.
1062:.\Generated_Source\PSoC4/BLE_1.c ****     *
1063:.\Generated_Source\PSoC4/BLE_1.c ****     *   Errors codes                       | Description
1064:.\Generated_Source\PSoC4/BLE_1.c ****     *   ------------                       | -----------
1065:.\Generated_Source\PSoC4/BLE_1.c ****     *   CYBLE_ERROR_OK                     | On successful operation.
1066:.\Generated_Source\PSoC4/BLE_1.c ****     *   CYBLE_ERROR_STACK_INTERNAL         | On error occurred in the BLE stack.
1067:.\Generated_Source\PSoC4/BLE_1.c ****     *   CYBLE_ERROR_INVALID_PARAMETER      | On passing an invalid parameter.
1068:.\Generated_Source\PSoC4/BLE_1.c ****     *   CYBLE_ERROR_INVALID_STATE          | On calling this API not in Disconnected state.
1069:.\Generated_Source\PSoC4/BLE_1.c ****     *  
1070:.\Generated_Source\PSoC4/BLE_1.c ****     ******************************************************************************/
1071:.\Generated_Source\PSoC4/BLE_1.c ****     CYBLE_API_RESULT_T CyBle_GapcConnectDevice(const CYBLE_GAP_BD_ADDR_T * address)
1072:.\Generated_Source\PSoC4/BLE_1.c ****     {
1073:.\Generated_Source\PSoC4/BLE_1.c ****         CYBLE_API_RESULT_T apiResult;
1074:.\Generated_Source\PSoC4/BLE_1.c ****         uint8 i;
1075:.\Generated_Source\PSoC4/BLE_1.c **** 
1076:.\Generated_Source\PSoC4/BLE_1.c ****         if(CyBle_GetState() != CYBLE_STATE_DISCONNECTED)
1077:.\Generated_Source\PSoC4/BLE_1.c ****         {
1078:.\Generated_Source\PSoC4/BLE_1.c ****             apiResult = CYBLE_ERROR_INVALID_STATE;
1079:.\Generated_Source\PSoC4/BLE_1.c ****         }
1080:.\Generated_Source\PSoC4/BLE_1.c ****         else if(address == NULL)
1081:.\Generated_Source\PSoC4/BLE_1.c ****         {
1082:.\Generated_Source\PSoC4/BLE_1.c ****             apiResult = CYBLE_ERROR_INVALID_PARAMETER;
1083:.\Generated_Source\PSoC4/BLE_1.c ****         }
1084:.\Generated_Source\PSoC4/BLE_1.c ****         else
1085:.\Generated_Source\PSoC4/BLE_1.c ****         {
1086:.\Generated_Source\PSoC4/BLE_1.c ****             for(i = 0u; i < CYBLE_GAP_BD_ADDR_SIZE; i++)
1087:.\Generated_Source\PSoC4/BLE_1.c ****             {
1088:.\Generated_Source\PSoC4/BLE_1.c ****                 cyBle_connectionParameters.peerBdAddr[i] = address->bdAddr[i];
1089:.\Generated_Source\PSoC4/BLE_1.c ****             }
1090:.\Generated_Source\PSoC4/BLE_1.c ****             cyBle_connectionParameters.peerAddrType = address -> type;
1091:.\Generated_Source\PSoC4/BLE_1.c ****             apiResult = CyBle_GapcInitConnection(&cyBle_connectionParameters);
1092:.\Generated_Source\PSoC4/BLE_1.c ****             
1093:.\Generated_Source\PSoC4/BLE_1.c ****             if(apiResult == CYBLE_ERROR_OK)
1094:.\Generated_Source\PSoC4/BLE_1.c ****             {
1095:.\Generated_Source\PSoC4/BLE_1.c ****                 CyBle_SetState(CYBLE_STATE_CONNECTING);
1096:.\Generated_Source\PSoC4/BLE_1.c ****                 if(cyBle_connectingTimeout != 0u)
1097:.\Generated_Source\PSoC4/BLE_1.c ****                 {
1098:.\Generated_Source\PSoC4/BLE_1.c ****                     (void)CyBle_StartTimer(cyBle_connectingTimeout);
1099:.\Generated_Source\PSoC4/BLE_1.c ****                 }
1100:.\Generated_Source\PSoC4/BLE_1.c ****             }
1101:.\Generated_Source\PSoC4/BLE_1.c ****         }
1102:.\Generated_Source\PSoC4/BLE_1.c ****         return (apiResult);
1103:.\Generated_Source\PSoC4/BLE_1.c ****     }
1104:.\Generated_Source\PSoC4/BLE_1.c ****     
ARM GAS  C:\Users\Ecapable\AppData\Local\Temp\ccZwSw0g.s 			page 33


1105:.\Generated_Source\PSoC4/BLE_1.c **** 
1106:.\Generated_Source\PSoC4/BLE_1.c ****     /******************************************************************************
1107:.\Generated_Source\PSoC4/BLE_1.c ****     * Function Name: CyBle_GapcCancelDeviceConnection
1108:.\Generated_Source\PSoC4/BLE_1.c ****     ***************************************************************************//**
1109:.\Generated_Source\PSoC4/BLE_1.c ****     * 
1110:.\Generated_Source\PSoC4/BLE_1.c ****     *  This function cancels a previously initiated connection with the remote 
1111:.\Generated_Source\PSoC4/BLE_1.c ****     *  device. It is a blocking function. No event is generated on calling this 
1112:.\Generated_Source\PSoC4/BLE_1.c ****     *  function. If the devices are already connected then this function should not
1113:.\Generated_Source\PSoC4/BLE_1.c ****     *  be used. If you intend to disconnect from an existing connection, the function
1114:.\Generated_Source\PSoC4/BLE_1.c ****     *  CyBle_GapDisconnect() should be used.
1115:.\Generated_Source\PSoC4/BLE_1.c ****     * 
1116:.\Generated_Source\PSoC4/BLE_1.c ****     * \return
1117:.\Generated_Source\PSoC4/BLE_1.c ****     *  CYBLE_API_RESULT_T : Return value indicates if the function succeeded or 
1118:.\Generated_Source\PSoC4/BLE_1.c ****     *  failed. Following are the possible error codes.
1119:.\Generated_Source\PSoC4/BLE_1.c ****     *
1120:.\Generated_Source\PSoC4/BLE_1.c ****     *   Errors codes                       | Description
1121:.\Generated_Source\PSoC4/BLE_1.c ****     *   ---------------------------------- | --------------------------------------
1122:.\Generated_Source\PSoC4/BLE_1.c ****     *   CYBLE_ERROR_OK                     | On successful operation.
1123:.\Generated_Source\PSoC4/BLE_1.c ****     *   CYBLE_ERROR_STACK_INTERNAL         | An error occurred in the BLE stack.
1124:.\Generated_Source\PSoC4/BLE_1.c ****     *   CYBLE_ERROR_INVALID_STATE          | On calling this API not in Connecting state.
1125:.\Generated_Source\PSoC4/BLE_1.c ****     *  
1126:.\Generated_Source\PSoC4/BLE_1.c ****     *******************************************************************************/
1127:.\Generated_Source\PSoC4/BLE_1.c ****     CYBLE_API_RESULT_T CyBle_GapcCancelDeviceConnection(void)
1128:.\Generated_Source\PSoC4/BLE_1.c ****     {
1129:.\Generated_Source\PSoC4/BLE_1.c ****         CYBLE_API_RESULT_T apiResult;
1130:.\Generated_Source\PSoC4/BLE_1.c ****         
1131:.\Generated_Source\PSoC4/BLE_1.c ****         if(CyBle_GetState() != CYBLE_STATE_CONNECTING)
1132:.\Generated_Source\PSoC4/BLE_1.c ****         {
1133:.\Generated_Source\PSoC4/BLE_1.c ****             apiResult = CYBLE_ERROR_INVALID_STATE;
1134:.\Generated_Source\PSoC4/BLE_1.c ****         }
1135:.\Generated_Source\PSoC4/BLE_1.c ****         else 
1136:.\Generated_Source\PSoC4/BLE_1.c ****         {
1137:.\Generated_Source\PSoC4/BLE_1.c ****             apiResult = CyBle_GapcCancelConnection();
1138:.\Generated_Source\PSoC4/BLE_1.c ****             
1139:.\Generated_Source\PSoC4/BLE_1.c ****             if(cyBle_connectingTimeout != 0u)
1140:.\Generated_Source\PSoC4/BLE_1.c ****             {
1141:.\Generated_Source\PSoC4/BLE_1.c ****                 (void)CyBle_StopTimer();
1142:.\Generated_Source\PSoC4/BLE_1.c ****             }
1143:.\Generated_Source\PSoC4/BLE_1.c **** 
1144:.\Generated_Source\PSoC4/BLE_1.c ****             if(apiResult == CYBLE_ERROR_OK)
1145:.\Generated_Source\PSoC4/BLE_1.c ****             {
1146:.\Generated_Source\PSoC4/BLE_1.c ****                 CyBle_SetState(CYBLE_STATE_DISCONNECTED);
1147:.\Generated_Source\PSoC4/BLE_1.c ****             }
1148:.\Generated_Source\PSoC4/BLE_1.c ****         }
1149:.\Generated_Source\PSoC4/BLE_1.c ****         return (apiResult);
1150:.\Generated_Source\PSoC4/BLE_1.c ****     }    
1151:.\Generated_Source\PSoC4/BLE_1.c **** 
1152:.\Generated_Source\PSoC4/BLE_1.c ****     
1153:.\Generated_Source\PSoC4/BLE_1.c **** #endif /* CYBLE_GAP_ROLE_CENTRAL */
1154:.\Generated_Source\PSoC4/BLE_1.c **** 
1155:.\Generated_Source\PSoC4/BLE_1.c **** 
1156:.\Generated_Source\PSoC4/BLE_1.c **** #if(CYBLE_GATT_ROLE_SERVER)
1157:.\Generated_Source\PSoC4/BLE_1.c **** 
1158:.\Generated_Source\PSoC4/BLE_1.c **** #if(CYBLE_GAP_ROLE_PERIPHERAL)
1159:.\Generated_Source\PSoC4/BLE_1.c **** 
1160:.\Generated_Source\PSoC4/BLE_1.c ****         /******************************************************************************
1161:.\Generated_Source\PSoC4/BLE_1.c ****         * Function Name: CyBle_ChangeAdLocalName
ARM GAS  C:\Users\Ecapable\AppData\Local\Temp\ccZwSw0g.s 			page 34


1162:.\Generated_Source\PSoC4/BLE_1.c ****         ***************************************************************************//**
1163:.\Generated_Source\PSoC4/BLE_1.c ****         *  This API is used to set the local device name in the advertisement or scan 
1164:.\Generated_Source\PSoC4/BLE_1.c ****         *  response data structure.
1165:.\Generated_Source\PSoC4/BLE_1.c ****         * 
1166:.\Generated_Source\PSoC4/BLE_1.c ****         *  \param name: The local device name string to be set in advertisement data 
1167:.\Generated_Source\PSoC4/BLE_1.c ****         *            structure.
1168:.\Generated_Source\PSoC4/BLE_1.c ****         *  \param dest: 0 - advertisement structure, not zero value selects scan response
1169:.\Generated_Source\PSoC4/BLE_1.c ****         *              structure.
1170:.\Generated_Source\PSoC4/BLE_1.c ****         * 
1171:.\Generated_Source\PSoC4/BLE_1.c ****         * \return
1172:.\Generated_Source\PSoC4/BLE_1.c ****         *  None
1173:.\Generated_Source\PSoC4/BLE_1.c ****         *  
1174:.\Generated_Source\PSoC4/BLE_1.c ****         *******************************************************************************/
1175:.\Generated_Source\PSoC4/BLE_1.c ****         static void CyBle_ChangeAdLocalName(const char8 name[], uint8 dest)
1176:.\Generated_Source\PSoC4/BLE_1.c ****         {
 710              		.loc 1 1176 0
 711              		.cfi_startproc
 712 0000 80B5     		push	{r7, lr}
 713              		.cfi_def_cfa_offset 8
 714              		.cfi_offset 7, -8
 715              		.cfi_offset 14, -4
 716 0002 86B0     		sub	sp, sp, #24
 717              		.cfi_def_cfa_offset 32
 718 0004 00AF     		add	r7, sp, #0
 719              		.cfi_def_cfa_register 7
 720 0006 7860     		str	r0, [r7, #4]
 721 0008 0A1C     		mov	r2, r1
 722 000a FB1C     		add	r3, r7, #3
 723 000c 1A70     		strb	r2, [r3]
1177:.\Generated_Source\PSoC4/BLE_1.c ****             uint8 i;
1178:.\Generated_Source\PSoC4/BLE_1.c ****             uint8 flag = 0u;
 724              		.loc 1 1178 0
 725 000e 1623     		mov	r3, #22
 726 0010 FB18     		add	r3, r7, r3
 727 0012 0022     		mov	r2, #0
 728 0014 1A70     		strb	r2, [r3]
1179:.\Generated_Source\PSoC4/BLE_1.c ****             uint8 adLength = 0u;
 729              		.loc 1 1179 0
 730 0016 1523     		mov	r3, #21
 731 0018 FB18     		add	r3, r7, r3
 732 001a 0022     		mov	r2, #0
 733 001c 1A70     		strb	r2, [r3]
1180:.\Generated_Source\PSoC4/BLE_1.c ****             uint8 byteCounter = 0u;
 734              		.loc 1 1180 0
 735 001e 1423     		mov	r3, #20
 736 0020 FB18     		add	r3, r7, r3
 737 0022 0022     		mov	r2, #0
 738 0024 1A70     		strb	r2, [r3]
1181:.\Generated_Source\PSoC4/BLE_1.c ****             uint8 *destBuffer;
1182:.\Generated_Source\PSoC4/BLE_1.c ****             uint8 maxLength;
1183:.\Generated_Source\PSoC4/BLE_1.c ****             
1184:.\Generated_Source\PSoC4/BLE_1.c ****             if(dest == 0u)      /* Destination - advertising structure */
 739              		.loc 1 1184 0
 740 0026 FB1C     		add	r3, r7, #3
 741 0028 1B78     		ldrb	r3, [r3]
 742 002a 002B     		cmp	r3, #0
 743 002c 07D1     		bne	.L35
ARM GAS  C:\Users\Ecapable\AppData\Local\Temp\ccZwSw0g.s 			page 35


1185:.\Generated_Source\PSoC4/BLE_1.c ****             {
1186:.\Generated_Source\PSoC4/BLE_1.c ****                 destBuffer = cyBle_discoveryData.advData;
 744              		.loc 1 1186 0
 745 002e 5B4B     		ldr	r3, .L50
 746 0030 3B61     		str	r3, [r7, #16]
1187:.\Generated_Source\PSoC4/BLE_1.c ****                 maxLength = cyBle_discoveryData.advDataLen;
 747              		.loc 1 1187 0
 748 0032 0F23     		mov	r3, #15
 749 0034 FB18     		add	r3, r7, r3
 750 0036 594A     		ldr	r2, .L50
 751 0038 D27F     		ldrb	r2, [r2, #31]
 752 003a 1A70     		strb	r2, [r3]
 753 003c 06E0     		b	.L36
 754              	.L35:
1188:.\Generated_Source\PSoC4/BLE_1.c ****             }
1189:.\Generated_Source\PSoC4/BLE_1.c ****             else                /* Destination - scan response structure */
1190:.\Generated_Source\PSoC4/BLE_1.c ****             {
1191:.\Generated_Source\PSoC4/BLE_1.c ****                 destBuffer = cyBle_scanRspData.scanRspData;
 755              		.loc 1 1191 0
 756 003e 584B     		ldr	r3, .L50+4
 757 0040 3B61     		str	r3, [r7, #16]
1192:.\Generated_Source\PSoC4/BLE_1.c ****                 maxLength = cyBle_scanRspData.scanRspDataLen;
 758              		.loc 1 1192 0
 759 0042 0F23     		mov	r3, #15
 760 0044 FB18     		add	r3, r7, r3
 761 0046 564A     		ldr	r2, .L50+4
 762 0048 D27F     		ldrb	r2, [r2, #31]
 763 004a 1A70     		strb	r2, [r3]
 764              	.L36:
1193:.\Generated_Source\PSoC4/BLE_1.c ****             }
1194:.\Generated_Source\PSoC4/BLE_1.c ****             
1195:.\Generated_Source\PSoC4/BLE_1.c ****             while((byteCounter < maxLength) && (0u == flag))
 765              		.loc 1 1195 0
 766 004c 35E0     		b	.L37
 767              	.L43:
1196:.\Generated_Source\PSoC4/BLE_1.c ****             {
1197:.\Generated_Source\PSoC4/BLE_1.c ****                 adLength = destBuffer[byteCounter];
 768              		.loc 1 1197 0
 769 004e 1423     		mov	r3, #20
 770 0050 FB18     		add	r3, r7, r3
 771 0052 1B78     		ldrb	r3, [r3]
 772 0054 3A69     		ldr	r2, [r7, #16]
 773 0056 D218     		add	r2, r2, r3
 774 0058 1523     		mov	r3, #21
 775 005a FB18     		add	r3, r7, r3
 776 005c 1278     		ldrb	r2, [r2]
 777 005e 1A70     		strb	r2, [r3]
1198:.\Generated_Source\PSoC4/BLE_1.c ****                 
1199:.\Generated_Source\PSoC4/BLE_1.c ****                 if(0u != adLength)
 778              		.loc 1 1199 0
 779 0060 1523     		mov	r3, #21
 780 0062 FB18     		add	r3, r7, r3
 781 0064 1B78     		ldrb	r3, [r3]
 782 0066 002B     		cmp	r3, #0
 783 0068 26D0     		beq	.L38
1200:.\Generated_Source\PSoC4/BLE_1.c ****                 {
1201:.\Generated_Source\PSoC4/BLE_1.c ****                     /* Increment byte counter so it can point to AD type */
ARM GAS  C:\Users\Ecapable\AppData\Local\Temp\ccZwSw0g.s 			page 36


1202:.\Generated_Source\PSoC4/BLE_1.c ****                     byteCounter++;
 784              		.loc 1 1202 0
 785 006a 1423     		mov	r3, #20
 786 006c FB18     		add	r3, r7, r3
 787 006e 1A78     		ldrb	r2, [r3]
 788 0070 1423     		mov	r3, #20
 789 0072 FB18     		add	r3, r7, r3
 790 0074 0132     		add	r2, r2, #1
 791 0076 1A70     		strb	r2, [r3]
1203:.\Generated_Source\PSoC4/BLE_1.c ****                     
1204:.\Generated_Source\PSoC4/BLE_1.c ****                     if((CYBLE_SHORT_LOCAL_NAME == destBuffer[byteCounter]) || 
 792              		.loc 1 1204 0
 793 0078 1423     		mov	r3, #20
 794 007a FB18     		add	r3, r7, r3
 795 007c 1B78     		ldrb	r3, [r3]
 796 007e 3A69     		ldr	r2, [r7, #16]
 797 0080 D318     		add	r3, r2, r3
 798 0082 1B78     		ldrb	r3, [r3]
 799 0084 082B     		cmp	r3, #8
 800 0086 07D0     		beq	.L39
1205:.\Generated_Source\PSoC4/BLE_1.c ****                        (CYBLE_COMPLETE_LOCAL_NAME == destBuffer[byteCounter]))
 801              		.loc 1 1205 0 discriminator 1
 802 0088 1423     		mov	r3, #20
 803 008a FB18     		add	r3, r7, r3
 804 008c 1B78     		ldrb	r3, [r3]
 805 008e 3A69     		ldr	r2, [r7, #16]
 806 0090 D318     		add	r3, r2, r3
 807 0092 1B78     		ldrb	r3, [r3]
1204:.\Generated_Source\PSoC4/BLE_1.c ****                        (CYBLE_COMPLETE_LOCAL_NAME == destBuffer[byteCounter]))
 808              		.loc 1 1204 0 discriminator 1
 809 0094 092B     		cmp	r3, #9
 810 0096 04D1     		bne	.L40
 811              	.L39:
1206:.\Generated_Source\PSoC4/BLE_1.c ****                     {
1207:.\Generated_Source\PSoC4/BLE_1.c ****                         /* Start of the Local Name AD type was fount. Set flag and exit the loop. *
1208:.\Generated_Source\PSoC4/BLE_1.c ****                         flag = 1u;
 812              		.loc 1 1208 0
 813 0098 1623     		mov	r3, #22
 814 009a FB18     		add	r3, r7, r3
 815 009c 0122     		mov	r2, #1
 816 009e 1A70     		strb	r2, [r3]
 817 00a0 09E0     		b	.L41
 818              	.L40:
1209:.\Generated_Source\PSoC4/BLE_1.c ****                     }
1210:.\Generated_Source\PSoC4/BLE_1.c ****                     else
1211:.\Generated_Source\PSoC4/BLE_1.c ****                     {
1212:.\Generated_Source\PSoC4/BLE_1.c ****                         byteCounter += adLength;
 819              		.loc 1 1212 0
 820 00a2 1423     		mov	r3, #20
 821 00a4 FB18     		add	r3, r7, r3
 822 00a6 1422     		mov	r2, #20
 823 00a8 B918     		add	r1, r7, r2
 824 00aa 1522     		mov	r2, #21
 825 00ac BA18     		add	r2, r7, r2
 826 00ae 0978     		ldrb	r1, [r1]
 827 00b0 1278     		ldrb	r2, [r2]
 828 00b2 8A18     		add	r2, r1, r2
ARM GAS  C:\Users\Ecapable\AppData\Local\Temp\ccZwSw0g.s 			page 37


 829 00b4 1A70     		strb	r2, [r3]
 830              	.L41:
 831 00b6 00E0     		b	.L37
 832              	.L38:
1213:.\Generated_Source\PSoC4/BLE_1.c ****                     }
1214:.\Generated_Source\PSoC4/BLE_1.c ****                 }
1215:.\Generated_Source\PSoC4/BLE_1.c ****                 else
1216:.\Generated_Source\PSoC4/BLE_1.c ****                 {
1217:.\Generated_Source\PSoC4/BLE_1.c ****                     /* The end of advertisement data structure was encountered though exit the loop
1218:.\Generated_Source\PSoC4/BLE_1.c ****                     break;
 833              		.loc 1 1218 0
 834 00b8 0CE0     		b	.L42
 835              	.L37:
1195:.\Generated_Source\PSoC4/BLE_1.c ****             {
 836              		.loc 1 1195 0
 837 00ba 1423     		mov	r3, #20
 838 00bc FA18     		add	r2, r7, r3
 839 00be 0F23     		mov	r3, #15
 840 00c0 FB18     		add	r3, r7, r3
 841 00c2 1278     		ldrb	r2, [r2]
 842 00c4 1B78     		ldrb	r3, [r3]
 843 00c6 9A42     		cmp	r2, r3
 844 00c8 04D2     		bcs	.L42
1195:.\Generated_Source\PSoC4/BLE_1.c ****             {
 845              		.loc 1 1195 0 is_stmt 0 discriminator 1
 846 00ca 1623     		mov	r3, #22
 847 00cc FB18     		add	r3, r7, r3
 848 00ce 1B78     		ldrb	r3, [r3]
 849 00d0 002B     		cmp	r3, #0
 850 00d2 BCD0     		beq	.L43
 851              	.L42:
1219:.\Generated_Source\PSoC4/BLE_1.c ****                 }
1220:.\Generated_Source\PSoC4/BLE_1.c ****             }
1221:.\Generated_Source\PSoC4/BLE_1.c ****             
1222:.\Generated_Source\PSoC4/BLE_1.c ****             if(0u != flag)
 852              		.loc 1 1222 0 is_stmt 1
 853 00d4 1623     		mov	r3, #22
 854 00d6 FB18     		add	r3, r7, r3
 855 00d8 1B78     		ldrb	r3, [r3]
 856 00da 002B     		cmp	r3, #0
 857 00dc 5BD0     		beq	.L34
1223:.\Generated_Source\PSoC4/BLE_1.c ****             {
1224:.\Generated_Source\PSoC4/BLE_1.c ****                 /* Reuse "adLength" to hold location of the last character of local name in 
1225:.\Generated_Source\PSoC4/BLE_1.c ****                    AD structure. */
1226:.\Generated_Source\PSoC4/BLE_1.c ****                 adLength += byteCounter;
 858              		.loc 1 1226 0
 859 00de 1523     		mov	r3, #21
 860 00e0 FB18     		add	r3, r7, r3
 861 00e2 1522     		mov	r2, #21
 862 00e4 B918     		add	r1, r7, r2
 863 00e6 1422     		mov	r2, #20
 864 00e8 BA18     		add	r2, r7, r2
 865 00ea 0978     		ldrb	r1, [r1]
 866 00ec 1278     		ldrb	r2, [r2]
 867 00ee 8A18     		add	r2, r1, r2
 868 00f0 1A70     		strb	r2, [r3]
1227:.\Generated_Source\PSoC4/BLE_1.c ****                 
ARM GAS  C:\Users\Ecapable\AppData\Local\Temp\ccZwSw0g.s 			page 38


1228:.\Generated_Source\PSoC4/BLE_1.c ****                 /* Increment byte counter to point to start of the local Name string */
1229:.\Generated_Source\PSoC4/BLE_1.c ****                 byteCounter++;
 869              		.loc 1 1229 0
 870 00f2 1423     		mov	r3, #20
 871 00f4 FB18     		add	r3, r7, r3
 872 00f6 1A78     		ldrb	r2, [r3]
 873 00f8 1423     		mov	r3, #20
 874 00fa FB18     		add	r3, r7, r3
 875 00fc 0132     		add	r2, r2, #1
 876 00fe 1A70     		strb	r2, [r3]
1230:.\Generated_Source\PSoC4/BLE_1.c ****                 
1231:.\Generated_Source\PSoC4/BLE_1.c ****                 for(i = byteCounter; ((i < (adLength)) && (CYBLE_NULL_CHARCTER != name[i - byteCoun
 877              		.loc 1 1231 0
 878 0100 1723     		mov	r3, #23
 879 0102 FB18     		add	r3, r7, r3
 880 0104 1422     		mov	r2, #20
 881 0106 BA18     		add	r2, r7, r2
 882 0108 1278     		ldrb	r2, [r2]
 883 010a 1A70     		strb	r2, [r3]
 884 010c 17E0     		b	.L45
 885              	.L47:
1232:.\Generated_Source\PSoC4/BLE_1.c ****                 {
1233:.\Generated_Source\PSoC4/BLE_1.c ****                     destBuffer[i] = (uint8)name[i - byteCounter];
 886              		.loc 1 1233 0 discriminator 4
 887 010e 1723     		mov	r3, #23
 888 0110 FB18     		add	r3, r7, r3
 889 0112 1B78     		ldrb	r3, [r3]
 890 0114 3A69     		ldr	r2, [r7, #16]
 891 0116 D318     		add	r3, r2, r3
 892 0118 1722     		mov	r2, #23
 893 011a BA18     		add	r2, r7, r2
 894 011c 1178     		ldrb	r1, [r2]
 895 011e 1422     		mov	r2, #20
 896 0120 BA18     		add	r2, r7, r2
 897 0122 1278     		ldrb	r2, [r2]
 898 0124 8A1A     		sub	r2, r1, r2
 899 0126 111C     		mov	r1, r2
 900 0128 7A68     		ldr	r2, [r7, #4]
 901 012a 5218     		add	r2, r2, r1
 902 012c 1278     		ldrb	r2, [r2]
 903 012e 1A70     		strb	r2, [r3]
1231:.\Generated_Source\PSoC4/BLE_1.c ****                 {
 904              		.loc 1 1231 0 discriminator 4
 905 0130 1723     		mov	r3, #23
 906 0132 FB18     		add	r3, r7, r3
 907 0134 1A78     		ldrb	r2, [r3]
 908 0136 1723     		mov	r3, #23
 909 0138 FB18     		add	r3, r7, r3
 910 013a 0132     		add	r2, r2, #1
 911 013c 1A70     		strb	r2, [r3]
 912              	.L45:
1231:.\Generated_Source\PSoC4/BLE_1.c ****                 {
 913              		.loc 1 1231 0 is_stmt 0 discriminator 1
 914 013e 1723     		mov	r3, #23
 915 0140 FA18     		add	r2, r7, r3
 916 0142 1523     		mov	r3, #21
 917 0144 FB18     		add	r3, r7, r3
ARM GAS  C:\Users\Ecapable\AppData\Local\Temp\ccZwSw0g.s 			page 39


 918 0146 1278     		ldrb	r2, [r2]
 919 0148 1B78     		ldrb	r3, [r3]
 920 014a 9A42     		cmp	r2, r3
 921 014c 0CD2     		bcs	.L46
1231:.\Generated_Source\PSoC4/BLE_1.c ****                 {
 922              		.loc 1 1231 0 discriminator 3
 923 014e 1723     		mov	r3, #23
 924 0150 FB18     		add	r3, r7, r3
 925 0152 1A78     		ldrb	r2, [r3]
 926 0154 1423     		mov	r3, #20
 927 0156 FB18     		add	r3, r7, r3
 928 0158 1B78     		ldrb	r3, [r3]
 929 015a D31A     		sub	r3, r2, r3
 930 015c 1A1C     		mov	r2, r3
 931 015e 7B68     		ldr	r3, [r7, #4]
 932 0160 9B18     		add	r3, r3, r2
 933 0162 1B78     		ldrb	r3, [r3]
 934 0164 002B     		cmp	r3, #0
 935 0166 D2D1     		bne	.L47
 936              	.L46:
1234:.\Generated_Source\PSoC4/BLE_1.c ****                 }
1235:.\Generated_Source\PSoC4/BLE_1.c ****                 
1236:.\Generated_Source\PSoC4/BLE_1.c ****                 /* This loop handles the case when new local name is shorted than old one.
1237:.\Generated_Source\PSoC4/BLE_1.c ****                    In this case all remaining characters should be null characters. */
1238:.\Generated_Source\PSoC4/BLE_1.c ****                 while(adLength > i)
 937              		.loc 1 1238 0 is_stmt 1
 938 0168 0DE0     		b	.L48
 939              	.L49:
1239:.\Generated_Source\PSoC4/BLE_1.c ****                 {
1240:.\Generated_Source\PSoC4/BLE_1.c ****                     /* Terminate string */
1241:.\Generated_Source\PSoC4/BLE_1.c ****                     destBuffer[i] = (uint8)CYBLE_NULL_CHARCTER;
 940              		.loc 1 1241 0
 941 016a 1723     		mov	r3, #23
 942 016c FB18     		add	r3, r7, r3
 943 016e 1B78     		ldrb	r3, [r3]
 944 0170 3A69     		ldr	r2, [r7, #16]
 945 0172 D318     		add	r3, r2, r3
 946 0174 0022     		mov	r2, #0
 947 0176 1A70     		strb	r2, [r3]
1242:.\Generated_Source\PSoC4/BLE_1.c ****                     i++;
 948              		.loc 1 1242 0
 949 0178 1723     		mov	r3, #23
 950 017a FB18     		add	r3, r7, r3
 951 017c 1A78     		ldrb	r2, [r3]
 952 017e 1723     		mov	r3, #23
 953 0180 FB18     		add	r3, r7, r3
 954 0182 0132     		add	r2, r2, #1
 955 0184 1A70     		strb	r2, [r3]
 956              	.L48:
1238:.\Generated_Source\PSoC4/BLE_1.c ****                 {
 957              		.loc 1 1238 0
 958 0186 1523     		mov	r3, #21
 959 0188 FA18     		add	r2, r7, r3
 960 018a 1723     		mov	r3, #23
 961 018c FB18     		add	r3, r7, r3
 962 018e 1278     		ldrb	r2, [r2]
 963 0190 1B78     		ldrb	r3, [r3]
ARM GAS  C:\Users\Ecapable\AppData\Local\Temp\ccZwSw0g.s 			page 40


 964 0192 9A42     		cmp	r2, r3
 965 0194 E9D8     		bhi	.L49
 966              	.L34:
1243:.\Generated_Source\PSoC4/BLE_1.c ****                 }
1244:.\Generated_Source\PSoC4/BLE_1.c ****             }
1245:.\Generated_Source\PSoC4/BLE_1.c ****         }
 967              		.loc 1 1245 0
 968 0196 BD46     		mov	sp, r7
 969 0198 06B0     		add	sp, sp, #24
 970              		@ sp needed
 971 019a 80BD     		pop	{r7, pc}
 972              	.L51:
 973              		.align	2
 974              	.L50:
 975 019c 00000000 		.word	cyBle_discoveryData
 976 01a0 00000000 		.word	cyBle_scanRspData
 977              		.cfi_endproc
 978              	.LFE9:
 979              		.size	CyBle_ChangeAdLocalName, .-CyBle_ChangeAdLocalName
 980              		.section	.text.CyBle_GapSetLocalName,"ax",%progbits
 981              		.align	2
 982              		.global	CyBle_GapSetLocalName
 983              		.code	16
 984              		.thumb_func
 985              		.type	CyBle_GapSetLocalName, %function
 986              	CyBle_GapSetLocalName:
 987              	.LFB10:
1246:.\Generated_Source\PSoC4/BLE_1.c ****         
1247:.\Generated_Source\PSoC4/BLE_1.c **** #endif /* (CYBLE_GAP_ROLE_PERIPHERAL) */  
1248:.\Generated_Source\PSoC4/BLE_1.c ****     
1249:.\Generated_Source\PSoC4/BLE_1.c ****     
1250:.\Generated_Source\PSoC4/BLE_1.c ****     /******************************************************************************
1251:.\Generated_Source\PSoC4/BLE_1.c ****     * Function Name: CyBle_GapSetLocalName
1252:.\Generated_Source\PSoC4/BLE_1.c ****     ***************************************************************************//**
1253:.\Generated_Source\PSoC4/BLE_1.c ****     *  This API is used to set the local device name - a Characteristic of the 
1254:.\Generated_Source\PSoC4/BLE_1.c ****     *  GAP Service. If the characteristic length entered in the component customizer
1255:.\Generated_Source\PSoC4/BLE_1.c ****     *  is shorter than the string specified by the "name" parameter, the local device
1256:.\Generated_Source\PSoC4/BLE_1.c ****     *  name will be cut to the length specified in the customizer.
1257:.\Generated_Source\PSoC4/BLE_1.c ****     * 
1258:.\Generated_Source\PSoC4/BLE_1.c ****     *  \param name: The local device name string. The name string to be written as
1259:.\Generated_Source\PSoC4/BLE_1.c ****     *              the local device name. It represents a UTF-8 encoded User
1260:.\Generated_Source\PSoC4/BLE_1.c ****     *              Friendly Descriptive Name for the device. The length of the local
1261:.\Generated_Source\PSoC4/BLE_1.c ****     *              device string is entered into the component customizer and it can
1262:.\Generated_Source\PSoC4/BLE_1.c ****     *              be set to a value from 0 to 248 bytes. If the name contained in
1263:.\Generated_Source\PSoC4/BLE_1.c ****     *              the parameter is shorter than the length from the customizer, the
1264:.\Generated_Source\PSoC4/BLE_1.c ****     *              end of the name is indicated by a NULL octet (0x00).
1265:.\Generated_Source\PSoC4/BLE_1.c ****     * 
1266:.\Generated_Source\PSoC4/BLE_1.c ****     * \return
1267:.\Generated_Source\PSoC4/BLE_1.c ****     *  CYBLE_API_RESULT_T : Return value indicates if the function succeeded or 
1268:.\Generated_Source\PSoC4/BLE_1.c ****     *  failed. Following are the possible error codes.
1269:.\Generated_Source\PSoC4/BLE_1.c ****     *
1270:.\Generated_Source\PSoC4/BLE_1.c ****     *   Errors codes                       | Description
1271:.\Generated_Source\PSoC4/BLE_1.c ****     *   ------------                       | -----------
1272:.\Generated_Source\PSoC4/BLE_1.c ****     *   CYBLE_ERROR_OK                     | Function completed successfully.
1273:.\Generated_Source\PSoC4/BLE_1.c ****     *   CYBLE_ERROR_INVALID_PARAMETER      | On specifying NULL as input parameter
1274:.\Generated_Source\PSoC4/BLE_1.c ****     *  
1275:.\Generated_Source\PSoC4/BLE_1.c ****     *******************************************************************************/
ARM GAS  C:\Users\Ecapable\AppData\Local\Temp\ccZwSw0g.s 			page 41


1276:.\Generated_Source\PSoC4/BLE_1.c ****     CYBLE_API_RESULT_T CyBle_GapSetLocalName(const char8 name[])
1277:.\Generated_Source\PSoC4/BLE_1.c ****     {
 988              		.loc 1 1277 0
 989              		.cfi_startproc
 990 0000 80B5     		push	{r7, lr}
 991              		.cfi_def_cfa_offset 8
 992              		.cfi_offset 7, -8
 993              		.cfi_offset 14, -4
 994 0002 86B0     		sub	sp, sp, #24
 995              		.cfi_def_cfa_offset 32
 996 0004 00AF     		add	r7, sp, #0
 997              		.cfi_def_cfa_register 7
 998 0006 7860     		str	r0, [r7, #4]
1278:.\Generated_Source\PSoC4/BLE_1.c ****         CYBLE_API_RESULT_T apiResult = CYBLE_ERROR_OK;
 999              		.loc 1 1278 0
 1000 0008 1623     		mov	r3, #22
 1001 000a FB18     		add	r3, r7, r3
 1002 000c 0022     		mov	r2, #0
 1003 000e 1A80     		strh	r2, [r3]
1279:.\Generated_Source\PSoC4/BLE_1.c ****         uint8 i;
1280:.\Generated_Source\PSoC4/BLE_1.c ****         char8 *ptr;
1281:.\Generated_Source\PSoC4/BLE_1.c ****         uint8 charLen;
1282:.\Generated_Source\PSoC4/BLE_1.c **** 
1283:.\Generated_Source\PSoC4/BLE_1.c ****         if(NULL != name)
 1004              		.loc 1 1283 0
 1005 0010 7B68     		ldr	r3, [r7, #4]
 1006 0012 002B     		cmp	r3, #0
 1007 0014 4AD0     		beq	.L53
1284:.\Generated_Source\PSoC4/BLE_1.c ****         {
1285:.\Generated_Source\PSoC4/BLE_1.c ****             /* Get the pointer to the Device Name characteristic  */
1286:.\Generated_Source\PSoC4/BLE_1.c ****             ptr = (char8 *) CYBLE_GATT_DB_ATTR_GET_ATTR_GEN_PTR(CYBLE_GAP_DEVICE_NAME_INDEX + 1u);
 1008              		.loc 1 1286 0
 1009 0016 2B4B     		ldr	r3, .L60
 1010 0018 9B6B     		ldr	r3, [r3, #56]
 1011 001a 5B68     		ldr	r3, [r3, #4]
 1012 001c 3B61     		str	r3, [r7, #16]
1287:.\Generated_Source\PSoC4/BLE_1.c **** 
1288:.\Generated_Source\PSoC4/BLE_1.c ****             /* First need to get the maximum length of the characteristic data in the GATT
1289:.\Generated_Source\PSoC4/BLE_1.c ****                 database to make sure there is enough place for the data. The length
1290:.\Generated_Source\PSoC4/BLE_1.c ****                 can't be longer than 248, so only the LSB of 16 bit of length is to
1291:.\Generated_Source\PSoC4/BLE_1.c ****                 be used. */
1292:.\Generated_Source\PSoC4/BLE_1.c ****             charLen = (uint8)CYBLE_GATT_DB_ATTR_GET_ATTR_GEN_MAX_LEN(CYBLE_GAP_DEVICE_NAME_INDEX + 
 1013              		.loc 1 1292 0
 1014 001e 294B     		ldr	r3, .L60
 1015 0020 9A8E     		ldrh	r2, [r3, #52]
 1016 0022 0F23     		mov	r3, #15
 1017 0024 FB18     		add	r3, r7, r3
 1018 0026 1A70     		strb	r2, [r3]
1293:.\Generated_Source\PSoC4/BLE_1.c **** 
1294:.\Generated_Source\PSoC4/BLE_1.c ****             /* Copy name into characteristic */
1295:.\Generated_Source\PSoC4/BLE_1.c ****             for(i = 0u; ((i < charLen) && (CYBLE_NULL_CHARCTER != name[i])); i++)
 1019              		.loc 1 1295 0
 1020 0028 1523     		mov	r3, #21
 1021 002a FB18     		add	r3, r7, r3
 1022 002c 0022     		mov	r2, #0
 1023 002e 1A70     		strb	r2, [r3]
 1024 0030 12E0     		b	.L54
ARM GAS  C:\Users\Ecapable\AppData\Local\Temp\ccZwSw0g.s 			page 42


 1025              	.L56:
1296:.\Generated_Source\PSoC4/BLE_1.c ****             {
1297:.\Generated_Source\PSoC4/BLE_1.c ****                 ptr[i] = name[i];
 1026              		.loc 1 1297 0 discriminator 4
 1027 0032 1523     		mov	r3, #21
 1028 0034 FB18     		add	r3, r7, r3
 1029 0036 1B78     		ldrb	r3, [r3]
 1030 0038 3A69     		ldr	r2, [r7, #16]
 1031 003a D318     		add	r3, r2, r3
 1032 003c 1522     		mov	r2, #21
 1033 003e BA18     		add	r2, r7, r2
 1034 0040 1278     		ldrb	r2, [r2]
 1035 0042 7968     		ldr	r1, [r7, #4]
 1036 0044 8A18     		add	r2, r1, r2
 1037 0046 1278     		ldrb	r2, [r2]
 1038 0048 1A70     		strb	r2, [r3]
1295:.\Generated_Source\PSoC4/BLE_1.c ****             {
 1039              		.loc 1 1295 0 discriminator 4
 1040 004a 1523     		mov	r3, #21
 1041 004c FB18     		add	r3, r7, r3
 1042 004e 1A78     		ldrb	r2, [r3]
 1043 0050 1523     		mov	r3, #21
 1044 0052 FB18     		add	r3, r7, r3
 1045 0054 0132     		add	r2, r2, #1
 1046 0056 1A70     		strb	r2, [r3]
 1047              	.L54:
1295:.\Generated_Source\PSoC4/BLE_1.c ****             {
 1048              		.loc 1 1295 0 is_stmt 0 discriminator 1
 1049 0058 1523     		mov	r3, #21
 1050 005a FA18     		add	r2, r7, r3
 1051 005c 0F23     		mov	r3, #15
 1052 005e FB18     		add	r3, r7, r3
 1053 0060 1278     		ldrb	r2, [r2]
 1054 0062 1B78     		ldrb	r3, [r3]
 1055 0064 9A42     		cmp	r2, r3
 1056 0066 07D2     		bcs	.L55
1295:.\Generated_Source\PSoC4/BLE_1.c ****             {
 1057              		.loc 1 1295 0 discriminator 3
 1058 0068 1523     		mov	r3, #21
 1059 006a FB18     		add	r3, r7, r3
 1060 006c 1B78     		ldrb	r3, [r3]
 1061 006e 7A68     		ldr	r2, [r7, #4]
 1062 0070 D318     		add	r3, r2, r3
 1063 0072 1B78     		ldrb	r3, [r3]
 1064 0074 002B     		cmp	r3, #0
 1065 0076 DCD1     		bne	.L56
 1066              	.L55:
1298:.\Generated_Source\PSoC4/BLE_1.c ****             }
1299:.\Generated_Source\PSoC4/BLE_1.c **** 
1300:.\Generated_Source\PSoC4/BLE_1.c ****             if(i < charLen)
 1067              		.loc 1 1300 0 is_stmt 1
 1068 0078 1523     		mov	r3, #21
 1069 007a FA18     		add	r2, r7, r3
 1070 007c 0F23     		mov	r3, #15
 1071 007e FB18     		add	r3, r7, r3
 1072 0080 1278     		ldrb	r2, [r2]
 1073 0082 1B78     		ldrb	r3, [r3]
ARM GAS  C:\Users\Ecapable\AppData\Local\Temp\ccZwSw0g.s 			page 43


 1074 0084 9A42     		cmp	r2, r3
 1075 0086 06D2     		bcs	.L57
1301:.\Generated_Source\PSoC4/BLE_1.c ****             {
1302:.\Generated_Source\PSoC4/BLE_1.c ****                 /* Terminate string */
1303:.\Generated_Source\PSoC4/BLE_1.c ****                 ptr[i] = CYBLE_NULL_CHARCTER;
 1076              		.loc 1 1303 0
 1077 0088 1523     		mov	r3, #21
 1078 008a FB18     		add	r3, r7, r3
 1079 008c 1B78     		ldrb	r3, [r3]
 1080 008e 3A69     		ldr	r2, [r7, #16]
 1081 0090 D318     		add	r3, r2, r3
 1082 0092 0022     		mov	r2, #0
 1083 0094 1A70     		strb	r2, [r3]
 1084              	.L57:
1304:.\Generated_Source\PSoC4/BLE_1.c ****             }
1305:.\Generated_Source\PSoC4/BLE_1.c ****             
1306:.\Generated_Source\PSoC4/BLE_1.c ****             /* Set new actual length */
1307:.\Generated_Source\PSoC4/BLE_1.c ****             
1308:.\Generated_Source\PSoC4/BLE_1.c ****             /* Update device name in advertising and scan response structure */
1309:.\Generated_Source\PSoC4/BLE_1.c ****             #if(CYBLE_GAP_ROLE_PERIPHERAL)
1310:.\Generated_Source\PSoC4/BLE_1.c ****                 CyBle_ChangeAdLocalName(name, 0u);
 1085              		.loc 1 1310 0
 1086 0096 7B68     		ldr	r3, [r7, #4]
 1087 0098 181C     		mov	r0, r3
 1088 009a 0021     		mov	r1, #0
 1089 009c FFF7FEFF 		bl	CyBle_ChangeAdLocalName
1311:.\Generated_Source\PSoC4/BLE_1.c ****                 CyBle_ChangeAdLocalName(name, 1u);
 1090              		.loc 1 1311 0
 1091 00a0 7B68     		ldr	r3, [r7, #4]
 1092 00a2 181C     		mov	r0, r3
 1093 00a4 0121     		mov	r1, #1
 1094 00a6 FFF7FEFF 		bl	CyBle_ChangeAdLocalName
 1095 00aa 03E0     		b	.L58
 1096              	.L53:
1312:.\Generated_Source\PSoC4/BLE_1.c ****             #endif /* (CYBLE_GAP_ROLE_PERIPHERAL) */
1313:.\Generated_Source\PSoC4/BLE_1.c ****         }
1314:.\Generated_Source\PSoC4/BLE_1.c ****         else
1315:.\Generated_Source\PSoC4/BLE_1.c ****         {
1316:.\Generated_Source\PSoC4/BLE_1.c ****             apiResult = CYBLE_ERROR_INVALID_PARAMETER;
 1097              		.loc 1 1316 0
 1098 00ac 1623     		mov	r3, #22
 1099 00ae FB18     		add	r3, r7, r3
 1100 00b0 0122     		mov	r2, #1
 1101 00b2 1A80     		strh	r2, [r3]
 1102              	.L58:
1317:.\Generated_Source\PSoC4/BLE_1.c ****         }
1318:.\Generated_Source\PSoC4/BLE_1.c ****         
1319:.\Generated_Source\PSoC4/BLE_1.c ****         return(apiResult);
 1103              		.loc 1 1319 0
 1104 00b4 1623     		mov	r3, #22
 1105 00b6 FB18     		add	r3, r7, r3
 1106 00b8 1B88     		ldrh	r3, [r3]
1320:.\Generated_Source\PSoC4/BLE_1.c ****     }
 1107              		.loc 1 1320 0
 1108 00ba 181C     		mov	r0, r3
 1109 00bc BD46     		mov	sp, r7
 1110 00be 06B0     		add	sp, sp, #24
ARM GAS  C:\Users\Ecapable\AppData\Local\Temp\ccZwSw0g.s 			page 44


 1111              		@ sp needed
 1112 00c0 80BD     		pop	{r7, pc}
 1113              	.L61:
 1114 00c2 C046     		.align	2
 1115              	.L60:
 1116 00c4 00000000 		.word	cyBle_gattDB
 1117              		.cfi_endproc
 1118              	.LFE10:
 1119              		.size	CyBle_GapSetLocalName, .-CyBle_GapSetLocalName
 1120              		.section	.text.CyBle_GapGetLocalName,"ax",%progbits
 1121              		.align	2
 1122              		.global	CyBle_GapGetLocalName
 1123              		.code	16
 1124              		.thumb_func
 1125              		.type	CyBle_GapGetLocalName, %function
 1126              	CyBle_GapGetLocalName:
 1127              	.LFB11:
1321:.\Generated_Source\PSoC4/BLE_1.c **** 
1322:.\Generated_Source\PSoC4/BLE_1.c **** 
1323:.\Generated_Source\PSoC4/BLE_1.c ****     /******************************************************************************
1324:.\Generated_Source\PSoC4/BLE_1.c ****     * Function Name: CyBle_GapGetLocalName
1325:.\Generated_Source\PSoC4/BLE_1.c ****     ***************************************************************************//**
1326:.\Generated_Source\PSoC4/BLE_1.c ****     *  
1327:.\Generated_Source\PSoC4/BLE_1.c ****     *  This API is used to read the local device name - a Characteristic of the 
1328:.\Generated_Source\PSoC4/BLE_1.c ****     *  GAP Service.
1329:.\Generated_Source\PSoC4/BLE_1.c ****     * 
1330:.\Generated_Source\PSoC4/BLE_1.c ****     * \param name: The local device name string. Used to read the local name to the
1331:.\Generated_Source\PSoC4/BLE_1.c ****     *             given string array. It represents a UTF-8 encoded User Friendly 
1332:.\Generated_Source\PSoC4/BLE_1.c ****     *             Descriptive Name for the device. The length of the local device
1333:.\Generated_Source\PSoC4/BLE_1.c ****     *             string is entered into the component customizer and it can be set
1334:.\Generated_Source\PSoC4/BLE_1.c ****     *             to a value from 0 to 248 bytes. If the name contained in the
1335:.\Generated_Source\PSoC4/BLE_1.c ****     *             parameter is shorter than the length from the customizer, the end
1336:.\Generated_Source\PSoC4/BLE_1.c ****     *             of the name is indicated by a NULL octet (0x00).
1337:.\Generated_Source\PSoC4/BLE_1.c ****     * 
1338:.\Generated_Source\PSoC4/BLE_1.c ****     * \return
1339:.\Generated_Source\PSoC4/BLE_1.c ****     *  CYBLE_API_RESULT_T : Return value indicates if the function succeeded or 
1340:.\Generated_Source\PSoC4/BLE_1.c ****     *  failed. Following are the possible error codes.
1341:.\Generated_Source\PSoC4/BLE_1.c ****     *
1342:.\Generated_Source\PSoC4/BLE_1.c ****     *   Errors codes                       | Description
1343:.\Generated_Source\PSoC4/BLE_1.c ****     *   ------------                       | -----------
1344:.\Generated_Source\PSoC4/BLE_1.c ****     *   CYBLE_ERROR_OK                     | Function completed successfully.
1345:.\Generated_Source\PSoC4/BLE_1.c ****     *   CYBLE_ERROR_INVALID_PARAMETER      | On specifying NULL as input parameter
1346:.\Generated_Source\PSoC4/BLE_1.c ****     *
1347:.\Generated_Source\PSoC4/BLE_1.c ****     *******************************************************************************/
1348:.\Generated_Source\PSoC4/BLE_1.c ****     CYBLE_API_RESULT_T CyBle_GapGetLocalName(char8 name[])
1349:.\Generated_Source\PSoC4/BLE_1.c ****     {
 1128              		.loc 1 1349 0
 1129              		.cfi_startproc
 1130 0000 80B5     		push	{r7, lr}
 1131              		.cfi_def_cfa_offset 8
 1132              		.cfi_offset 7, -8
 1133              		.cfi_offset 14, -4
 1134 0002 86B0     		sub	sp, sp, #24
 1135              		.cfi_def_cfa_offset 32
 1136 0004 00AF     		add	r7, sp, #0
 1137              		.cfi_def_cfa_register 7
 1138 0006 7860     		str	r0, [r7, #4]
ARM GAS  C:\Users\Ecapable\AppData\Local\Temp\ccZwSw0g.s 			page 45


1350:.\Generated_Source\PSoC4/BLE_1.c ****         CYBLE_API_RESULT_T apiResult = CYBLE_ERROR_OK;
 1139              		.loc 1 1350 0
 1140 0008 1623     		mov	r3, #22
 1141 000a FB18     		add	r3, r7, r3
 1142 000c 0022     		mov	r2, #0
 1143 000e 1A80     		strh	r2, [r3]
1351:.\Generated_Source\PSoC4/BLE_1.c ****         uint8 charLen;
1352:.\Generated_Source\PSoC4/BLE_1.c ****         uint8 i;
1353:.\Generated_Source\PSoC4/BLE_1.c ****         char8 *ptr;
1354:.\Generated_Source\PSoC4/BLE_1.c **** 
1355:.\Generated_Source\PSoC4/BLE_1.c ****         if(NULL != name)
 1144              		.loc 1 1355 0
 1145 0010 7B68     		ldr	r3, [r7, #4]
 1146 0012 002B     		cmp	r3, #0
 1147 0014 39D0     		beq	.L63
1356:.\Generated_Source\PSoC4/BLE_1.c ****         {
1357:.\Generated_Source\PSoC4/BLE_1.c ****             /* Get the pointer to the Device Name characteristic  */
1358:.\Generated_Source\PSoC4/BLE_1.c ****             ptr = (char8 *) CYBLE_GATT_DB_ATTR_GET_ATTR_GEN_PTR(CYBLE_GAP_DEVICE_NAME_INDEX + 1u);
 1148              		.loc 1 1358 0
 1149 0016 224B     		ldr	r3, .L69
 1150 0018 9B6B     		ldr	r3, [r3, #56]
 1151 001a 5B68     		ldr	r3, [r3, #4]
 1152 001c 3B61     		str	r3, [r7, #16]
1359:.\Generated_Source\PSoC4/BLE_1.c **** 
1360:.\Generated_Source\PSoC4/BLE_1.c ****             /* First need to get the length of the characteristic data in the GATT
1361:.\Generated_Source\PSoC4/BLE_1.c ****                 database to make sure there is enough place for the data. The length
1362:.\Generated_Source\PSoC4/BLE_1.c ****                 can't be longer than 248, so only the LSB of 16 bit of length is to
1363:.\Generated_Source\PSoC4/BLE_1.c ****                 be used. */
1364:.\Generated_Source\PSoC4/BLE_1.c ****             charLen = (uint8)CYBLE_GATT_DB_ATTR_GET_ATTR_GEN_LEN(CYBLE_GAP_DEVICE_NAME_INDEX + 1u);
 1153              		.loc 1 1364 0
 1154 001e 204B     		ldr	r3, .L69
 1155 0020 9B6B     		ldr	r3, [r3, #56]
 1156 0022 1A88     		ldrh	r2, [r3]
 1157 0024 0F23     		mov	r3, #15
 1158 0026 FB18     		add	r3, r7, r3
 1159 0028 1A70     		strb	r2, [r3]
1365:.\Generated_Source\PSoC4/BLE_1.c **** 
1366:.\Generated_Source\PSoC4/BLE_1.c ****             /* Copy name from characteristic */
1367:.\Generated_Source\PSoC4/BLE_1.c ****             for(i = 0u; ((i < charLen) && (CYBLE_NULL_CHARCTER != ptr[i])); i++)
 1160              		.loc 1 1367 0
 1161 002a 1523     		mov	r3, #21
 1162 002c FB18     		add	r3, r7, r3
 1163 002e 0022     		mov	r2, #0
 1164 0030 1A70     		strb	r2, [r3]
 1165 0032 12E0     		b	.L64
 1166              	.L66:
1368:.\Generated_Source\PSoC4/BLE_1.c ****             {
1369:.\Generated_Source\PSoC4/BLE_1.c ****                 name[i] = ptr[i];
 1167              		.loc 1 1369 0 discriminator 4
 1168 0034 1523     		mov	r3, #21
 1169 0036 FB18     		add	r3, r7, r3
 1170 0038 1B78     		ldrb	r3, [r3]
 1171 003a 7A68     		ldr	r2, [r7, #4]
 1172 003c D318     		add	r3, r2, r3
 1173 003e 1522     		mov	r2, #21
 1174 0040 BA18     		add	r2, r7, r2
 1175 0042 1278     		ldrb	r2, [r2]
ARM GAS  C:\Users\Ecapable\AppData\Local\Temp\ccZwSw0g.s 			page 46


 1176 0044 3969     		ldr	r1, [r7, #16]
 1177 0046 8A18     		add	r2, r1, r2
 1178 0048 1278     		ldrb	r2, [r2]
 1179 004a 1A70     		strb	r2, [r3]
1367:.\Generated_Source\PSoC4/BLE_1.c ****             {
 1180              		.loc 1 1367 0 discriminator 4
 1181 004c 1523     		mov	r3, #21
 1182 004e FB18     		add	r3, r7, r3
 1183 0050 1A78     		ldrb	r2, [r3]
 1184 0052 1523     		mov	r3, #21
 1185 0054 FB18     		add	r3, r7, r3
 1186 0056 0132     		add	r2, r2, #1
 1187 0058 1A70     		strb	r2, [r3]
 1188              	.L64:
1367:.\Generated_Source\PSoC4/BLE_1.c ****             {
 1189              		.loc 1 1367 0 is_stmt 0 discriminator 1
 1190 005a 1523     		mov	r3, #21
 1191 005c FA18     		add	r2, r7, r3
 1192 005e 0F23     		mov	r3, #15
 1193 0060 FB18     		add	r3, r7, r3
 1194 0062 1278     		ldrb	r2, [r2]
 1195 0064 1B78     		ldrb	r3, [r3]
 1196 0066 9A42     		cmp	r2, r3
 1197 0068 07D2     		bcs	.L65
1367:.\Generated_Source\PSoC4/BLE_1.c ****             {
 1198              		.loc 1 1367 0 discriminator 3
 1199 006a 1523     		mov	r3, #21
 1200 006c FB18     		add	r3, r7, r3
 1201 006e 1B78     		ldrb	r3, [r3]
 1202 0070 3A69     		ldr	r2, [r7, #16]
 1203 0072 D318     		add	r3, r2, r3
 1204 0074 1B78     		ldrb	r3, [r3]
 1205 0076 002B     		cmp	r3, #0
 1206 0078 DCD1     		bne	.L66
 1207              	.L65:
1370:.\Generated_Source\PSoC4/BLE_1.c ****             }
1371:.\Generated_Source\PSoC4/BLE_1.c **** 
1372:.\Generated_Source\PSoC4/BLE_1.c ****             /* Terminate string */
1373:.\Generated_Source\PSoC4/BLE_1.c ****             name[i] = CYBLE_NULL_CHARCTER;
 1208              		.loc 1 1373 0 is_stmt 1
 1209 007a 1523     		mov	r3, #21
 1210 007c FB18     		add	r3, r7, r3
 1211 007e 1B78     		ldrb	r3, [r3]
 1212 0080 7A68     		ldr	r2, [r7, #4]
 1213 0082 D318     		add	r3, r2, r3
 1214 0084 0022     		mov	r2, #0
 1215 0086 1A70     		strb	r2, [r3]
 1216 0088 03E0     		b	.L67
 1217              	.L63:
1374:.\Generated_Source\PSoC4/BLE_1.c ****         }
1375:.\Generated_Source\PSoC4/BLE_1.c ****         else
1376:.\Generated_Source\PSoC4/BLE_1.c ****         {
1377:.\Generated_Source\PSoC4/BLE_1.c ****             apiResult = CYBLE_ERROR_INVALID_PARAMETER;
 1218              		.loc 1 1377 0
 1219 008a 1623     		mov	r3, #22
 1220 008c FB18     		add	r3, r7, r3
 1221 008e 0122     		mov	r2, #1
ARM GAS  C:\Users\Ecapable\AppData\Local\Temp\ccZwSw0g.s 			page 47


 1222 0090 1A80     		strh	r2, [r3]
 1223              	.L67:
1378:.\Generated_Source\PSoC4/BLE_1.c ****         }
1379:.\Generated_Source\PSoC4/BLE_1.c ****         
1380:.\Generated_Source\PSoC4/BLE_1.c ****         return(apiResult);
 1224              		.loc 1 1380 0
 1225 0092 1623     		mov	r3, #22
 1226 0094 FB18     		add	r3, r7, r3
 1227 0096 1B88     		ldrh	r3, [r3]
1381:.\Generated_Source\PSoC4/BLE_1.c ****     }
 1228              		.loc 1 1381 0
 1229 0098 181C     		mov	r0, r3
 1230 009a BD46     		mov	sp, r7
 1231 009c 06B0     		add	sp, sp, #24
 1232              		@ sp needed
 1233 009e 80BD     		pop	{r7, pc}
 1234              	.L70:
 1235              		.align	2
 1236              	.L69:
 1237 00a0 00000000 		.word	cyBle_gattDB
 1238              		.cfi_endproc
 1239              	.LFE11:
 1240              		.size	CyBle_GapGetLocalName, .-CyBle_GapGetLocalName
 1241              		.section	.text.CyBle_Get16ByPtr,"ax",%progbits
 1242              		.align	2
 1243              		.global	CyBle_Get16ByPtr
 1244              		.code	16
 1245              		.thumb_func
 1246              		.type	CyBle_Get16ByPtr, %function
 1247              	CyBle_Get16ByPtr:
 1248              	.LFB12:
1382:.\Generated_Source\PSoC4/BLE_1.c **** 
1383:.\Generated_Source\PSoC4/BLE_1.c **** #endif /* (CYBLE_GATT_ROLE_SERVER) */
1384:.\Generated_Source\PSoC4/BLE_1.c **** 
1385:.\Generated_Source\PSoC4/BLE_1.c **** 
1386:.\Generated_Source\PSoC4/BLE_1.c **** /******************************************************************************
1387:.\Generated_Source\PSoC4/BLE_1.c **** * Function Name: CyBle_Get16ByPtr
1388:.\Generated_Source\PSoC4/BLE_1.c **** ***************************************************************************//**
1389:.\Generated_Source\PSoC4/BLE_1.c **** * 
1390:.\Generated_Source\PSoC4/BLE_1.c **** *  Returns the two-bytes value by using a pointer to the LSB.
1391:.\Generated_Source\PSoC4/BLE_1.c **** * 
1392:.\Generated_Source\PSoC4/BLE_1.c **** *  \param ptr: Pointer to the LSB of two-bytes data (little endian).
1393:.\Generated_Source\PSoC4/BLE_1.c **** * 
1394:.\Generated_Source\PSoC4/BLE_1.c **** *  \return
1395:.\Generated_Source\PSoC4/BLE_1.c **** *  uint16: Two-bytes data.
1396:.\Generated_Source\PSoC4/BLE_1.c **** * 
1397:.\Generated_Source\PSoC4/BLE_1.c **** ******************************************************************************/
1398:.\Generated_Source\PSoC4/BLE_1.c **** uint16 CyBle_Get16ByPtr(const uint8 ptr[])
1399:.\Generated_Source\PSoC4/BLE_1.c **** {
 1249              		.loc 1 1399 0
 1250              		.cfi_startproc
 1251 0000 80B5     		push	{r7, lr}
 1252              		.cfi_def_cfa_offset 8
 1253              		.cfi_offset 7, -8
 1254              		.cfi_offset 14, -4
 1255 0002 82B0     		sub	sp, sp, #8
 1256              		.cfi_def_cfa_offset 16
ARM GAS  C:\Users\Ecapable\AppData\Local\Temp\ccZwSw0g.s 			page 48


 1257 0004 00AF     		add	r7, sp, #0
 1258              		.cfi_def_cfa_register 7
 1259 0006 7860     		str	r0, [r7, #4]
1400:.\Generated_Source\PSoC4/BLE_1.c ****     return ((uint16) ptr[0u] | ((uint16) (((uint16) ptr[1u]) << 8u)));
 1260              		.loc 1 1400 0
 1261 0008 7B68     		ldr	r3, [r7, #4]
 1262 000a 1B78     		ldrb	r3, [r3]
 1263 000c 9AB2     		uxth	r2, r3
 1264 000e 7B68     		ldr	r3, [r7, #4]
 1265 0010 0133     		add	r3, r3, #1
 1266 0012 1B78     		ldrb	r3, [r3]
 1267 0014 9BB2     		uxth	r3, r3
 1268 0016 1B02     		lsl	r3, r3, #8
 1269 0018 9BB2     		uxth	r3, r3
 1270 001a 1343     		orr	r3, r2
 1271 001c 9BB2     		uxth	r3, r3
1401:.\Generated_Source\PSoC4/BLE_1.c **** }
 1272              		.loc 1 1401 0
 1273 001e 181C     		mov	r0, r3
 1274 0020 BD46     		mov	sp, r7
 1275 0022 02B0     		add	sp, sp, #8
 1276              		@ sp needed
 1277 0024 80BD     		pop	{r7, pc}
 1278              		.cfi_endproc
 1279              	.LFE12:
 1280              		.size	CyBle_Get16ByPtr, .-CyBle_Get16ByPtr
 1281 0026 C046     		.section	.text.CyBle_Set16ByPtr,"ax",%progbits
 1282              		.align	2
 1283              		.global	CyBle_Set16ByPtr
 1284              		.code	16
 1285              		.thumb_func
 1286              		.type	CyBle_Set16ByPtr, %function
 1287              	CyBle_Set16ByPtr:
 1288              	.LFB13:
1402:.\Generated_Source\PSoC4/BLE_1.c **** 
1403:.\Generated_Source\PSoC4/BLE_1.c **** 
1404:.\Generated_Source\PSoC4/BLE_1.c **** /******************************************************************************
1405:.\Generated_Source\PSoC4/BLE_1.c **** * Function Name: CyBle_Set16ByPtr
1406:.\Generated_Source\PSoC4/BLE_1.c **** ***************************************************************************//**
1407:.\Generated_Source\PSoC4/BLE_1.c **** * 
1408:.\Generated_Source\PSoC4/BLE_1.c **** *  Sets the two-bytes value by using a pointer to the LSB.
1409:.\Generated_Source\PSoC4/BLE_1.c **** * 
1410:.\Generated_Source\PSoC4/BLE_1.c **** *  \param ptr:    Pointer to the LSB of two-bytes data (little endian).
1411:.\Generated_Source\PSoC4/BLE_1.c **** *  \param value:  Two-bytes data to be written.
1412:.\Generated_Source\PSoC4/BLE_1.c **** * 
1413:.\Generated_Source\PSoC4/BLE_1.c **** *  \return
1414:.\Generated_Source\PSoC4/BLE_1.c **** *  None
1415:.\Generated_Source\PSoC4/BLE_1.c **** * 
1416:.\Generated_Source\PSoC4/BLE_1.c **** ******************************************************************************/
1417:.\Generated_Source\PSoC4/BLE_1.c **** void CyBle_Set16ByPtr(uint8 ptr[], uint16 value)
1418:.\Generated_Source\PSoC4/BLE_1.c **** {
 1289              		.loc 1 1418 0
 1290              		.cfi_startproc
 1291 0000 80B5     		push	{r7, lr}
 1292              		.cfi_def_cfa_offset 8
 1293              		.cfi_offset 7, -8
 1294              		.cfi_offset 14, -4
ARM GAS  C:\Users\Ecapable\AppData\Local\Temp\ccZwSw0g.s 			page 49


 1295 0002 82B0     		sub	sp, sp, #8
 1296              		.cfi_def_cfa_offset 16
 1297 0004 00AF     		add	r7, sp, #0
 1298              		.cfi_def_cfa_register 7
 1299 0006 7860     		str	r0, [r7, #4]
 1300 0008 0A1C     		mov	r2, r1
 1301 000a BB1C     		add	r3, r7, #2
 1302 000c 1A80     		strh	r2, [r3]
1419:.\Generated_Source\PSoC4/BLE_1.c ****     ptr[0u] = (uint8) value;
 1303              		.loc 1 1419 0
 1304 000e BB1C     		add	r3, r7, #2
 1305 0010 1B88     		ldrh	r3, [r3]
 1306 0012 DAB2     		uxtb	r2, r3
 1307 0014 7B68     		ldr	r3, [r7, #4]
 1308 0016 1A70     		strb	r2, [r3]
1420:.\Generated_Source\PSoC4/BLE_1.c ****     ptr[1u] = (uint8) (value >> 8u);
 1309              		.loc 1 1420 0
 1310 0018 7B68     		ldr	r3, [r7, #4]
 1311 001a 0133     		add	r3, r3, #1
 1312 001c BA1C     		add	r2, r7, #2
 1313 001e 1288     		ldrh	r2, [r2]
 1314 0020 120A     		lsr	r2, r2, #8
 1315 0022 92B2     		uxth	r2, r2
 1316 0024 D2B2     		uxtb	r2, r2
 1317 0026 1A70     		strb	r2, [r3]
1421:.\Generated_Source\PSoC4/BLE_1.c **** }
 1318              		.loc 1 1421 0
 1319 0028 BD46     		mov	sp, r7
 1320 002a 02B0     		add	sp, sp, #8
 1321              		@ sp needed
 1322 002c 80BD     		pop	{r7, pc}
 1323              		.cfi_endproc
 1324              	.LFE13:
 1325              		.size	CyBle_Set16ByPtr, .-CyBle_Set16ByPtr
 1326 002e C046     		.text
 1327              	.Letext0:
 1328              		.file 2 ".\\Generated_Source\\PSoC4\\cytypes.h"
 1329              		.file 3 ".\\Generated_Source\\PSoC4\\BLE_1_Stack.h"
 1330              		.file 4 ".\\Generated_Source\\PSoC4\\BLE_1_StackGap.h"
 1331              		.file 5 ".\\Generated_Source\\PSoC4\\BLE_1_StackGattDb.h"
 1332              		.file 6 ".\\Generated_Source\\PSoC4\\BLE_1.h"
 1333              		.file 7 ".\\Generated_Source\\PSoC4\\BLE_1_eventHandler.h"
 1334              		.file 8 ".\\Generated_Source\\PSoC4\\BLE_1_gatt.h"