ARM GAS  C:\Users\Ecapable\AppData\Local\Temp\ccj40yZB.s 			page 1


   1              		.cpu cortex-m0
   2              		.fpu softvfp
   3              		.eabi_attribute 20, 1
   4              		.eabi_attribute 21, 1
   5              		.eabi_attribute 23, 3
   6              		.eabi_attribute 24, 1
   7              		.eabi_attribute 25, 1
   8              		.eabi_attribute 26, 1
   9              		.eabi_attribute 30, 6
  10              		.eabi_attribute 34, 0
  11              		.eabi_attribute 18, 4
  12              		.code	16
  13              		.file	"BLEApplications.c"
  14              		.text
  15              	.Ltext0:
  16              		.cfi_sections	.debug_frame
  17              		.comm	rgbHandle,12,4
  18              		.global	sendCapSenseSliderNotifications
  19              		.bss
  20              		.type	sendCapSenseSliderNotifications, %object
  21              		.size	sendCapSenseSliderNotifications, 1
  22              	sendCapSenseSliderNotifications:
  23 0000 00       		.space	1
  24              		.comm	RGBledData,4,4
  25              		.global	deviceConnected
  26              		.type	deviceConnected, %object
  27              		.size	deviceConnected, 1
  28              	deviceConnected:
  29 0001 00       		.space	1
  30              		.global	updateNotificationCCCAttribute
  31              		.type	updateNotificationCCCAttribute, %object
  32              		.size	updateNotificationCCCAttribute, 1
  33              	updateNotificationCCCAttribute:
  34 0002 00       		.space	1
  35              		.section	.text.CustomEventHandler,"ax",%progbits
  36              		.align	2
  37              		.global	CustomEventHandler
  38              		.code	16
  39              		.thumb_func
  40              		.type	CustomEventHandler, %function
  41              	CustomEventHandler:
  42              	.LFB37:
  43              		.file 1 ".\\BLEApplications.c"
   1:.\BLEApplications.c **** /*****************************************************************************
   2:.\BLEApplications.c **** * File Name: BleApplications.c
   3:.\BLEApplications.c **** *
   4:.\BLEApplications.c **** * Version: 1.0
   5:.\BLEApplications.c **** *
   6:.\BLEApplications.c **** * Description:
   7:.\BLEApplications.c **** * This file implements the BLE capability in the PSoC 4 BLE Lab 4.
   8:.\BLEApplications.c **** *
   9:.\BLEApplications.c **** * Hardware Dependency:
  10:.\BLEApplications.c **** * CY8CKIT-042 BLE Pioneer Kit
  11:.\BLEApplications.c **** *
  12:.\BLEApplications.c **** ******************************************************************************
  13:.\BLEApplications.c **** * Copyright (2014), Cypress Semiconductor Corporation.
  14:.\BLEApplications.c **** ******************************************************************************
ARM GAS  C:\Users\Ecapable\AppData\Local\Temp\ccj40yZB.s 			page 2


  15:.\BLEApplications.c **** * This software is owned by Cypress Semiconductor Corporation (Cypress) and is
  16:.\BLEApplications.c **** * protected by and subject to worldwide patent protection (United States and
  17:.\BLEApplications.c **** * foreign), United States copyright laws and international treaty provisions.
  18:.\BLEApplications.c **** * Cypress hereby grants to licensee a personal, non-exclusive, non-transferable
  19:.\BLEApplications.c **** * license to copy, use, modify, create derivative works of, and compile the
  20:.\BLEApplications.c **** * Cypress Source Code and derivative works for the sole purpose of creating
  21:.\BLEApplications.c **** * custom software in support of licensee product to be used only in conjunction
  22:.\BLEApplications.c **** * with a Cypress integrated circuit as specified in the applicable agreement.
  23:.\BLEApplications.c **** * Any reproduction, modification, translation, compilation, or representation of
  24:.\BLEApplications.c **** * this software except as specified above is prohibited without the express
  25:.\BLEApplications.c **** * written permission of Cypress.
  26:.\BLEApplications.c **** *
  27:.\BLEApplications.c **** * Disclaimer: CYPRESS MAKES NO WARRANTY OF ANY KIND, EXPRESS OR IMPLIED, WITH
  28:.\BLEApplications.c **** * REGARD TO THIS MATERIAL, INCLUDING, BUT NOT LIMITED TO, THE IMPLIED
  29:.\BLEApplications.c **** * WARRANTIES OF MERCHANTABILITY AND FITNESS FOR A PARTICULAR PURPOSE.
  30:.\BLEApplications.c **** * Cypress reserves the right to make changes without further notice to the
  31:.\BLEApplications.c **** * materials described herein. Cypress does not assume any liability arising out
  32:.\BLEApplications.c **** * of the application or use of any product or circuit described herein. Cypress
  33:.\BLEApplications.c **** * does not authorize its products for use as critical components in life-support
  34:.\BLEApplications.c **** * systems where a malfunction or failure may reasonably be expected to result in
  35:.\BLEApplications.c **** * significant injury to the user. The inclusion of Cypress' product in a life-
  36:.\BLEApplications.c **** * support systems application implies that the manufacturer assumes all risk of
  37:.\BLEApplications.c **** * such use and in doing so indemnifies Cypress against all charges. Use may be
  38:.\BLEApplications.c **** * limited by and subject to the applicable Cypress software license agreement.
  39:.\BLEApplications.c **** *****************************************************************************/
  40:.\BLEApplications.c **** 
  41:.\BLEApplications.c **** /*****************************************************************************
  42:.\BLEApplications.c **** * Included headers
  43:.\BLEApplications.c **** *****************************************************************************/
  44:.\BLEApplications.c **** #include <main.h>
  45:.\BLEApplications.c **** #include <BLEApplications.h>
  46:.\BLEApplications.c **** 
  47:.\BLEApplications.c **** 
  48:.\BLEApplications.c **** /*****************************************************************************
  49:.\BLEApplications.c **** * Static variables 
  50:.\BLEApplications.c **** *****************************************************************************/
  51:.\BLEApplications.c **** 
  52:.\BLEApplications.c **** /* 'rgbHandle' stores RGB control data parameters */
  53:.\BLEApplications.c **** CYBLE_GATT_HANDLE_VALUE_PAIR_T		rgbHandle;	
  54:.\BLEApplications.c **** 
  55:.\BLEApplications.c **** /*This flag is set when the Central device writes to CCC (Client Characteristic 
  56:.\BLEApplications.c **** * Configuration) of the CapSense slider Characteristic to enable notifications */
  57:.\BLEApplications.c **** uint8 sendCapSenseSliderNotifications = FALSE;	
  58:.\BLEApplications.c **** 
  59:.\BLEApplications.c **** /* Array to store the present RGB LED control data. The 4 bytes 
  60:.\BLEApplications.c **** * of the array represents {R, G, B, Intensity} */
  61:.\BLEApplications.c **** uint8 RGBledData[RGB_CHAR_DATA_LEN];
  62:.\BLEApplications.c **** 
  63:.\BLEApplications.c **** /* This flag is used by application to know whether a Central 
  64:.\BLEApplications.c **** * device has been connected. This is updated in BLE event callback 
  65:.\BLEApplications.c **** * function*/
  66:.\BLEApplications.c **** uint8 deviceConnected = FALSE;
  67:.\BLEApplications.c **** 
  68:.\BLEApplications.c **** /* This flag is used to let application update the CCCD value for correct read 
  69:.\BLEApplications.c **** * operation by connected Central device */
  70:.\BLEApplications.c **** uint8 updateNotificationCCCAttribute = FALSE;
  71:.\BLEApplications.c **** 
ARM GAS  C:\Users\Ecapable\AppData\Local\Temp\ccj40yZB.s 			page 3


  72:.\BLEApplications.c **** 
  73:.\BLEApplications.c **** 
  74:.\BLEApplications.c **** /*******************************************************************************
  75:.\BLEApplications.c **** * Function Name: CustomEventHandler
  76:.\BLEApplications.c **** ********************************************************************************
  77:.\BLEApplications.c **** * Summary:
  78:.\BLEApplications.c **** * Call back event function to handle various events from BLE stack
  79:.\BLEApplications.c **** *
  80:.\BLEApplications.c **** * Parameters:
  81:.\BLEApplications.c **** *  event:		event returned
  82:.\BLEApplications.c **** *  eventParam:	link to value of the events returned
  83:.\BLEApplications.c **** *
  84:.\BLEApplications.c **** * Return:
  85:.\BLEApplications.c **** *  void
  86:.\BLEApplications.c **** *
  87:.\BLEApplications.c **** *******************************************************************************/
  88:.\BLEApplications.c **** void CustomEventHandler(uint32 event, void * eventParam)
  89:.\BLEApplications.c **** {
  44              		.loc 1 89 0
  45              		.cfi_startproc
  46 0000 80B5     		push	{r7, lr}
  47              		.cfi_def_cfa_offset 8
  48              		.cfi_offset 7, -8
  49              		.cfi_offset 14, -4
  50 0002 84B0     		sub	sp, sp, #16
  51              		.cfi_def_cfa_offset 24
  52 0004 00AF     		add	r7, sp, #0
  53              		.cfi_def_cfa_register 7
  54 0006 7860     		str	r0, [r7, #4]
  55 0008 3960     		str	r1, [r7]
  90:.\BLEApplications.c **** 	CYBLE_GATTS_WRITE_REQ_PARAM_T *wrReqParam;
  91:.\BLEApplications.c ****    
  92:.\BLEApplications.c ****     switch(event)
  56              		.loc 1 92 0
  57 000a 7B68     		ldr	r3, [r7, #4]
  58 000c 282B     		cmp	r3, #40
  59 000e 0CD0     		beq	.L3
  60 0010 04D8     		bhi	.L4
  61 0012 012B     		cmp	r3, #1
  62 0014 09D0     		beq	.L3
  63 0016 262B     		cmp	r3, #38
  64 0018 0BD0     		beq	.L5
  93:.\BLEApplications.c ****     {
  94:.\BLEApplications.c ****         case CYBLE_EVT_STACK_ON:
  95:.\BLEApplications.c ****         case CYBLE_EVT_GAP_DEVICE_DISCONNECTED:
  96:.\BLEApplications.c **** 			/* Start Advertisement and enter Discoverable mode*/
  97:.\BLEApplications.c **** 			CyBle_GappStartAdvertisement(CYBLE_ADVERTISING_FAST);
  98:.\BLEApplications.c **** 			break;
  99:.\BLEApplications.c **** 			
 100:.\BLEApplications.c **** 		case CYBLE_EVT_GAPP_ADVERTISEMENT_START_STOP:
 101:.\BLEApplications.c **** 			/* Set the BLE state variable to control LED status */
 102:.\BLEApplications.c ****             if(CYBLE_STATE_DISCONNECTED == CyBle_GetState())
 103:.\BLEApplications.c ****             {
 104:.\BLEApplications.c ****                 /* Start Advertisement and enter Discoverable mode*/
 105:.\BLEApplications.c ****                 CyBle_GappStartAdvertisement(CYBLE_ADVERTISING_FAST);
 106:.\BLEApplications.c ****             }
 107:.\BLEApplications.c **** 			break;
ARM GAS  C:\Users\Ecapable\AppData\Local\Temp\ccj40yZB.s 			page 4


 108:.\BLEApplications.c **** 			
 109:.\BLEApplications.c ****         case CYBLE_EVT_GATT_CONNECT_IND:
 110:.\BLEApplications.c **** 			/* This flag is used in application to check connection status */
 111:.\BLEApplications.c **** 			deviceConnected = TRUE;
 112:.\BLEApplications.c **** 			break;
 113:.\BLEApplications.c ****         
 114:.\BLEApplications.c ****         case CYBLE_EVT_GATT_DISCONNECT_IND:
 115:.\BLEApplications.c **** 			/* Update deviceConnected flag*/
 116:.\BLEApplications.c **** 			deviceConnected = FALSE;
 117:.\BLEApplications.c **** 			
 118:.\BLEApplications.c **** 			/* Reset CapSense notification flag to prevent further notifications
 119:.\BLEApplications.c **** 			 * being sent to Central device after next connection. */
 120:.\BLEApplications.c **** 			sendCapSenseSliderNotifications = FALSE;
 121:.\BLEApplications.c **** 			
 122:.\BLEApplications.c **** 			/* Reset the CCCD value to disable notifications */
 123:.\BLEApplications.c **** 			updateNotificationCCCAttribute = TRUE;
 124:.\BLEApplications.c **** 			
 125:.\BLEApplications.c **** 			/* Reset the color coordinates */
 126:.\BLEApplications.c **** 			RGBledData[RED_INDEX] = ZERO;
 127:.\BLEApplications.c ****             RGBledData[GREEN_INDEX] = ZERO;
 128:.\BLEApplications.c ****             RGBledData[BLUE_INDEX] = ZERO;
 129:.\BLEApplications.c ****             RGBledData[INTENSITY_INDEX] = ZERO;
 130:.\BLEApplications.c **** 			UpdateRGBled();
 131:.\BLEApplications.c **** 
 132:.\BLEApplications.c **** 			break;
 133:.\BLEApplications.c ****         
 134:.\BLEApplications.c ****             
 135:.\BLEApplications.c ****         case CYBLE_EVT_GATTS_WRITE_REQ: 							
 136:.\BLEApplications.c ****             /* This event is received when Central device sends a Write command 
 137:.\BLEApplications.c ****              * on an Attribute. 
 138:.\BLEApplications.c ****              * We first get the attribute handle from the event parameter and 
 139:.\BLEApplications.c ****              * then try to match that handle with an attribute in the database.
 140:.\BLEApplications.c ****              */
 141:.\BLEApplications.c ****             wrReqParam = (CYBLE_GATTS_WRITE_REQ_PARAM_T *) eventParam;
 142:.\BLEApplications.c ****             
 143:.\BLEApplications.c **** 
 144:.\BLEApplications.c ****             /* This condition checks whether the RGB LED characteristic was
 145:.\BLEApplications.c ****              * written to by matching the attribute handle.
 146:.\BLEApplications.c ****              * If the attribute handle matches, then the value written to the 
 147:.\BLEApplications.c ****              * attribute is extracted and used to drive RGB LED.
 148:.\BLEApplications.c ****              */
 149:.\BLEApplications.c ****             
 150:.\BLEApplications.c ****             /* Extract the attribute handle for the RGB LED 
 151:.\BLEApplications.c ****              * characteristic from the custom service data structure.
 152:.\BLEApplications.c ****              */
 153:.\BLEApplications.c ****             if(wrReqParam->handleValPair.attrHandle == cyBle_customs[RGB_LED_SERVICE_INDEX].\
 154:.\BLEApplications.c **** 								customServiceInfo[RGB_LED_CHAR_INDEX].customServiceCharHandle)
 155:.\BLEApplications.c ****             {
 156:.\BLEApplications.c ****                 /* Extract the value of the attribute from the handle-value pair 
 157:.\BLEApplications.c ****                  * database. */
 158:.\BLEApplications.c ****                 RGBledData[RED_INDEX] = wrReqParam->handleValPair.value.val[RED_INDEX];
 159:.\BLEApplications.c ****                 RGBledData[GREEN_INDEX] = wrReqParam->handleValPair.value.val[GREEN_INDEX];
 160:.\BLEApplications.c ****                 RGBledData[BLUE_INDEX] = wrReqParam->handleValPair.value.val[BLUE_INDEX];
 161:.\BLEApplications.c ****                 RGBledData[INTENSITY_INDEX] = wrReqParam->handleValPair.value.val[INTENSITY_INDEX];
 162:.\BLEApplications.c ****                 
 163:.\BLEApplications.c ****                 /* Update the PrISM components and the attribute for RGB LED read 
 164:.\BLEApplications.c ****                  * characteristics */
ARM GAS  C:\Users\Ecapable\AppData\Local\Temp\ccj40yZB.s 			page 5


 165:.\BLEApplications.c ****                 UpdateRGBled();
 166:.\BLEApplications.c ****             }
 167:.\BLEApplications.c **** 
 168:.\BLEApplications.c ****             
 169:.\BLEApplications.c ****             /* This condition checks whether the CCCD descriptor for CapSense
 170:.\BLEApplications.c ****              * slider characteristic has been written to. This tells us whether
 171:.\BLEApplications.c ****              * the notifications for CapSense slider have been enabled/disabled.
 172:.\BLEApplications.c ****              */
 173:.\BLEApplications.c ****             if(wrReqParam->handleValPair.attrHandle == cyBle_customs[CAPSENSE_SERVICE_INDEX].\
 174:.\BLEApplications.c **** 				customServiceInfo[CAPSENSE_SLIDER_CHAR_INDEX].customServiceCharDescriptors[CAPSENSE_SLIDER_CCC_
 175:.\BLEApplications.c ****             {
 176:.\BLEApplications.c ****                 sendCapSenseSliderNotifications = wrReqParam->handleValPair.value.val[CCC_DATA_INDE
 177:.\BLEApplications.c **** 				
 178:.\BLEApplications.c **** 				/* Set flag to allow CCCD to be updated for next read operation */
 179:.\BLEApplications.c **** 				updateNotificationCCCAttribute = TRUE;
 180:.\BLEApplications.c ****             }
 181:.\BLEApplications.c **** 
 182:.\BLEApplications.c **** 			
 183:.\BLEApplications.c **** 			/* Send the response to the write request received. */
 184:.\BLEApplications.c **** 			CyBle_GattsWriteRsp(cyBle_connHandle);
 185:.\BLEApplications.c **** 			
 186:.\BLEApplications.c **** 			break;
 187:.\BLEApplications.c **** 
 188:.\BLEApplications.c ****         default:
 189:.\BLEApplications.c **** 
 190:.\BLEApplications.c ****        	 	break;
  65              		.loc 1 190 0
  66 001a 6AE0     		b	.L1
  67              	.L4:
  92:.\BLEApplications.c ****     {
  68              		.loc 1 92 0
  69 001c 422B     		cmp	r3, #66
  70 001e 15D0     		beq	.L6
  71 0020 4C2B     		cmp	r3, #76
  72 0022 2BD0     		beq	.L7
  73 0024 412B     		cmp	r3, #65
  74 0026 0DD0     		beq	.L8
  75              		.loc 1 190 0
  76 0028 63E0     		b	.L1
  77              	.L3:
  97:.\BLEApplications.c **** 			break;
  78              		.loc 1 97 0
  79 002a 0020     		mov	r0, #0
  80 002c FFF7FEFF 		bl	CyBle_GappStartAdvertisement
  98:.\BLEApplications.c **** 			
  81              		.loc 1 98 0
  82 0030 5FE0     		b	.L1
  83              	.L5:
 102:.\BLEApplications.c ****             {
  84              		.loc 1 102 0
  85 0032 314B     		ldr	r3, .L13
  86 0034 1B78     		ldrb	r3, [r3]
  87 0036 042B     		cmp	r3, #4
  88 0038 03D1     		bne	.L10
 105:.\BLEApplications.c ****             }
  89              		.loc 1 105 0
  90 003a 0020     		mov	r0, #0
ARM GAS  C:\Users\Ecapable\AppData\Local\Temp\ccj40yZB.s 			page 6


  91 003c FFF7FEFF 		bl	CyBle_GappStartAdvertisement
 107:.\BLEApplications.c **** 			
  92              		.loc 1 107 0
  93 0040 57E0     		b	.L1
  94              	.L10:
  95 0042 56E0     		b	.L1
  96              	.L8:
 111:.\BLEApplications.c **** 			break;
  97              		.loc 1 111 0
  98 0044 2D4B     		ldr	r3, .L13+4
  99 0046 0122     		mov	r2, #1
 100 0048 1A70     		strb	r2, [r3]
 112:.\BLEApplications.c ****         
 101              		.loc 1 112 0
 102 004a 52E0     		b	.L1
 103              	.L6:
 116:.\BLEApplications.c **** 			
 104              		.loc 1 116 0
 105 004c 2B4B     		ldr	r3, .L13+4
 106 004e 0022     		mov	r2, #0
 107 0050 1A70     		strb	r2, [r3]
 120:.\BLEApplications.c **** 			
 108              		.loc 1 120 0
 109 0052 2B4B     		ldr	r3, .L13+8
 110 0054 0022     		mov	r2, #0
 111 0056 1A70     		strb	r2, [r3]
 123:.\BLEApplications.c **** 			
 112              		.loc 1 123 0
 113 0058 2A4B     		ldr	r3, .L13+12
 114 005a 0122     		mov	r2, #1
 115 005c 1A70     		strb	r2, [r3]
 126:.\BLEApplications.c ****             RGBledData[GREEN_INDEX] = ZERO;
 116              		.loc 1 126 0
 117 005e 2A4B     		ldr	r3, .L13+16
 118 0060 0022     		mov	r2, #0
 119 0062 1A70     		strb	r2, [r3]
 127:.\BLEApplications.c ****             RGBledData[BLUE_INDEX] = ZERO;
 120              		.loc 1 127 0
 121 0064 284B     		ldr	r3, .L13+16
 122 0066 0022     		mov	r2, #0
 123 0068 5A70     		strb	r2, [r3, #1]
 128:.\BLEApplications.c ****             RGBledData[INTENSITY_INDEX] = ZERO;
 124              		.loc 1 128 0
 125 006a 274B     		ldr	r3, .L13+16
 126 006c 0022     		mov	r2, #0
 127 006e 9A70     		strb	r2, [r3, #2]
 129:.\BLEApplications.c **** 			UpdateRGBled();
 128              		.loc 1 129 0
 129 0070 254B     		ldr	r3, .L13+16
 130 0072 0022     		mov	r2, #0
 131 0074 DA70     		strb	r2, [r3, #3]
 130:.\BLEApplications.c **** 
 132              		.loc 1 130 0
 133 0076 FFF7FEFF 		bl	UpdateRGBled
 132:.\BLEApplications.c ****         
 134              		.loc 1 132 0
 135 007a 3AE0     		b	.L1
ARM GAS  C:\Users\Ecapable\AppData\Local\Temp\ccj40yZB.s 			page 7


 136              	.L7:
 141:.\BLEApplications.c ****             
 137              		.loc 1 141 0
 138 007c 3B68     		ldr	r3, [r7]
 139 007e FB60     		str	r3, [r7, #12]
 153:.\BLEApplications.c **** 								customServiceInfo[RGB_LED_CHAR_INDEX].customServiceCharHandle)
 140              		.loc 1 153 0
 141 0080 FB68     		ldr	r3, [r7, #12]
 142 0082 9A89     		ldrh	r2, [r3, #12]
 154:.\BLEApplications.c ****             {
 143              		.loc 1 154 0
 144 0084 214B     		ldr	r3, .L13+20
 145 0086 5B89     		ldrh	r3, [r3, #10]
 153:.\BLEApplications.c **** 								customServiceInfo[RGB_LED_CHAR_INDEX].customServiceCharHandle)
 146              		.loc 1 153 0
 147 0088 9A42     		cmp	r2, r3
 148 008a 15D1     		bne	.L11
 158:.\BLEApplications.c ****                 RGBledData[GREEN_INDEX] = wrReqParam->handleValPair.value.val[GREEN_INDEX];
 149              		.loc 1 158 0
 150 008c FB68     		ldr	r3, [r7, #12]
 151 008e 5B68     		ldr	r3, [r3, #4]
 152 0090 1A78     		ldrb	r2, [r3]
 153 0092 1D4B     		ldr	r3, .L13+16
 154 0094 1A70     		strb	r2, [r3]
 159:.\BLEApplications.c ****                 RGBledData[BLUE_INDEX] = wrReqParam->handleValPair.value.val[BLUE_INDEX];
 155              		.loc 1 159 0
 156 0096 FB68     		ldr	r3, [r7, #12]
 157 0098 5B68     		ldr	r3, [r3, #4]
 158 009a 5A78     		ldrb	r2, [r3, #1]
 159 009c 1A4B     		ldr	r3, .L13+16
 160 009e 5A70     		strb	r2, [r3, #1]
 160:.\BLEApplications.c ****                 RGBledData[INTENSITY_INDEX] = wrReqParam->handleValPair.value.val[INTENSITY_INDEX];
 161              		.loc 1 160 0
 162 00a0 FB68     		ldr	r3, [r7, #12]
 163 00a2 5B68     		ldr	r3, [r3, #4]
 164 00a4 9A78     		ldrb	r2, [r3, #2]
 165 00a6 184B     		ldr	r3, .L13+16
 166 00a8 9A70     		strb	r2, [r3, #2]
 161:.\BLEApplications.c ****                 
 167              		.loc 1 161 0
 168 00aa FB68     		ldr	r3, [r7, #12]
 169 00ac 5B68     		ldr	r3, [r3, #4]
 170 00ae DA78     		ldrb	r2, [r3, #3]
 171 00b0 154B     		ldr	r3, .L13+16
 172 00b2 DA70     		strb	r2, [r3, #3]
 165:.\BLEApplications.c ****             }
 173              		.loc 1 165 0
 174 00b4 FFF7FEFF 		bl	UpdateRGBled
 175              	.L11:
 173:.\BLEApplications.c **** 				customServiceInfo[CAPSENSE_SLIDER_CHAR_INDEX].customServiceCharDescriptors[CAPSENSE_SLIDER_CCC_
 176              		.loc 1 173 0
 177 00b8 FB68     		ldr	r3, [r7, #12]
 178 00ba 9A89     		ldrh	r2, [r3, #12]
 174:.\BLEApplications.c ****             {
 179              		.loc 1 174 0
 180 00bc 134B     		ldr	r3, .L13+20
 181 00be 9B88     		ldrh	r3, [r3, #4]
ARM GAS  C:\Users\Ecapable\AppData\Local\Temp\ccj40yZB.s 			page 8


 173:.\BLEApplications.c **** 				customServiceInfo[CAPSENSE_SLIDER_CHAR_INDEX].customServiceCharDescriptors[CAPSENSE_SLIDER_CCC_
 182              		.loc 1 173 0
 183 00c0 9A42     		cmp	r2, r3
 184 00c2 07D1     		bne	.L12
 176:.\BLEApplications.c **** 				
 185              		.loc 1 176 0
 186 00c4 FB68     		ldr	r3, [r7, #12]
 187 00c6 5B68     		ldr	r3, [r3, #4]
 188 00c8 1A78     		ldrb	r2, [r3]
 189 00ca 0D4B     		ldr	r3, .L13+8
 190 00cc 1A70     		strb	r2, [r3]
 179:.\BLEApplications.c ****             }
 191              		.loc 1 179 0
 192 00ce 0D4B     		ldr	r3, .L13+12
 193 00d0 0122     		mov	r2, #1
 194 00d2 1A70     		strb	r2, [r3]
 195              	.L12:
 184:.\BLEApplications.c **** 			
 196              		.loc 1 184 0
 197 00d4 0E4B     		ldr	r3, .L13+24
 198 00d6 1A78     		ldrb	r2, [r3]
 199 00d8 5B78     		ldrb	r3, [r3, #1]
 200 00da 1B02     		lsl	r3, r3, #8
 201 00dc 1A43     		orr	r2, r3
 202 00de 0023     		mov	r3, #0
 203 00e0 1204     		lsl	r2, r2, #16
 204 00e2 120C     		lsr	r2, r2, #16
 205 00e4 1B0C     		lsr	r3, r3, #16
 206 00e6 1B04     		lsl	r3, r3, #16
 207 00e8 1343     		orr	r3, r2
 208 00ea 181C     		mov	r0, r3
 209 00ec FFF7FEFF 		bl	CyBle_GattsWriteRsp
 186:.\BLEApplications.c **** 
 210              		.loc 1 186 0
 211 00f0 C046     		mov	r8, r8
 212              	.L1:
 191:.\BLEApplications.c ****     }
 192:.\BLEApplications.c **** }
 213              		.loc 1 192 0
 214 00f2 BD46     		mov	sp, r7
 215 00f4 04B0     		add	sp, sp, #16
 216              		@ sp needed
 217 00f6 80BD     		pop	{r7, pc}
 218              	.L14:
 219              		.align	2
 220              	.L13:
 221 00f8 00000000 		.word	cyBle_state
 222 00fc 00000000 		.word	deviceConnected
 223 0100 00000000 		.word	sendCapSenseSliderNotifications
 224 0104 00000000 		.word	updateNotificationCCCAttribute
 225 0108 00000000 		.word	RGBledData
 226 010c 00000000 		.word	cyBle_customs
 227 0110 00000000 		.word	cyBle_connHandle
 228              		.cfi_endproc
 229              	.LFE37:
 230              		.size	CustomEventHandler, .-CustomEventHandler
 231              		.section	.text.SendCapSenseNotification,"ax",%progbits
ARM GAS  C:\Users\Ecapable\AppData\Local\Temp\ccj40yZB.s 			page 9


 232              		.align	2
 233              		.global	SendCapSenseNotification
 234              		.code	16
 235              		.thumb_func
 236              		.type	SendCapSenseNotification, %function
 237              	SendCapSenseNotification:
 238              	.LFB38:
 193:.\BLEApplications.c **** 
 194:.\BLEApplications.c **** 
 195:.\BLEApplications.c **** /*******************************************************************************
 196:.\BLEApplications.c **** * Function Name: SendCapSenseNotification
 197:.\BLEApplications.c **** ********************************************************************************
 198:.\BLEApplications.c **** * Summary:
 199:.\BLEApplications.c **** * Send CapSense Slider data as BLE Notifications. This function updates
 200:.\BLEApplications.c **** * the notification handle with data and triggers the BLE component to send 
 201:.\BLEApplications.c **** * notification
 202:.\BLEApplications.c **** *
 203:.\BLEApplications.c **** * Parameters:
 204:.\BLEApplications.c **** *  CapSenseSliderData:	CapSense slider value	
 205:.\BLEApplications.c **** *
 206:.\BLEApplications.c **** * Return:
 207:.\BLEApplications.c **** *  void
 208:.\BLEApplications.c **** *
 209:.\BLEApplications.c **** *******************************************************************************/
 210:.\BLEApplications.c **** void SendCapSenseNotification(uint8 CapSenseSliderData)
 211:.\BLEApplications.c **** {
 239              		.loc 1 211 0
 240              		.cfi_startproc
 241 0000 80B5     		push	{r7, lr}
 242              		.cfi_def_cfa_offset 8
 243              		.cfi_offset 7, -8
 244              		.cfi_offset 14, -4
 245 0002 86B0     		sub	sp, sp, #24
 246              		.cfi_def_cfa_offset 32
 247 0004 00AF     		add	r7, sp, #0
 248              		.cfi_def_cfa_register 7
 249 0006 021C     		mov	r2, r0
 250 0008 FB1D     		add	r3, r7, #7
 251 000a 1A70     		strb	r2, [r3]
 212:.\BLEApplications.c **** 	/* 'CapSensenotificationHandle' stores CapSense notification data parameters */
 213:.\BLEApplications.c **** 	CYBLE_GATTS_HANDLE_VALUE_NTF_T		CapSensenotificationHandle;	
 214:.\BLEApplications.c **** 	
 215:.\BLEApplications.c **** 	/* Update notification handle with CapSense slider data*/
 216:.\BLEApplications.c **** 	CapSensenotificationHandle.attrHandle = CAPSENSE_SLIDER_CHAR_HANDLE;				
 252              		.loc 1 216 0
 253 000c 0C23     		mov	r3, #12
 254 000e FB18     		add	r3, r7, r3
 255 0010 0E22     		mov	r2, #14
 256 0012 1A81     		strh	r2, [r3, #8]
 217:.\BLEApplications.c **** 	CapSensenotificationHandle.value.val = &CapSenseSliderData;
 257              		.loc 1 217 0
 258 0014 0C23     		mov	r3, #12
 259 0016 FB18     		add	r3, r7, r3
 260 0018 FA1D     		add	r2, r7, #7
 261 001a 1A60     		str	r2, [r3]
 218:.\BLEApplications.c **** 	CapSensenotificationHandle.value.len = CAPSENSE_CHAR_DATA_LEN;
 262              		.loc 1 218 0
ARM GAS  C:\Users\Ecapable\AppData\Local\Temp\ccj40yZB.s 			page 10


 263 001c 0C23     		mov	r3, #12
 264 001e FB18     		add	r3, r7, r3
 265 0020 0122     		mov	r2, #1
 266 0022 9A80     		strh	r2, [r3, #4]
 219:.\BLEApplications.c **** 	
 220:.\BLEApplications.c **** 	/* Send notifications. */
 221:.\BLEApplications.c **** 	CyBle_GattsNotification(cyBle_connHandle, &CapSensenotificationHandle);
 267              		.loc 1 221 0
 268 0024 094B     		ldr	r3, .L16
 269 0026 0C22     		mov	r2, #12
 270 0028 B918     		add	r1, r7, r2
 271 002a 1A78     		ldrb	r2, [r3]
 272 002c 5B78     		ldrb	r3, [r3, #1]
 273 002e 1B02     		lsl	r3, r3, #8
 274 0030 1A43     		orr	r2, r3
 275 0032 0023     		mov	r3, #0
 276 0034 1204     		lsl	r2, r2, #16
 277 0036 120C     		lsr	r2, r2, #16
 278 0038 1B0C     		lsr	r3, r3, #16
 279 003a 1B04     		lsl	r3, r3, #16
 280 003c 1343     		orr	r3, r2
 281 003e 181C     		mov	r0, r3
 282 0040 FFF7FEFF 		bl	CyBle_GattsNotification
 222:.\BLEApplications.c **** }
 283              		.loc 1 222 0
 284 0044 BD46     		mov	sp, r7
 285 0046 06B0     		add	sp, sp, #24
 286              		@ sp needed
 287 0048 80BD     		pop	{r7, pc}
 288              	.L17:
 289 004a C046     		.align	2
 290              	.L16:
 291 004c 00000000 		.word	cyBle_connHandle
 292              		.cfi_endproc
 293              	.LFE38:
 294              		.size	SendCapSenseNotification, .-SendCapSenseNotification
 295              		.global	__aeabi_idiv
 296              		.section	.text.UpdateRGBled,"ax",%progbits
 297              		.align	2
 298              		.global	UpdateRGBled
 299              		.code	16
 300              		.thumb_func
 301              		.type	UpdateRGBled, %function
 302              	UpdateRGBled:
 303              	.LFB39:
 223:.\BLEApplications.c **** 
 224:.\BLEApplications.c **** 
 225:.\BLEApplications.c **** /*******************************************************************************
 226:.\BLEApplications.c **** * Function Name: UpdateRGBled
 227:.\BLEApplications.c **** ********************************************************************************
 228:.\BLEApplications.c **** * Summary:
 229:.\BLEApplications.c **** * Receive the new RGB data and modify PrISM parameters. Also, update the
 230:.\BLEApplications.c **** * read characteristic handle so that the next read from the BLE central device
 231:.\BLEApplications.c **** * gives present RGB color and intensity data.
 232:.\BLEApplications.c **** *
 233:.\BLEApplications.c **** * Parameters:
 234:.\BLEApplications.c **** *  void
ARM GAS  C:\Users\Ecapable\AppData\Local\Temp\ccj40yZB.s 			page 11


 235:.\BLEApplications.c **** *
 236:.\BLEApplications.c **** * Return:
 237:.\BLEApplications.c **** *  void
 238:.\BLEApplications.c **** *
 239:.\BLEApplications.c **** *******************************************************************************/
 240:.\BLEApplications.c **** void UpdateRGBled(void)
 241:.\BLEApplications.c **** {
 304              		.loc 1 241 0
 305              		.cfi_startproc
 306 0000 80B5     		push	{r7, lr}
 307              		.cfi_def_cfa_offset 8
 308              		.cfi_offset 7, -8
 309              		.cfi_offset 14, -4
 310 0002 82B0     		sub	sp, sp, #8
 311              		.cfi_def_cfa_offset 16
 312 0004 00AF     		add	r7, sp, #0
 313              		.cfi_def_cfa_register 7
 242:.\BLEApplications.c **** 	/* Local variables to calculate the color components from RGB received data*/
 243:.\BLEApplications.c **** 	uint8 debug_red;
 244:.\BLEApplications.c **** 	uint8 debug_green;
 245:.\BLEApplications.c **** 	uint8 debug_blue;
 246:.\BLEApplications.c **** 	uint8 intensity_divide_value = RGBledData[INTENSITY_INDEX];
 314              		.loc 1 246 0
 315 0006 FB1D     		add	r3, r7, #7
 316 0008 2C4A     		ldr	r2, .L19
 317 000a D278     		ldrb	r2, [r2, #3]
 318 000c 1A70     		strb	r2, [r3]
 247:.\BLEApplications.c **** 	
 248:.\BLEApplications.c **** 	debug_red = (uint8)(((uint16)RGBledData[RED_INDEX] * intensity_divide_value) / 255);
 319              		.loc 1 248 0
 320 000e 2B4B     		ldr	r3, .L19
 321 0010 1B78     		ldrb	r3, [r3]
 322 0012 1A1C     		mov	r2, r3
 323 0014 FB1D     		add	r3, r7, #7
 324 0016 1B78     		ldrb	r3, [r3]
 325 0018 5343     		mul	r3, r2
 326 001a 181C     		mov	r0, r3
 327 001c FF21     		mov	r1, #255
 328 001e FFF7FEFF 		bl	__aeabi_idiv
 329 0022 031C     		mov	r3, r0
 330 0024 1A1C     		mov	r2, r3
 331 0026 BB1D     		add	r3, r7, #6
 332 0028 1A70     		strb	r2, [r3]
 249:.\BLEApplications.c **** 	debug_green = (uint8)(((uint16)RGBledData[GREEN_INDEX] * intensity_divide_value) / 255);
 333              		.loc 1 249 0
 334 002a 244B     		ldr	r3, .L19
 335 002c 5B78     		ldrb	r3, [r3, #1]
 336 002e 1A1C     		mov	r2, r3
 337 0030 FB1D     		add	r3, r7, #7
 338 0032 1B78     		ldrb	r3, [r3]
 339 0034 5343     		mul	r3, r2
 340 0036 181C     		mov	r0, r3
 341 0038 FF21     		mov	r1, #255
 342 003a FFF7FEFF 		bl	__aeabi_idiv
 343 003e 031C     		mov	r3, r0
 344 0040 1A1C     		mov	r2, r3
 345 0042 7B1D     		add	r3, r7, #5
ARM GAS  C:\Users\Ecapable\AppData\Local\Temp\ccj40yZB.s 			page 12


 346 0044 1A70     		strb	r2, [r3]
 250:.\BLEApplications.c **** 	debug_blue = (uint8)(((uint16)RGBledData[BLUE_INDEX] * intensity_divide_value) / 255);
 347              		.loc 1 250 0
 348 0046 1D4B     		ldr	r3, .L19
 349 0048 9B78     		ldrb	r3, [r3, #2]
 350 004a 1A1C     		mov	r2, r3
 351 004c FB1D     		add	r3, r7, #7
 352 004e 1B78     		ldrb	r3, [r3]
 353 0050 5343     		mul	r3, r2
 354 0052 181C     		mov	r0, r3
 355 0054 FF21     		mov	r1, #255
 356 0056 FFF7FEFF 		bl	__aeabi_idiv
 357 005a 031C     		mov	r3, r0
 358 005c 1A1C     		mov	r2, r3
 359 005e 3B1D     		add	r3, r7, #4
 360 0060 1A70     		strb	r2, [r3]
 251:.\BLEApplications.c **** 	
 252:.\BLEApplications.c **** 	/* Update the density value of the PrISM module for color control*/
 253:.\BLEApplications.c **** 	PRS_1_WritePulse0(RGB_LED_MAX_VAL - debug_red);
 361              		.loc 1 253 0
 362 0062 BB1D     		add	r3, r7, #6
 363 0064 1B78     		ldrb	r3, [r3]
 364 0066 DB43     		mvn	r3, r3
 365 0068 DBB2     		uxtb	r3, r3
 366 006a 181C     		mov	r0, r3
 367 006c FFF7FEFF 		bl	PRS_1_WritePulse0
 254:.\BLEApplications.c ****     PRS_1_WritePulse1(RGB_LED_MAX_VAL - debug_green);
 368              		.loc 1 254 0
 369 0070 7B1D     		add	r3, r7, #5
 370 0072 1B78     		ldrb	r3, [r3]
 371 0074 DB43     		mvn	r3, r3
 372 0076 DBB2     		uxtb	r3, r3
 373 0078 181C     		mov	r0, r3
 374 007a FFF7FEFF 		bl	PRS_1_WritePulse1
 255:.\BLEApplications.c ****     PRS_2_WritePulse0(RGB_LED_MAX_VAL - debug_blue);
 375              		.loc 1 255 0
 376 007e 3B1D     		add	r3, r7, #4
 377 0080 1B78     		ldrb	r3, [r3]
 378 0082 DB43     		mvn	r3, r3
 379 0084 DBB2     		uxtb	r3, r3
 380 0086 181C     		mov	r0, r3
 381 0088 FFF7FEFF 		bl	PRS_2_WritePulse0
 256:.\BLEApplications.c **** 	
 257:.\BLEApplications.c **** 	/* Update RGB control handle with new values */
 258:.\BLEApplications.c **** 	rgbHandle.attrHandle = RGB_LED_CHAR_HANDLE;
 382              		.loc 1 258 0
 383 008c 0C4B     		ldr	r3, .L19+4
 384 008e 1322     		mov	r2, #19
 385 0090 1A81     		strh	r2, [r3, #8]
 259:.\BLEApplications.c **** 	rgbHandle.value.val = RGBledData;
 386              		.loc 1 259 0
 387 0092 0B4B     		ldr	r3, .L19+4
 388 0094 094A     		ldr	r2, .L19
 389 0096 1A60     		str	r2, [r3]
 260:.\BLEApplications.c **** 	rgbHandle.value.len = RGB_CHAR_DATA_LEN;
 390              		.loc 1 260 0
 391 0098 094B     		ldr	r3, .L19+4
ARM GAS  C:\Users\Ecapable\AppData\Local\Temp\ccj40yZB.s 			page 13


 392 009a 0422     		mov	r2, #4
 393 009c 9A80     		strh	r2, [r3, #4]
 261:.\BLEApplications.c **** 	rgbHandle.value.actualLen = RGB_CHAR_DATA_LEN;
 394              		.loc 1 261 0
 395 009e 084B     		ldr	r3, .L19+4
 396 00a0 0422     		mov	r2, #4
 397 00a2 DA80     		strh	r2, [r3, #6]
 262:.\BLEApplications.c **** 	
 263:.\BLEApplications.c **** 	/* Send updated RGB control handle as attribute for read by central device */
 264:.\BLEApplications.c **** 	CyBle_GattsWriteAttributeValue(&rgbHandle, FALSE, &cyBle_connHandle, FALSE);  
 398              		.loc 1 264 0
 399 00a4 064A     		ldr	r2, .L19+4
 400 00a6 074B     		ldr	r3, .L19+8
 401 00a8 101C     		mov	r0, r2
 402 00aa 0021     		mov	r1, #0
 403 00ac 1A1C     		mov	r2, r3
 404 00ae 0023     		mov	r3, #0
 405 00b0 FFF7FEFF 		bl	CyBle_GattsWriteAttributeValue
 265:.\BLEApplications.c **** }
 406              		.loc 1 265 0
 407 00b4 BD46     		mov	sp, r7
 408 00b6 02B0     		add	sp, sp, #8
 409              		@ sp needed
 410 00b8 80BD     		pop	{r7, pc}
 411              	.L20:
 412 00ba C046     		.align	2
 413              	.L19:
 414 00bc 00000000 		.word	RGBledData
 415 00c0 00000000 		.word	rgbHandle
 416 00c4 00000000 		.word	cyBle_connHandle
 417              		.cfi_endproc
 418              	.LFE39:
 419              		.size	UpdateRGBled, .-UpdateRGBled
 420              		.section	.text.UpdateNotificationCCCD,"ax",%progbits
 421              		.align	2
 422              		.global	UpdateNotificationCCCD
 423              		.code	16
 424              		.thumb_func
 425              		.type	UpdateNotificationCCCD, %function
 426              	UpdateNotificationCCCD:
 427              	.LFB40:
 266:.\BLEApplications.c **** 
 267:.\BLEApplications.c **** 
 268:.\BLEApplications.c **** /*******************************************************************************
 269:.\BLEApplications.c **** * Function Name: UpdateNotificationCCCD
 270:.\BLEApplications.c **** ********************************************************************************
 271:.\BLEApplications.c **** * Summary:
 272:.\BLEApplications.c **** * Update the data handle for notification status and report it to BLE 
 273:.\BLEApplications.c **** * component so that it can be read by Central device.
 274:.\BLEApplications.c **** *
 275:.\BLEApplications.c **** * Parameters:
 276:.\BLEApplications.c **** *  void
 277:.\BLEApplications.c **** *
 278:.\BLEApplications.c **** * Return:
 279:.\BLEApplications.c **** *  void
 280:.\BLEApplications.c **** *
 281:.\BLEApplications.c **** *******************************************************************************/
ARM GAS  C:\Users\Ecapable\AppData\Local\Temp\ccj40yZB.s 			page 14


 282:.\BLEApplications.c **** void UpdateNotificationCCCD(void)
 283:.\BLEApplications.c **** {
 428              		.loc 1 283 0
 429              		.cfi_startproc
 430 0000 80B5     		push	{r7, lr}
 431              		.cfi_def_cfa_offset 8
 432              		.cfi_offset 7, -8
 433              		.cfi_offset 14, -4
 434 0002 84B0     		sub	sp, sp, #16
 435              		.cfi_def_cfa_offset 24
 436 0004 00AF     		add	r7, sp, #0
 437              		.cfi_def_cfa_register 7
 284:.\BLEApplications.c **** 	/* Local variable to store the current CCCD value */
 285:.\BLEApplications.c **** 	uint8 CapSenseCCCDvalue[2];
 286:.\BLEApplications.c **** 	
 287:.\BLEApplications.c **** 	/* Handle value to update the CCCD */
 288:.\BLEApplications.c **** 	CYBLE_GATT_HANDLE_VALUE_PAIR_T CapSenseNotificationCCCDhandle;
 289:.\BLEApplications.c **** 	
 290:.\BLEApplications.c **** 	/* Update notification attribute only when there has been change */
 291:.\BLEApplications.c **** 	if(updateNotificationCCCAttribute)
 438              		.loc 1 291 0
 439 0006 134B     		ldr	r3, .L23
 440 0008 1B78     		ldrb	r3, [r3]
 441 000a 002B     		cmp	r3, #0
 442 000c 1FD0     		beq	.L21
 292:.\BLEApplications.c **** 	{
 293:.\BLEApplications.c **** 		updateNotificationCCCAttribute = FALSE;
 443              		.loc 1 293 0
 444 000e 114B     		ldr	r3, .L23
 445 0010 0022     		mov	r2, #0
 446 0012 1A70     		strb	r2, [r3]
 294:.\BLEApplications.c **** 	
 295:.\BLEApplications.c **** 		/* Write the present CapSense notification status to the local variable */
 296:.\BLEApplications.c **** 		CapSenseCCCDvalue[0] = sendCapSenseSliderNotifications;
 447              		.loc 1 296 0
 448 0014 104B     		ldr	r3, .L23+4
 449 0016 1A78     		ldrb	r2, [r3]
 450 0018 0C23     		mov	r3, #12
 451 001a FB18     		add	r3, r7, r3
 452 001c 1A70     		strb	r2, [r3]
 297:.\BLEApplications.c **** 		CapSenseCCCDvalue[1] = 0x00;
 453              		.loc 1 297 0
 454 001e 0C23     		mov	r3, #12
 455 0020 FB18     		add	r3, r7, r3
 456 0022 0022     		mov	r2, #0
 457 0024 5A70     		strb	r2, [r3, #1]
 298:.\BLEApplications.c **** 		
 299:.\BLEApplications.c **** 		/* Update CCCD handle with notification status data*/
 300:.\BLEApplications.c **** 		CapSenseNotificationCCCDhandle.attrHandle = CAPSENSE_CCC_HANDLE;
 458              		.loc 1 300 0
 459 0026 3B1C     		mov	r3, r7
 460 0028 0F22     		mov	r2, #15
 461 002a 1A81     		strh	r2, [r3, #8]
 301:.\BLEApplications.c **** 		CapSenseNotificationCCCDhandle.value.val = CapSenseCCCDvalue;
 462              		.loc 1 301 0
 463 002c 3B1C     		mov	r3, r7
 464 002e 0C22     		mov	r2, #12
ARM GAS  C:\Users\Ecapable\AppData\Local\Temp\ccj40yZB.s 			page 15


 465 0030 BA18     		add	r2, r7, r2
 466 0032 1A60     		str	r2, [r3]
 302:.\BLEApplications.c **** 		CapSenseNotificationCCCDhandle.value.len = CCC_DATA_LEN;
 467              		.loc 1 302 0
 468 0034 3B1C     		mov	r3, r7
 469 0036 0222     		mov	r2, #2
 470 0038 9A80     		strh	r2, [r3, #4]
 303:.\BLEApplications.c **** 		
 304:.\BLEApplications.c **** 		/* Report data to BLE component for sending data when read by Central device */
 305:.\BLEApplications.c **** 		CyBle_GattsWriteAttributeValue(&CapSenseNotificationCCCDhandle, ZERO, &cyBle_connHandle, CYBLE_GA
 471              		.loc 1 305 0
 472 003a 3A1C     		mov	r2, r7
 473 003c 074B     		ldr	r3, .L23+8
 474 003e 101C     		mov	r0, r2
 475 0040 0021     		mov	r1, #0
 476 0042 1A1C     		mov	r2, r3
 477 0044 0023     		mov	r3, #0
 478 0046 FFF7FEFF 		bl	CyBle_GattsWriteAttributeValue
 306:.\BLEApplications.c **** 		
 307:.\BLEApplications.c **** 		/* Register the updated attribute write value to BLE component once before
 308:.\BLEApplications.c **** 		* updating the next CCCD attribute value */
 309:.\BLEApplications.c **** 		CyBle_ProcessEvents();
 479              		.loc 1 309 0
 480 004a FFF7FEFF 		bl	CyBle_ProcessEvents
 481              	.L21:
 310:.\BLEApplications.c **** 	}	
 311:.\BLEApplications.c **** }
 482              		.loc 1 311 0
 483 004e BD46     		mov	sp, r7
 484 0050 04B0     		add	sp, sp, #16
 485              		@ sp needed
 486 0052 80BD     		pop	{r7, pc}
 487              	.L24:
 488              		.align	2
 489              	.L23:
 490 0054 00000000 		.word	updateNotificationCCCAttribute
 491 0058 00000000 		.word	sendCapSenseSliderNotifications
 492 005c 00000000 		.word	cyBle_connHandle
 493              		.cfi_endproc
 494              	.LFE40:
 495              		.size	UpdateNotificationCCCD, .-UpdateNotificationCCCD
 496              		.text
 497              	.Letext0:
 498              		.file 2 "Generated_Source\\PSoC4/cytypes.h"
 499              		.file 3 "Generated_Source\\PSoC4/BLE_1_StackGatt.h"
 500              		.file 4 "Generated_Source\\PSoC4/BLE_1_StackGattServer.h"
 501              		.file 5 "Generated_Source\\PSoC4/BLE_1_custom.h"
 502              		.file 6 "Generated_Source\\PSoC4/BLE_1_Stack.h"
 503              		.file 7 "Generated_Source\\PSoC4/BLE_1_eventHandler.h"